ARM GAS  C:\Users\Mayur\AppData\Local\Temp\cc8qQOmM.s 			page 1


   1              		.syntax unified
   2              		.cpu cortex-m0
   3              		.fpu softvfp
   4              		.eabi_attribute 20, 1
   5              		.eabi_attribute 21, 1
   6              		.eabi_attribute 23, 3
   7              		.eabi_attribute 24, 1
   8              		.eabi_attribute 25, 1
   9              		.eabi_attribute 26, 1
  10              		.eabi_attribute 30, 1
  11              		.eabi_attribute 34, 0
  12              		.eabi_attribute 18, 4
  13              		.thumb
  14              		.syntax unified
  15              		.file	"CapSense_1_Structure.c"
  16              		.text
  17              	.Ltext0:
  18              		.cfi_sections	.debug_frame
  19              		.section	.text.DsParseParamId,"ax",%progbits
  20              		.align	2
  21              		.code	16
  22              		.thumb_func
  23              		.type	DsParseParamId, %function
  24              	DsParseParamId:
  25              	.LFB1:
  26              		.file 1 "Generated_Source\\PSoC4\\CapSense_1_Structure.c"
   1:Generated_Source\PSoC4/CapSense_1_Structure.c **** /***************************************************************************//**
   2:Generated_Source\PSoC4/CapSense_1_Structure.c **** * \file CapSense_1_Structure.c
   3:Generated_Source\PSoC4/CapSense_1_Structure.c **** * \version 6.0
   4:Generated_Source\PSoC4/CapSense_1_Structure.c **** *
   5:Generated_Source\PSoC4/CapSense_1_Structure.c **** * \brief
   6:Generated_Source\PSoC4/CapSense_1_Structure.c **** *   This file defines the data structure global variables and provides implementation
   7:Generated_Source\PSoC4/CapSense_1_Structure.c **** *   for the high-level and low-level APIs of the Data Structure module.
   8:Generated_Source\PSoC4/CapSense_1_Structure.c **** *
   9:Generated_Source\PSoC4/CapSense_1_Structure.c **** * \see CapSense_1 v6.0 Datasheet
  10:Generated_Source\PSoC4/CapSense_1_Structure.c **** *
  11:Generated_Source\PSoC4/CapSense_1_Structure.c **** *//*****************************************************************************
  12:Generated_Source\PSoC4/CapSense_1_Structure.c **** * Copyright (2016-2018), Cypress Semiconductor Corporation.
  13:Generated_Source\PSoC4/CapSense_1_Structure.c **** ********************************************************************************
  14:Generated_Source\PSoC4/CapSense_1_Structure.c **** * This software is owned by Cypress Semiconductor Corporation (Cypress) and is
  15:Generated_Source\PSoC4/CapSense_1_Structure.c **** * protected by and subject to worldwide patent protection (United States and
  16:Generated_Source\PSoC4/CapSense_1_Structure.c **** * foreign), United States copyright laws and international treaty provisions.
  17:Generated_Source\PSoC4/CapSense_1_Structure.c **** * Cypress hereby grants to licensee a personal, non-exclusive, non-transferable
  18:Generated_Source\PSoC4/CapSense_1_Structure.c **** * license to copy, use, modify, create derivative works of, and compile the
  19:Generated_Source\PSoC4/CapSense_1_Structure.c **** * Cypress Source Code and derivative works for the sole purpose of creating
  20:Generated_Source\PSoC4/CapSense_1_Structure.c **** * custom software in support of licensee product to be used only in conjunction
  21:Generated_Source\PSoC4/CapSense_1_Structure.c **** * with a Cypress integrated circuit as specified in the applicable agreement.
  22:Generated_Source\PSoC4/CapSense_1_Structure.c **** * Any reproduction, modification, translation, compilation, or representation of
  23:Generated_Source\PSoC4/CapSense_1_Structure.c **** * this software except as specified above is prohibited without the express
  24:Generated_Source\PSoC4/CapSense_1_Structure.c **** * written permission of Cypress.
  25:Generated_Source\PSoC4/CapSense_1_Structure.c **** *
  26:Generated_Source\PSoC4/CapSense_1_Structure.c **** * Disclaimer: CYPRESS MAKES NO WARRANTY OF ANY KIND, EXPRESS OR IMPLIED, WITH
  27:Generated_Source\PSoC4/CapSense_1_Structure.c **** * REGARD TO THIS MATERIAL, INCLUDING, BUT NOT LIMITED TO, THE IMPLIED
  28:Generated_Source\PSoC4/CapSense_1_Structure.c **** * WARRANTIES OF MERCHANTABILITY AND FITNESS FOR A PARTICULAR PURPOSE.
  29:Generated_Source\PSoC4/CapSense_1_Structure.c **** * Cypress reserves the right to make changes without further notice to the
  30:Generated_Source\PSoC4/CapSense_1_Structure.c **** * materials described herein. Cypress does not assume any liability arising out
  31:Generated_Source\PSoC4/CapSense_1_Structure.c **** * of the application or use of any product or circuit described herein. Cypress
ARM GAS  C:\Users\Mayur\AppData\Local\Temp\cc8qQOmM.s 			page 2


  32:Generated_Source\PSoC4/CapSense_1_Structure.c **** * does not authorize its products for use as critical components in life-support
  33:Generated_Source\PSoC4/CapSense_1_Structure.c **** * systems where a malfunction or failure may reasonably be expected to result in
  34:Generated_Source\PSoC4/CapSense_1_Structure.c **** * significant injury to the user. The inclusion of Cypress' product in a life-
  35:Generated_Source\PSoC4/CapSense_1_Structure.c **** * support systems application implies that the manufacturer assumes all risk of
  36:Generated_Source\PSoC4/CapSense_1_Structure.c **** * such use and in doing so indemnifies Cypress against all charges. Use may be
  37:Generated_Source\PSoC4/CapSense_1_Structure.c **** * limited by and subject to the applicable Cypress software license agreement.
  38:Generated_Source\PSoC4/CapSense_1_Structure.c **** *******************************************************************************/
  39:Generated_Source\PSoC4/CapSense_1_Structure.c **** 
  40:Generated_Source\PSoC4/CapSense_1_Structure.c **** #include <cytypes.h>
  41:Generated_Source\PSoC4/CapSense_1_Structure.c **** #include "CyLib.h"
  42:Generated_Source\PSoC4/CapSense_1_Structure.c **** #include "CapSense_1_Structure.h"
  43:Generated_Source\PSoC4/CapSense_1_Structure.c **** #include "CapSense_1_Configuration.h"
  44:Generated_Source\PSoC4/CapSense_1_Structure.c **** 
  45:Generated_Source\PSoC4/CapSense_1_Structure.c **** #if (0u != CapSense_1_ADC_EN)
  46:Generated_Source\PSoC4/CapSense_1_Structure.c ****     #include "CapSense_1_Adc.h"
  47:Generated_Source\PSoC4/CapSense_1_Structure.c **** #endif /* (0u != CapSense_1_ADC_EN) */
  48:Generated_Source\PSoC4/CapSense_1_Structure.c **** 
  49:Generated_Source\PSoC4/CapSense_1_Structure.c **** #if (CapSense_1_ENABLE == CapSense_1_SELF_TEST_EN)
  50:Generated_Source\PSoC4/CapSense_1_Structure.c ****     #include "CapSense_1_SelfTest.h"
  51:Generated_Source\PSoC4/CapSense_1_Structure.c **** #endif
  52:Generated_Source\PSoC4/CapSense_1_Structure.c **** 
  53:Generated_Source\PSoC4/CapSense_1_Structure.c **** #if (CapSense_1_ENABLE == CapSense_1_CENTROID_5X5_CSD_EN)
  54:Generated_Source\PSoC4/CapSense_1_Structure.c ****     #include "CapSense_1_AdvancedCentroid_LL.h"
  55:Generated_Source\PSoC4/CapSense_1_Structure.c **** #endif
  56:Generated_Source\PSoC4/CapSense_1_Structure.c **** 
  57:Generated_Source\PSoC4/CapSense_1_Structure.c **** #if (CapSense_1_ENABLE == CapSense_1_GES_GLOBAL_EN)
  58:Generated_Source\PSoC4/CapSense_1_Structure.c ****     #include "CapSense_1_Gesture.h"
  59:Generated_Source\PSoC4/CapSense_1_Structure.c **** #endif /* (CapSense_1_ENABLE == CapSense_1_GES_GLOBAL_EN) */
  60:Generated_Source\PSoC4/CapSense_1_Structure.c **** 
  61:Generated_Source\PSoC4/CapSense_1_Structure.c **** /*******************************************************************************
  62:Generated_Source\PSoC4/CapSense_1_Structure.c **** * Defines the RAM Data Structure variables and their init data in flash
  63:Generated_Source\PSoC4/CapSense_1_Structure.c **** *******************************************************************************/
  64:Generated_Source\PSoC4/CapSense_1_Structure.c **** /**
  65:Generated_Source\PSoC4/CapSense_1_Structure.c **** * \cond SECTION_GLOBAL_VARIABLES
  66:Generated_Source\PSoC4/CapSense_1_Structure.c **** * \addtogroup group_global_variables
  67:Generated_Source\PSoC4/CapSense_1_Structure.c **** * \{
  68:Generated_Source\PSoC4/CapSense_1_Structure.c **** */
  69:Generated_Source\PSoC4/CapSense_1_Structure.c **** 
  70:Generated_Source\PSoC4/CapSense_1_Structure.c **** /**
  71:Generated_Source\PSoC4/CapSense_1_Structure.c **** * The variable that contains the CapSense_1 configuration, settings and
  72:Generated_Source\PSoC4/CapSense_1_Structure.c **** * scanning results. CapSense_1_dsRam represents RAM Data Structure.
  73:Generated_Source\PSoC4/CapSense_1_Structure.c **** */
  74:Generated_Source\PSoC4/CapSense_1_Structure.c **** CapSense_1_RAM_STRUCT CapSense_1_dsRam;
  75:Generated_Source\PSoC4/CapSense_1_Structure.c **** /** \}
  76:Generated_Source\PSoC4/CapSense_1_Structure.c **** * \endcond */
  77:Generated_Source\PSoC4/CapSense_1_Structure.c **** 
  78:Generated_Source\PSoC4/CapSense_1_Structure.c **** /*******************************************************************************
  79:Generated_Source\PSoC4/CapSense_1_Structure.c **** * Declares Widget's De-bounce Counters
  80:Generated_Source\PSoC4/CapSense_1_Structure.c **** *******************************************************************************/
  81:Generated_Source\PSoC4/CapSense_1_Structure.c **** static uint8 CapSense_1_debounceButton0[CapSense_1_BUTTON0_NUM_SENSORS];
  82:Generated_Source\PSoC4/CapSense_1_Structure.c **** static uint8 CapSense_1_debounceButton1[CapSense_1_BUTTON1_NUM_SENSORS];
  83:Generated_Source\PSoC4/CapSense_1_Structure.c **** static uint8 CapSense_1_debounceButton2[CapSense_1_BUTTON2_NUM_SENSORS];
  84:Generated_Source\PSoC4/CapSense_1_Structure.c **** static uint8 CapSense_1_debounceButton3[CapSense_1_BUTTON3_NUM_SENSORS];
  85:Generated_Source\PSoC4/CapSense_1_Structure.c **** static uint8 CapSense_1_debounceButton5[CapSense_1_BUTTON5_NUM_SENSORS];
  86:Generated_Source\PSoC4/CapSense_1_Structure.c **** static uint8 CapSense_1_debounceButton6[CapSense_1_BUTTON6_NUM_SENSORS];
  87:Generated_Source\PSoC4/CapSense_1_Structure.c **** static uint8 CapSense_1_debounceButton4[CapSense_1_BUTTON4_NUM_SENSORS];
  88:Generated_Source\PSoC4/CapSense_1_Structure.c **** static uint8 CapSense_1_debounceButton7[CapSense_1_BUTTON7_NUM_SENSORS];
ARM GAS  C:\Users\Mayur\AppData\Local\Temp\cc8qQOmM.s 			page 3


  89:Generated_Source\PSoC4/CapSense_1_Structure.c **** 
  90:Generated_Source\PSoC4/CapSense_1_Structure.c **** 
  91:Generated_Source\PSoC4/CapSense_1_Structure.c **** /***************************************************************************//**
  92:Generated_Source\PSoC4/CapSense_1_Structure.c **** * Declares Noise Envelope data structures
  93:Generated_Source\PSoC4/CapSense_1_Structure.c **** *******************************************************************************/
  94:Generated_Source\PSoC4/CapSense_1_Structure.c **** static SMARTSENSE_CSD_NOISE_ENVELOPE_STRUCT CapSense_1_noiseEnvlpButton0[CapSense_1_BUTTON0_NUM_SEN
  95:Generated_Source\PSoC4/CapSense_1_Structure.c **** static SMARTSENSE_CSD_NOISE_ENVELOPE_STRUCT CapSense_1_noiseEnvlpButton1[CapSense_1_BUTTON1_NUM_SEN
  96:Generated_Source\PSoC4/CapSense_1_Structure.c **** static SMARTSENSE_CSD_NOISE_ENVELOPE_STRUCT CapSense_1_noiseEnvlpButton2[CapSense_1_BUTTON2_NUM_SEN
  97:Generated_Source\PSoC4/CapSense_1_Structure.c **** static SMARTSENSE_CSD_NOISE_ENVELOPE_STRUCT CapSense_1_noiseEnvlpButton3[CapSense_1_BUTTON3_NUM_SEN
  98:Generated_Source\PSoC4/CapSense_1_Structure.c **** static SMARTSENSE_CSD_NOISE_ENVELOPE_STRUCT CapSense_1_noiseEnvlpButton5[CapSense_1_BUTTON5_NUM_SEN
  99:Generated_Source\PSoC4/CapSense_1_Structure.c **** static SMARTSENSE_CSD_NOISE_ENVELOPE_STRUCT CapSense_1_noiseEnvlpButton6[CapSense_1_BUTTON6_NUM_SEN
 100:Generated_Source\PSoC4/CapSense_1_Structure.c **** static SMARTSENSE_CSD_NOISE_ENVELOPE_STRUCT CapSense_1_noiseEnvlpButton4[CapSense_1_BUTTON4_NUM_SEN
 101:Generated_Source\PSoC4/CapSense_1_Structure.c **** static SMARTSENSE_CSD_NOISE_ENVELOPE_STRUCT CapSense_1_noiseEnvlpButton7[CapSense_1_BUTTON7_NUM_SEN
 102:Generated_Source\PSoC4/CapSense_1_Structure.c **** 
 103:Generated_Source\PSoC4/CapSense_1_Structure.c **** /***************************************************************************//**
 104:Generated_Source\PSoC4/CapSense_1_Structure.c **** * Declares Filter History Objects
 105:Generated_Source\PSoC4/CapSense_1_Structure.c **** *******************************************************************************/
 106:Generated_Source\PSoC4/CapSense_1_Structure.c **** static CapSense_1_REGULAR_FLTR_STRUCT CapSense_1_fltrHistoryButton0[CapSense_1_BUTTON0_NUM_SENSORS]
 107:Generated_Source\PSoC4/CapSense_1_Structure.c **** static CapSense_1_REGULAR_FLTR_STRUCT CapSense_1_fltrHistoryButton1[CapSense_1_BUTTON1_NUM_SENSORS]
 108:Generated_Source\PSoC4/CapSense_1_Structure.c **** static CapSense_1_REGULAR_FLTR_STRUCT CapSense_1_fltrHistoryButton2[CapSense_1_BUTTON2_NUM_SENSORS]
 109:Generated_Source\PSoC4/CapSense_1_Structure.c **** static CapSense_1_REGULAR_FLTR_STRUCT CapSense_1_fltrHistoryButton3[CapSense_1_BUTTON3_NUM_SENSORS]
 110:Generated_Source\PSoC4/CapSense_1_Structure.c **** static CapSense_1_REGULAR_FLTR_STRUCT CapSense_1_fltrHistoryButton5[CapSense_1_BUTTON5_NUM_SENSORS]
 111:Generated_Source\PSoC4/CapSense_1_Structure.c **** static CapSense_1_REGULAR_FLTR_STRUCT CapSense_1_fltrHistoryButton6[CapSense_1_BUTTON6_NUM_SENSORS]
 112:Generated_Source\PSoC4/CapSense_1_Structure.c **** static CapSense_1_REGULAR_FLTR_STRUCT CapSense_1_fltrHistoryButton4[CapSense_1_BUTTON4_NUM_SENSORS]
 113:Generated_Source\PSoC4/CapSense_1_Structure.c **** static CapSense_1_REGULAR_FLTR_STRUCT CapSense_1_fltrHistoryButton7[CapSense_1_BUTTON7_NUM_SENSORS]
 114:Generated_Source\PSoC4/CapSense_1_Structure.c **** 
 115:Generated_Source\PSoC4/CapSense_1_Structure.c **** /*******************************************************************************
 116:Generated_Source\PSoC4/CapSense_1_Structure.c **** * Defines and initializes the Flash Data Structure
 117:Generated_Source\PSoC4/CapSense_1_Structure.c **** *******************************************************************************/
 118:Generated_Source\PSoC4/CapSense_1_Structure.c **** 
 119:Generated_Source\PSoC4/CapSense_1_Structure.c **** 
 120:Generated_Source\PSoC4/CapSense_1_Structure.c **** 
 121:Generated_Source\PSoC4/CapSense_1_Structure.c **** /**
 122:Generated_Source\PSoC4/CapSense_1_Structure.c **** * \cond SECTION_API_CONSTANTS
 123:Generated_Source\PSoC4/CapSense_1_Structure.c **** * \addtogroup group_api_constants
 124:Generated_Source\PSoC4/CapSense_1_Structure.c **** * \{
 125:Generated_Source\PSoC4/CapSense_1_Structure.c **** */
 126:Generated_Source\PSoC4/CapSense_1_Structure.c **** /**
 127:Generated_Source\PSoC4/CapSense_1_Structure.c **** * Constant for the FLASH Data Structure
 128:Generated_Source\PSoC4/CapSense_1_Structure.c **** */
 129:Generated_Source\PSoC4/CapSense_1_Structure.c **** const CapSense_1_FLASH_STRUCT CapSense_1_dsFlash =
 130:Generated_Source\PSoC4/CapSense_1_Structure.c **** {
 131:Generated_Source\PSoC4/CapSense_1_Structure.c ****     /* Flash Widget Initialization Data */
 132:Generated_Source\PSoC4/CapSense_1_Structure.c ****     {
 133:Generated_Source\PSoC4/CapSense_1_Structure.c ****         { /* Button0 */
 134:Generated_Source\PSoC4/CapSense_1_Structure.c ****             &CapSense_1_ioList[0u],
 135:Generated_Source\PSoC4/CapSense_1_Structure.c ****             (void *)&CapSense_1_dsRam.wdgtList.button0,
 136:Generated_Source\PSoC4/CapSense_1_Structure.c ****             CapSense_1_dsRam.snsList.button0,
 137:Generated_Source\PSoC4/CapSense_1_Structure.c ****             (void *)CapSense_1_fltrHistoryButton0,
 138:Generated_Source\PSoC4/CapSense_1_Structure.c ****             CapSense_1_debounceButton0,
 139:Generated_Source\PSoC4/CapSense_1_Structure.c ****             CapSense_1_BUTTON0_STATIC_CONFIG,
 140:Generated_Source\PSoC4/CapSense_1_Structure.c ****             CapSense_1_BUTTON0_NUM_SENSORS,
 141:Generated_Source\PSoC4/CapSense_1_Structure.c ****             (uint8)CapSense_1_WD_BUTTON_E,
 142:Generated_Source\PSoC4/CapSense_1_Structure.c ****             CapSense_1_BUTTON0_NUM_SENSORS,
 143:Generated_Source\PSoC4/CapSense_1_Structure.c ****             CapSense_1_noiseEnvlpButton0,
 144:Generated_Source\PSoC4/CapSense_1_Structure.c ****         },
 145:Generated_Source\PSoC4/CapSense_1_Structure.c ****         { /* Button1 */
ARM GAS  C:\Users\Mayur\AppData\Local\Temp\cc8qQOmM.s 			page 4


 146:Generated_Source\PSoC4/CapSense_1_Structure.c ****             &CapSense_1_ioList[1u],
 147:Generated_Source\PSoC4/CapSense_1_Structure.c ****             (void *)&CapSense_1_dsRam.wdgtList.button1,
 148:Generated_Source\PSoC4/CapSense_1_Structure.c ****             CapSense_1_dsRam.snsList.button1,
 149:Generated_Source\PSoC4/CapSense_1_Structure.c ****             (void *)CapSense_1_fltrHistoryButton1,
 150:Generated_Source\PSoC4/CapSense_1_Structure.c ****             CapSense_1_debounceButton1,
 151:Generated_Source\PSoC4/CapSense_1_Structure.c ****             CapSense_1_BUTTON1_STATIC_CONFIG,
 152:Generated_Source\PSoC4/CapSense_1_Structure.c ****             CapSense_1_BUTTON1_NUM_SENSORS,
 153:Generated_Source\PSoC4/CapSense_1_Structure.c ****             (uint8)CapSense_1_WD_BUTTON_E,
 154:Generated_Source\PSoC4/CapSense_1_Structure.c ****             CapSense_1_BUTTON1_NUM_SENSORS,
 155:Generated_Source\PSoC4/CapSense_1_Structure.c ****             CapSense_1_noiseEnvlpButton1,
 156:Generated_Source\PSoC4/CapSense_1_Structure.c ****         },
 157:Generated_Source\PSoC4/CapSense_1_Structure.c ****         { /* Button2 */
 158:Generated_Source\PSoC4/CapSense_1_Structure.c ****             &CapSense_1_ioList[2u],
 159:Generated_Source\PSoC4/CapSense_1_Structure.c ****             (void *)&CapSense_1_dsRam.wdgtList.button2,
 160:Generated_Source\PSoC4/CapSense_1_Structure.c ****             CapSense_1_dsRam.snsList.button2,
 161:Generated_Source\PSoC4/CapSense_1_Structure.c ****             (void *)CapSense_1_fltrHistoryButton2,
 162:Generated_Source\PSoC4/CapSense_1_Structure.c ****             CapSense_1_debounceButton2,
 163:Generated_Source\PSoC4/CapSense_1_Structure.c ****             CapSense_1_BUTTON2_STATIC_CONFIG,
 164:Generated_Source\PSoC4/CapSense_1_Structure.c ****             CapSense_1_BUTTON2_NUM_SENSORS,
 165:Generated_Source\PSoC4/CapSense_1_Structure.c ****             (uint8)CapSense_1_WD_BUTTON_E,
 166:Generated_Source\PSoC4/CapSense_1_Structure.c ****             CapSense_1_BUTTON2_NUM_SENSORS,
 167:Generated_Source\PSoC4/CapSense_1_Structure.c ****             CapSense_1_noiseEnvlpButton2,
 168:Generated_Source\PSoC4/CapSense_1_Structure.c ****         },
 169:Generated_Source\PSoC4/CapSense_1_Structure.c ****         { /* Button3 */
 170:Generated_Source\PSoC4/CapSense_1_Structure.c ****             &CapSense_1_ioList[3u],
 171:Generated_Source\PSoC4/CapSense_1_Structure.c ****             (void *)&CapSense_1_dsRam.wdgtList.button3,
 172:Generated_Source\PSoC4/CapSense_1_Structure.c ****             CapSense_1_dsRam.snsList.button3,
 173:Generated_Source\PSoC4/CapSense_1_Structure.c ****             (void *)CapSense_1_fltrHistoryButton3,
 174:Generated_Source\PSoC4/CapSense_1_Structure.c ****             CapSense_1_debounceButton3,
 175:Generated_Source\PSoC4/CapSense_1_Structure.c ****             CapSense_1_BUTTON3_STATIC_CONFIG,
 176:Generated_Source\PSoC4/CapSense_1_Structure.c ****             CapSense_1_BUTTON3_NUM_SENSORS,
 177:Generated_Source\PSoC4/CapSense_1_Structure.c ****             (uint8)CapSense_1_WD_BUTTON_E,
 178:Generated_Source\PSoC4/CapSense_1_Structure.c ****             CapSense_1_BUTTON3_NUM_SENSORS,
 179:Generated_Source\PSoC4/CapSense_1_Structure.c ****             CapSense_1_noiseEnvlpButton3,
 180:Generated_Source\PSoC4/CapSense_1_Structure.c ****         },
 181:Generated_Source\PSoC4/CapSense_1_Structure.c ****         { /* Button5 */
 182:Generated_Source\PSoC4/CapSense_1_Structure.c ****             &CapSense_1_ioList[4u],
 183:Generated_Source\PSoC4/CapSense_1_Structure.c ****             (void *)&CapSense_1_dsRam.wdgtList.button5,
 184:Generated_Source\PSoC4/CapSense_1_Structure.c ****             CapSense_1_dsRam.snsList.button5,
 185:Generated_Source\PSoC4/CapSense_1_Structure.c ****             (void *)CapSense_1_fltrHistoryButton5,
 186:Generated_Source\PSoC4/CapSense_1_Structure.c ****             CapSense_1_debounceButton5,
 187:Generated_Source\PSoC4/CapSense_1_Structure.c ****             CapSense_1_BUTTON5_STATIC_CONFIG,
 188:Generated_Source\PSoC4/CapSense_1_Structure.c ****             CapSense_1_BUTTON5_NUM_SENSORS,
 189:Generated_Source\PSoC4/CapSense_1_Structure.c ****             (uint8)CapSense_1_WD_BUTTON_E,
 190:Generated_Source\PSoC4/CapSense_1_Structure.c ****             CapSense_1_BUTTON5_NUM_SENSORS,
 191:Generated_Source\PSoC4/CapSense_1_Structure.c ****             CapSense_1_noiseEnvlpButton5,
 192:Generated_Source\PSoC4/CapSense_1_Structure.c ****         },
 193:Generated_Source\PSoC4/CapSense_1_Structure.c ****         { /* Button6 */
 194:Generated_Source\PSoC4/CapSense_1_Structure.c ****             &CapSense_1_ioList[5u],
 195:Generated_Source\PSoC4/CapSense_1_Structure.c ****             (void *)&CapSense_1_dsRam.wdgtList.button6,
 196:Generated_Source\PSoC4/CapSense_1_Structure.c ****             CapSense_1_dsRam.snsList.button6,
 197:Generated_Source\PSoC4/CapSense_1_Structure.c ****             (void *)CapSense_1_fltrHistoryButton6,
 198:Generated_Source\PSoC4/CapSense_1_Structure.c ****             CapSense_1_debounceButton6,
 199:Generated_Source\PSoC4/CapSense_1_Structure.c ****             CapSense_1_BUTTON6_STATIC_CONFIG,
 200:Generated_Source\PSoC4/CapSense_1_Structure.c ****             CapSense_1_BUTTON6_NUM_SENSORS,
 201:Generated_Source\PSoC4/CapSense_1_Structure.c ****             (uint8)CapSense_1_WD_BUTTON_E,
 202:Generated_Source\PSoC4/CapSense_1_Structure.c ****             CapSense_1_BUTTON6_NUM_SENSORS,
ARM GAS  C:\Users\Mayur\AppData\Local\Temp\cc8qQOmM.s 			page 5


 203:Generated_Source\PSoC4/CapSense_1_Structure.c ****             CapSense_1_noiseEnvlpButton6,
 204:Generated_Source\PSoC4/CapSense_1_Structure.c ****         },
 205:Generated_Source\PSoC4/CapSense_1_Structure.c ****         { /* Button4 */
 206:Generated_Source\PSoC4/CapSense_1_Structure.c ****             &CapSense_1_ioList[6u],
 207:Generated_Source\PSoC4/CapSense_1_Structure.c ****             (void *)&CapSense_1_dsRam.wdgtList.button4,
 208:Generated_Source\PSoC4/CapSense_1_Structure.c ****             CapSense_1_dsRam.snsList.button4,
 209:Generated_Source\PSoC4/CapSense_1_Structure.c ****             (void *)CapSense_1_fltrHistoryButton4,
 210:Generated_Source\PSoC4/CapSense_1_Structure.c ****             CapSense_1_debounceButton4,
 211:Generated_Source\PSoC4/CapSense_1_Structure.c ****             CapSense_1_BUTTON4_STATIC_CONFIG,
 212:Generated_Source\PSoC4/CapSense_1_Structure.c ****             CapSense_1_BUTTON4_NUM_SENSORS,
 213:Generated_Source\PSoC4/CapSense_1_Structure.c ****             (uint8)CapSense_1_WD_BUTTON_E,
 214:Generated_Source\PSoC4/CapSense_1_Structure.c ****             CapSense_1_BUTTON4_NUM_SENSORS,
 215:Generated_Source\PSoC4/CapSense_1_Structure.c ****             CapSense_1_noiseEnvlpButton4,
 216:Generated_Source\PSoC4/CapSense_1_Structure.c ****         },
 217:Generated_Source\PSoC4/CapSense_1_Structure.c ****         { /* Button7 */
 218:Generated_Source\PSoC4/CapSense_1_Structure.c ****             &CapSense_1_ioList[7u],
 219:Generated_Source\PSoC4/CapSense_1_Structure.c ****             (void *)&CapSense_1_dsRam.wdgtList.button7,
 220:Generated_Source\PSoC4/CapSense_1_Structure.c ****             CapSense_1_dsRam.snsList.button7,
 221:Generated_Source\PSoC4/CapSense_1_Structure.c ****             (void *)CapSense_1_fltrHistoryButton7,
 222:Generated_Source\PSoC4/CapSense_1_Structure.c ****             CapSense_1_debounceButton7,
 223:Generated_Source\PSoC4/CapSense_1_Structure.c ****             CapSense_1_BUTTON7_STATIC_CONFIG,
 224:Generated_Source\PSoC4/CapSense_1_Structure.c ****             CapSense_1_BUTTON7_NUM_SENSORS,
 225:Generated_Source\PSoC4/CapSense_1_Structure.c ****             (uint8)CapSense_1_WD_BUTTON_E,
 226:Generated_Source\PSoC4/CapSense_1_Structure.c ****             CapSense_1_BUTTON7_NUM_SENSORS,
 227:Generated_Source\PSoC4/CapSense_1_Structure.c ****             CapSense_1_noiseEnvlpButton7,
 228:Generated_Source\PSoC4/CapSense_1_Structure.c ****         },
 229:Generated_Source\PSoC4/CapSense_1_Structure.c ****     },
 230:Generated_Source\PSoC4/CapSense_1_Structure.c **** };
 231:Generated_Source\PSoC4/CapSense_1_Structure.c **** 
 232:Generated_Source\PSoC4/CapSense_1_Structure.c **** /**
 233:Generated_Source\PSoC4/CapSense_1_Structure.c **** * The array of the pointers to the electrode specific register.
 234:Generated_Source\PSoC4/CapSense_1_Structure.c **** */
 235:Generated_Source\PSoC4/CapSense_1_Structure.c **** const CapSense_1_FLASH_IO_STRUCT CapSense_1_ioList[CapSense_1_TOTAL_ELECTRODES] =
 236:Generated_Source\PSoC4/CapSense_1_Structure.c **** {
 237:Generated_Source\PSoC4/CapSense_1_Structure.c ****     { /* 0: Button0_Sns0 */
 238:Generated_Source\PSoC4/CapSense_1_Structure.c ****         (reg32 *)CapSense_1_Sns__0__HSIOM,
 239:Generated_Source\PSoC4/CapSense_1_Structure.c ****         (reg32 *)CapSense_1_Sns__0__PC,
 240:Generated_Source\PSoC4/CapSense_1_Structure.c ****         (reg32 *)CapSense_1_Sns__0__DR,
 241:Generated_Source\PSoC4/CapSense_1_Structure.c ****         (reg32 *)CapSense_1_Sns__0__PS,
 242:Generated_Source\PSoC4/CapSense_1_Structure.c ****         CapSense_1_Sns__0__HSIOM_MASK,
 243:Generated_Source\PSoC4/CapSense_1_Structure.c ****         CapSense_1_Sns__0__MASK,
 244:Generated_Source\PSoC4/CapSense_1_Structure.c ****         CapSense_1_Sns__0__HSIOM_SHIFT,
 245:Generated_Source\PSoC4/CapSense_1_Structure.c ****         (uint8)CapSense_1_Sns__0__SHIFT,
 246:Generated_Source\PSoC4/CapSense_1_Structure.c ****         (uint8)CapSense_1_Sns__0__SHIFT * 3u,
 247:Generated_Source\PSoC4/CapSense_1_Structure.c ****     },
 248:Generated_Source\PSoC4/CapSense_1_Structure.c ****     { /* 1: Button1_Sns0 */
 249:Generated_Source\PSoC4/CapSense_1_Structure.c ****         (reg32 *)CapSense_1_Sns__1__HSIOM,
 250:Generated_Source\PSoC4/CapSense_1_Structure.c ****         (reg32 *)CapSense_1_Sns__1__PC,
 251:Generated_Source\PSoC4/CapSense_1_Structure.c ****         (reg32 *)CapSense_1_Sns__1__DR,
 252:Generated_Source\PSoC4/CapSense_1_Structure.c ****         (reg32 *)CapSense_1_Sns__1__PS,
 253:Generated_Source\PSoC4/CapSense_1_Structure.c ****         CapSense_1_Sns__1__HSIOM_MASK,
 254:Generated_Source\PSoC4/CapSense_1_Structure.c ****         CapSense_1_Sns__1__MASK,
 255:Generated_Source\PSoC4/CapSense_1_Structure.c ****         CapSense_1_Sns__1__HSIOM_SHIFT,
 256:Generated_Source\PSoC4/CapSense_1_Structure.c ****         (uint8)CapSense_1_Sns__1__SHIFT,
 257:Generated_Source\PSoC4/CapSense_1_Structure.c ****         (uint8)CapSense_1_Sns__1__SHIFT * 3u,
 258:Generated_Source\PSoC4/CapSense_1_Structure.c ****     },
 259:Generated_Source\PSoC4/CapSense_1_Structure.c ****     { /* 2: Button2_Sns0 */
ARM GAS  C:\Users\Mayur\AppData\Local\Temp\cc8qQOmM.s 			page 6


 260:Generated_Source\PSoC4/CapSense_1_Structure.c ****         (reg32 *)CapSense_1_Sns__2__HSIOM,
 261:Generated_Source\PSoC4/CapSense_1_Structure.c ****         (reg32 *)CapSense_1_Sns__2__PC,
 262:Generated_Source\PSoC4/CapSense_1_Structure.c ****         (reg32 *)CapSense_1_Sns__2__DR,
 263:Generated_Source\PSoC4/CapSense_1_Structure.c ****         (reg32 *)CapSense_1_Sns__2__PS,
 264:Generated_Source\PSoC4/CapSense_1_Structure.c ****         CapSense_1_Sns__2__HSIOM_MASK,
 265:Generated_Source\PSoC4/CapSense_1_Structure.c ****         CapSense_1_Sns__2__MASK,
 266:Generated_Source\PSoC4/CapSense_1_Structure.c ****         CapSense_1_Sns__2__HSIOM_SHIFT,
 267:Generated_Source\PSoC4/CapSense_1_Structure.c ****         (uint8)CapSense_1_Sns__2__SHIFT,
 268:Generated_Source\PSoC4/CapSense_1_Structure.c ****         (uint8)CapSense_1_Sns__2__SHIFT * 3u,
 269:Generated_Source\PSoC4/CapSense_1_Structure.c ****     },
 270:Generated_Source\PSoC4/CapSense_1_Structure.c ****     { /* 3: Button3_Sns0 */
 271:Generated_Source\PSoC4/CapSense_1_Structure.c ****         (reg32 *)CapSense_1_Sns__3__HSIOM,
 272:Generated_Source\PSoC4/CapSense_1_Structure.c ****         (reg32 *)CapSense_1_Sns__3__PC,
 273:Generated_Source\PSoC4/CapSense_1_Structure.c ****         (reg32 *)CapSense_1_Sns__3__DR,
 274:Generated_Source\PSoC4/CapSense_1_Structure.c ****         (reg32 *)CapSense_1_Sns__3__PS,
 275:Generated_Source\PSoC4/CapSense_1_Structure.c ****         CapSense_1_Sns__3__HSIOM_MASK,
 276:Generated_Source\PSoC4/CapSense_1_Structure.c ****         CapSense_1_Sns__3__MASK,
 277:Generated_Source\PSoC4/CapSense_1_Structure.c ****         CapSense_1_Sns__3__HSIOM_SHIFT,
 278:Generated_Source\PSoC4/CapSense_1_Structure.c ****         (uint8)CapSense_1_Sns__3__SHIFT,
 279:Generated_Source\PSoC4/CapSense_1_Structure.c ****         (uint8)CapSense_1_Sns__3__SHIFT * 3u,
 280:Generated_Source\PSoC4/CapSense_1_Structure.c ****     },
 281:Generated_Source\PSoC4/CapSense_1_Structure.c ****     { /* 4: Button5_Sns0 */
 282:Generated_Source\PSoC4/CapSense_1_Structure.c ****         (reg32 *)CapSense_1_Sns__4__HSIOM,
 283:Generated_Source\PSoC4/CapSense_1_Structure.c ****         (reg32 *)CapSense_1_Sns__4__PC,
 284:Generated_Source\PSoC4/CapSense_1_Structure.c ****         (reg32 *)CapSense_1_Sns__4__DR,
 285:Generated_Source\PSoC4/CapSense_1_Structure.c ****         (reg32 *)CapSense_1_Sns__4__PS,
 286:Generated_Source\PSoC4/CapSense_1_Structure.c ****         CapSense_1_Sns__4__HSIOM_MASK,
 287:Generated_Source\PSoC4/CapSense_1_Structure.c ****         CapSense_1_Sns__4__MASK,
 288:Generated_Source\PSoC4/CapSense_1_Structure.c ****         CapSense_1_Sns__4__HSIOM_SHIFT,
 289:Generated_Source\PSoC4/CapSense_1_Structure.c ****         (uint8)CapSense_1_Sns__4__SHIFT,
 290:Generated_Source\PSoC4/CapSense_1_Structure.c ****         (uint8)CapSense_1_Sns__4__SHIFT * 3u,
 291:Generated_Source\PSoC4/CapSense_1_Structure.c ****     },
 292:Generated_Source\PSoC4/CapSense_1_Structure.c ****     { /* 5: Button6_Sns0 */
 293:Generated_Source\PSoC4/CapSense_1_Structure.c ****         (reg32 *)CapSense_1_Sns__5__HSIOM,
 294:Generated_Source\PSoC4/CapSense_1_Structure.c ****         (reg32 *)CapSense_1_Sns__5__PC,
 295:Generated_Source\PSoC4/CapSense_1_Structure.c ****         (reg32 *)CapSense_1_Sns__5__DR,
 296:Generated_Source\PSoC4/CapSense_1_Structure.c ****         (reg32 *)CapSense_1_Sns__5__PS,
 297:Generated_Source\PSoC4/CapSense_1_Structure.c ****         CapSense_1_Sns__5__HSIOM_MASK,
 298:Generated_Source\PSoC4/CapSense_1_Structure.c ****         CapSense_1_Sns__5__MASK,
 299:Generated_Source\PSoC4/CapSense_1_Structure.c ****         CapSense_1_Sns__5__HSIOM_SHIFT,
 300:Generated_Source\PSoC4/CapSense_1_Structure.c ****         (uint8)CapSense_1_Sns__5__SHIFT,
 301:Generated_Source\PSoC4/CapSense_1_Structure.c ****         (uint8)CapSense_1_Sns__5__SHIFT * 3u,
 302:Generated_Source\PSoC4/CapSense_1_Structure.c ****     },
 303:Generated_Source\PSoC4/CapSense_1_Structure.c ****     { /* 6: Button4_Sns0 */
 304:Generated_Source\PSoC4/CapSense_1_Structure.c ****         (reg32 *)CapSense_1_Sns__6__HSIOM,
 305:Generated_Source\PSoC4/CapSense_1_Structure.c ****         (reg32 *)CapSense_1_Sns__6__PC,
 306:Generated_Source\PSoC4/CapSense_1_Structure.c ****         (reg32 *)CapSense_1_Sns__6__DR,
 307:Generated_Source\PSoC4/CapSense_1_Structure.c ****         (reg32 *)CapSense_1_Sns__6__PS,
 308:Generated_Source\PSoC4/CapSense_1_Structure.c ****         CapSense_1_Sns__6__HSIOM_MASK,
 309:Generated_Source\PSoC4/CapSense_1_Structure.c ****         CapSense_1_Sns__6__MASK,
 310:Generated_Source\PSoC4/CapSense_1_Structure.c ****         CapSense_1_Sns__6__HSIOM_SHIFT,
 311:Generated_Source\PSoC4/CapSense_1_Structure.c ****         (uint8)CapSense_1_Sns__6__SHIFT,
 312:Generated_Source\PSoC4/CapSense_1_Structure.c ****         (uint8)CapSense_1_Sns__6__SHIFT * 3u,
 313:Generated_Source\PSoC4/CapSense_1_Structure.c ****     },
 314:Generated_Source\PSoC4/CapSense_1_Structure.c ****     { /* 7: Button7_Sns0 */
 315:Generated_Source\PSoC4/CapSense_1_Structure.c ****         (reg32 *)CapSense_1_Sns__7__HSIOM,
 316:Generated_Source\PSoC4/CapSense_1_Structure.c ****         (reg32 *)CapSense_1_Sns__7__PC,
ARM GAS  C:\Users\Mayur\AppData\Local\Temp\cc8qQOmM.s 			page 7


 317:Generated_Source\PSoC4/CapSense_1_Structure.c ****         (reg32 *)CapSense_1_Sns__7__DR,
 318:Generated_Source\PSoC4/CapSense_1_Structure.c ****         (reg32 *)CapSense_1_Sns__7__PS,
 319:Generated_Source\PSoC4/CapSense_1_Structure.c ****         CapSense_1_Sns__7__HSIOM_MASK,
 320:Generated_Source\PSoC4/CapSense_1_Structure.c ****         CapSense_1_Sns__7__MASK,
 321:Generated_Source\PSoC4/CapSense_1_Structure.c ****         CapSense_1_Sns__7__HSIOM_SHIFT,
 322:Generated_Source\PSoC4/CapSense_1_Structure.c ****         (uint8)CapSense_1_Sns__7__SHIFT,
 323:Generated_Source\PSoC4/CapSense_1_Structure.c ****         (uint8)CapSense_1_Sns__7__SHIFT * 3u,
 324:Generated_Source\PSoC4/CapSense_1_Structure.c ****     },
 325:Generated_Source\PSoC4/CapSense_1_Structure.c **** };
 326:Generated_Source\PSoC4/CapSense_1_Structure.c **** 
 327:Generated_Source\PSoC4/CapSense_1_Structure.c **** 
 328:Generated_Source\PSoC4/CapSense_1_Structure.c **** 
 329:Generated_Source\PSoC4/CapSense_1_Structure.c **** /** \}
 330:Generated_Source\PSoC4/CapSense_1_Structure.c **** * \endcond */
 331:Generated_Source\PSoC4/CapSense_1_Structure.c **** 
 332:Generated_Source\PSoC4/CapSense_1_Structure.c **** /* Initialization data for RAM widget list */
 333:Generated_Source\PSoC4/CapSense_1_Structure.c **** const CapSense_1_RAM_WD_LIST_STRUCT CapSense_1_ramWidgetInit =
 334:Generated_Source\PSoC4/CapSense_1_Structure.c **** {
 335:Generated_Source\PSoC4/CapSense_1_Structure.c ****     { /* Button0 */
 336:Generated_Source\PSoC4/CapSense_1_Structure.c ****         CapSense_1_BUTTON0_RESOLUTION,
 337:Generated_Source\PSoC4/CapSense_1_Structure.c ****         CapSense_1_BUTTON0_FINGER_TH,
 338:Generated_Source\PSoC4/CapSense_1_Structure.c ****         CapSense_1_BUTTON0_NOISE_TH,
 339:Generated_Source\PSoC4/CapSense_1_Structure.c ****         CapSense_1_BUTTON0_NNOISE_TH,
 340:Generated_Source\PSoC4/CapSense_1_Structure.c ****         CapSense_1_BUTTON0_HYSTERESIS,
 341:Generated_Source\PSoC4/CapSense_1_Structure.c ****         CapSense_1_BUTTON0_ON_DEBOUNCE,
 342:Generated_Source\PSoC4/CapSense_1_Structure.c ****         CapSense_1_BUTTON0_LOW_BSLN_RST,
 343:Generated_Source\PSoC4/CapSense_1_Structure.c ****         {
 344:Generated_Source\PSoC4/CapSense_1_Structure.c ****             CapSense_1_BUTTON0_IDAC_MOD0,
 345:Generated_Source\PSoC4/CapSense_1_Structure.c ****         },
 346:Generated_Source\PSoC4/CapSense_1_Structure.c ****         CapSense_1_BUTTON0_SNS_CLK,
 347:Generated_Source\PSoC4/CapSense_1_Structure.c ****         CapSense_1_BUTTON0_SNS_CLK_SOURCE,
 348:Generated_Source\PSoC4/CapSense_1_Structure.c ****         CapSense_1_BUTTON0_FINGER_CAP,
 349:Generated_Source\PSoC4/CapSense_1_Structure.c ****         CapSense_1_BUTTON0_SIGPFC,
 350:Generated_Source\PSoC4/CapSense_1_Structure.c ****     },
 351:Generated_Source\PSoC4/CapSense_1_Structure.c ****     { /* Button1 */
 352:Generated_Source\PSoC4/CapSense_1_Structure.c ****         CapSense_1_BUTTON1_RESOLUTION,
 353:Generated_Source\PSoC4/CapSense_1_Structure.c ****         CapSense_1_BUTTON1_FINGER_TH,
 354:Generated_Source\PSoC4/CapSense_1_Structure.c ****         CapSense_1_BUTTON1_NOISE_TH,
 355:Generated_Source\PSoC4/CapSense_1_Structure.c ****         CapSense_1_BUTTON1_NNOISE_TH,
 356:Generated_Source\PSoC4/CapSense_1_Structure.c ****         CapSense_1_BUTTON1_HYSTERESIS,
 357:Generated_Source\PSoC4/CapSense_1_Structure.c ****         CapSense_1_BUTTON1_ON_DEBOUNCE,
 358:Generated_Source\PSoC4/CapSense_1_Structure.c ****         CapSense_1_BUTTON1_LOW_BSLN_RST,
 359:Generated_Source\PSoC4/CapSense_1_Structure.c ****         {
 360:Generated_Source\PSoC4/CapSense_1_Structure.c ****             CapSense_1_BUTTON1_IDAC_MOD0,
 361:Generated_Source\PSoC4/CapSense_1_Structure.c ****         },
 362:Generated_Source\PSoC4/CapSense_1_Structure.c ****         CapSense_1_BUTTON1_SNS_CLK,
 363:Generated_Source\PSoC4/CapSense_1_Structure.c ****         CapSense_1_BUTTON1_SNS_CLK_SOURCE,
 364:Generated_Source\PSoC4/CapSense_1_Structure.c ****         CapSense_1_BUTTON1_FINGER_CAP,
 365:Generated_Source\PSoC4/CapSense_1_Structure.c ****         CapSense_1_BUTTON1_SIGPFC,
 366:Generated_Source\PSoC4/CapSense_1_Structure.c ****     },
 367:Generated_Source\PSoC4/CapSense_1_Structure.c ****     { /* Button2 */
 368:Generated_Source\PSoC4/CapSense_1_Structure.c ****         CapSense_1_BUTTON2_RESOLUTION,
 369:Generated_Source\PSoC4/CapSense_1_Structure.c ****         CapSense_1_BUTTON2_FINGER_TH,
 370:Generated_Source\PSoC4/CapSense_1_Structure.c ****         CapSense_1_BUTTON2_NOISE_TH,
 371:Generated_Source\PSoC4/CapSense_1_Structure.c ****         CapSense_1_BUTTON2_NNOISE_TH,
 372:Generated_Source\PSoC4/CapSense_1_Structure.c ****         CapSense_1_BUTTON2_HYSTERESIS,
 373:Generated_Source\PSoC4/CapSense_1_Structure.c ****         CapSense_1_BUTTON2_ON_DEBOUNCE,
ARM GAS  C:\Users\Mayur\AppData\Local\Temp\cc8qQOmM.s 			page 8


 374:Generated_Source\PSoC4/CapSense_1_Structure.c ****         CapSense_1_BUTTON2_LOW_BSLN_RST,
 375:Generated_Source\PSoC4/CapSense_1_Structure.c ****         {
 376:Generated_Source\PSoC4/CapSense_1_Structure.c ****             CapSense_1_BUTTON2_IDAC_MOD0,
 377:Generated_Source\PSoC4/CapSense_1_Structure.c ****         },
 378:Generated_Source\PSoC4/CapSense_1_Structure.c ****         CapSense_1_BUTTON2_SNS_CLK,
 379:Generated_Source\PSoC4/CapSense_1_Structure.c ****         CapSense_1_BUTTON2_SNS_CLK_SOURCE,
 380:Generated_Source\PSoC4/CapSense_1_Structure.c ****         CapSense_1_BUTTON2_FINGER_CAP,
 381:Generated_Source\PSoC4/CapSense_1_Structure.c ****         CapSense_1_BUTTON2_SIGPFC,
 382:Generated_Source\PSoC4/CapSense_1_Structure.c ****     },
 383:Generated_Source\PSoC4/CapSense_1_Structure.c ****     { /* Button3 */
 384:Generated_Source\PSoC4/CapSense_1_Structure.c ****         CapSense_1_BUTTON3_RESOLUTION,
 385:Generated_Source\PSoC4/CapSense_1_Structure.c ****         CapSense_1_BUTTON3_FINGER_TH,
 386:Generated_Source\PSoC4/CapSense_1_Structure.c ****         CapSense_1_BUTTON3_NOISE_TH,
 387:Generated_Source\PSoC4/CapSense_1_Structure.c ****         CapSense_1_BUTTON3_NNOISE_TH,
 388:Generated_Source\PSoC4/CapSense_1_Structure.c ****         CapSense_1_BUTTON3_HYSTERESIS,
 389:Generated_Source\PSoC4/CapSense_1_Structure.c ****         CapSense_1_BUTTON3_ON_DEBOUNCE,
 390:Generated_Source\PSoC4/CapSense_1_Structure.c ****         CapSense_1_BUTTON3_LOW_BSLN_RST,
 391:Generated_Source\PSoC4/CapSense_1_Structure.c ****         {
 392:Generated_Source\PSoC4/CapSense_1_Structure.c ****             CapSense_1_BUTTON3_IDAC_MOD0,
 393:Generated_Source\PSoC4/CapSense_1_Structure.c ****         },
 394:Generated_Source\PSoC4/CapSense_1_Structure.c ****         CapSense_1_BUTTON3_SNS_CLK,
 395:Generated_Source\PSoC4/CapSense_1_Structure.c ****         CapSense_1_BUTTON3_SNS_CLK_SOURCE,
 396:Generated_Source\PSoC4/CapSense_1_Structure.c ****         CapSense_1_BUTTON3_FINGER_CAP,
 397:Generated_Source\PSoC4/CapSense_1_Structure.c ****         CapSense_1_BUTTON3_SIGPFC,
 398:Generated_Source\PSoC4/CapSense_1_Structure.c ****     },
 399:Generated_Source\PSoC4/CapSense_1_Structure.c ****     { /* Button5 */
 400:Generated_Source\PSoC4/CapSense_1_Structure.c ****         CapSense_1_BUTTON5_RESOLUTION,
 401:Generated_Source\PSoC4/CapSense_1_Structure.c ****         CapSense_1_BUTTON5_FINGER_TH,
 402:Generated_Source\PSoC4/CapSense_1_Structure.c ****         CapSense_1_BUTTON5_NOISE_TH,
 403:Generated_Source\PSoC4/CapSense_1_Structure.c ****         CapSense_1_BUTTON5_NNOISE_TH,
 404:Generated_Source\PSoC4/CapSense_1_Structure.c ****         CapSense_1_BUTTON5_HYSTERESIS,
 405:Generated_Source\PSoC4/CapSense_1_Structure.c ****         CapSense_1_BUTTON5_ON_DEBOUNCE,
 406:Generated_Source\PSoC4/CapSense_1_Structure.c ****         CapSense_1_BUTTON5_LOW_BSLN_RST,
 407:Generated_Source\PSoC4/CapSense_1_Structure.c ****         {
 408:Generated_Source\PSoC4/CapSense_1_Structure.c ****             CapSense_1_BUTTON5_IDAC_MOD0,
 409:Generated_Source\PSoC4/CapSense_1_Structure.c ****         },
 410:Generated_Source\PSoC4/CapSense_1_Structure.c ****         CapSense_1_BUTTON5_SNS_CLK,
 411:Generated_Source\PSoC4/CapSense_1_Structure.c ****         CapSense_1_BUTTON5_SNS_CLK_SOURCE,
 412:Generated_Source\PSoC4/CapSense_1_Structure.c ****         CapSense_1_BUTTON5_FINGER_CAP,
 413:Generated_Source\PSoC4/CapSense_1_Structure.c ****         CapSense_1_BUTTON5_SIGPFC,
 414:Generated_Source\PSoC4/CapSense_1_Structure.c ****     },
 415:Generated_Source\PSoC4/CapSense_1_Structure.c ****     { /* Button6 */
 416:Generated_Source\PSoC4/CapSense_1_Structure.c ****         CapSense_1_BUTTON6_RESOLUTION,
 417:Generated_Source\PSoC4/CapSense_1_Structure.c ****         CapSense_1_BUTTON6_FINGER_TH,
 418:Generated_Source\PSoC4/CapSense_1_Structure.c ****         CapSense_1_BUTTON6_NOISE_TH,
 419:Generated_Source\PSoC4/CapSense_1_Structure.c ****         CapSense_1_BUTTON6_NNOISE_TH,
 420:Generated_Source\PSoC4/CapSense_1_Structure.c ****         CapSense_1_BUTTON6_HYSTERESIS,
 421:Generated_Source\PSoC4/CapSense_1_Structure.c ****         CapSense_1_BUTTON6_ON_DEBOUNCE,
 422:Generated_Source\PSoC4/CapSense_1_Structure.c ****         CapSense_1_BUTTON6_LOW_BSLN_RST,
 423:Generated_Source\PSoC4/CapSense_1_Structure.c ****         {
 424:Generated_Source\PSoC4/CapSense_1_Structure.c ****             CapSense_1_BUTTON6_IDAC_MOD0,
 425:Generated_Source\PSoC4/CapSense_1_Structure.c ****         },
 426:Generated_Source\PSoC4/CapSense_1_Structure.c ****         CapSense_1_BUTTON6_SNS_CLK,
 427:Generated_Source\PSoC4/CapSense_1_Structure.c ****         CapSense_1_BUTTON6_SNS_CLK_SOURCE,
 428:Generated_Source\PSoC4/CapSense_1_Structure.c ****         CapSense_1_BUTTON6_FINGER_CAP,
 429:Generated_Source\PSoC4/CapSense_1_Structure.c ****         CapSense_1_BUTTON6_SIGPFC,
 430:Generated_Source\PSoC4/CapSense_1_Structure.c ****     },
ARM GAS  C:\Users\Mayur\AppData\Local\Temp\cc8qQOmM.s 			page 9


 431:Generated_Source\PSoC4/CapSense_1_Structure.c ****     { /* Button4 */
 432:Generated_Source\PSoC4/CapSense_1_Structure.c ****         CapSense_1_BUTTON4_RESOLUTION,
 433:Generated_Source\PSoC4/CapSense_1_Structure.c ****         CapSense_1_BUTTON4_FINGER_TH,
 434:Generated_Source\PSoC4/CapSense_1_Structure.c ****         CapSense_1_BUTTON4_NOISE_TH,
 435:Generated_Source\PSoC4/CapSense_1_Structure.c ****         CapSense_1_BUTTON4_NNOISE_TH,
 436:Generated_Source\PSoC4/CapSense_1_Structure.c ****         CapSense_1_BUTTON4_HYSTERESIS,
 437:Generated_Source\PSoC4/CapSense_1_Structure.c ****         CapSense_1_BUTTON4_ON_DEBOUNCE,
 438:Generated_Source\PSoC4/CapSense_1_Structure.c ****         CapSense_1_BUTTON4_LOW_BSLN_RST,
 439:Generated_Source\PSoC4/CapSense_1_Structure.c ****         {
 440:Generated_Source\PSoC4/CapSense_1_Structure.c ****             CapSense_1_BUTTON4_IDAC_MOD0,
 441:Generated_Source\PSoC4/CapSense_1_Structure.c ****         },
 442:Generated_Source\PSoC4/CapSense_1_Structure.c ****         CapSense_1_BUTTON4_SNS_CLK,
 443:Generated_Source\PSoC4/CapSense_1_Structure.c ****         CapSense_1_BUTTON4_SNS_CLK_SOURCE,
 444:Generated_Source\PSoC4/CapSense_1_Structure.c ****         CapSense_1_BUTTON4_FINGER_CAP,
 445:Generated_Source\PSoC4/CapSense_1_Structure.c ****         CapSense_1_BUTTON4_SIGPFC,
 446:Generated_Source\PSoC4/CapSense_1_Structure.c ****     },
 447:Generated_Source\PSoC4/CapSense_1_Structure.c ****     { /* Button7 */
 448:Generated_Source\PSoC4/CapSense_1_Structure.c ****         CapSense_1_BUTTON7_RESOLUTION,
 449:Generated_Source\PSoC4/CapSense_1_Structure.c ****         CapSense_1_BUTTON7_FINGER_TH,
 450:Generated_Source\PSoC4/CapSense_1_Structure.c ****         CapSense_1_BUTTON7_NOISE_TH,
 451:Generated_Source\PSoC4/CapSense_1_Structure.c ****         CapSense_1_BUTTON7_NNOISE_TH,
 452:Generated_Source\PSoC4/CapSense_1_Structure.c ****         CapSense_1_BUTTON7_HYSTERESIS,
 453:Generated_Source\PSoC4/CapSense_1_Structure.c ****         CapSense_1_BUTTON7_ON_DEBOUNCE,
 454:Generated_Source\PSoC4/CapSense_1_Structure.c ****         CapSense_1_BUTTON7_LOW_BSLN_RST,
 455:Generated_Source\PSoC4/CapSense_1_Structure.c ****         {
 456:Generated_Source\PSoC4/CapSense_1_Structure.c ****             CapSense_1_BUTTON7_IDAC_MOD0,
 457:Generated_Source\PSoC4/CapSense_1_Structure.c ****         },
 458:Generated_Source\PSoC4/CapSense_1_Structure.c ****         CapSense_1_BUTTON7_SNS_CLK,
 459:Generated_Source\PSoC4/CapSense_1_Structure.c ****         CapSense_1_BUTTON7_SNS_CLK_SOURCE,
 460:Generated_Source\PSoC4/CapSense_1_Structure.c ****         CapSense_1_BUTTON7_FINGER_CAP,
 461:Generated_Source\PSoC4/CapSense_1_Structure.c ****         CapSense_1_BUTTON7_SIGPFC,
 462:Generated_Source\PSoC4/CapSense_1_Structure.c ****     },
 463:Generated_Source\PSoC4/CapSense_1_Structure.c **** };
 464:Generated_Source\PSoC4/CapSense_1_Structure.c **** 
 465:Generated_Source\PSoC4/CapSense_1_Structure.c **** 
 466:Generated_Source\PSoC4/CapSense_1_Structure.c **** /* IDAC Initialization Data */
 467:Generated_Source\PSoC4/CapSense_1_Structure.c **** const uint8 CapSense_1_ramIdacInit[CapSense_1_TOTAL_SENSORS] =
 468:Generated_Source\PSoC4/CapSense_1_Structure.c **** {
 469:Generated_Source\PSoC4/CapSense_1_Structure.c ****     /* Button0 */
 470:Generated_Source\PSoC4/CapSense_1_Structure.c ****     CapSense_1_BUTTON0_SNS0_IDAC_COMP0,
 471:Generated_Source\PSoC4/CapSense_1_Structure.c **** 
 472:Generated_Source\PSoC4/CapSense_1_Structure.c ****     /* Button1 */
 473:Generated_Source\PSoC4/CapSense_1_Structure.c ****     CapSense_1_BUTTON1_SNS0_IDAC_COMP0,
 474:Generated_Source\PSoC4/CapSense_1_Structure.c **** 
 475:Generated_Source\PSoC4/CapSense_1_Structure.c ****     /* Button2 */
 476:Generated_Source\PSoC4/CapSense_1_Structure.c ****     CapSense_1_BUTTON2_SNS0_IDAC_COMP0,
 477:Generated_Source\PSoC4/CapSense_1_Structure.c **** 
 478:Generated_Source\PSoC4/CapSense_1_Structure.c ****     /* Button3 */
 479:Generated_Source\PSoC4/CapSense_1_Structure.c ****     CapSense_1_BUTTON3_SNS0_IDAC_COMP0,
 480:Generated_Source\PSoC4/CapSense_1_Structure.c **** 
 481:Generated_Source\PSoC4/CapSense_1_Structure.c ****     /* Button5 */
 482:Generated_Source\PSoC4/CapSense_1_Structure.c ****     CapSense_1_BUTTON5_SNS0_IDAC_COMP0,
 483:Generated_Source\PSoC4/CapSense_1_Structure.c **** 
 484:Generated_Source\PSoC4/CapSense_1_Structure.c ****     /* Button6 */
 485:Generated_Source\PSoC4/CapSense_1_Structure.c ****     CapSense_1_BUTTON6_SNS0_IDAC_COMP0,
 486:Generated_Source\PSoC4/CapSense_1_Structure.c **** 
 487:Generated_Source\PSoC4/CapSense_1_Structure.c ****     /* Button4 */
ARM GAS  C:\Users\Mayur\AppData\Local\Temp\cc8qQOmM.s 			page 10


 488:Generated_Source\PSoC4/CapSense_1_Structure.c ****     CapSense_1_BUTTON4_SNS0_IDAC_COMP0,
 489:Generated_Source\PSoC4/CapSense_1_Structure.c **** 
 490:Generated_Source\PSoC4/CapSense_1_Structure.c ****     /* Button7 */
 491:Generated_Source\PSoC4/CapSense_1_Structure.c ****     CapSense_1_BUTTON7_SNS0_IDAC_COMP0,
 492:Generated_Source\PSoC4/CapSense_1_Structure.c **** };
 493:Generated_Source\PSoC4/CapSense_1_Structure.c **** 
 494:Generated_Source\PSoC4/CapSense_1_Structure.c **** 
 495:Generated_Source\PSoC4/CapSense_1_Structure.c **** 
 496:Generated_Source\PSoC4/CapSense_1_Structure.c **** /*******************************************************************************
 497:Generated_Source\PSoC4/CapSense_1_Structure.c **** * Defines internal data types and statements
 498:Generated_Source\PSoC4/CapSense_1_Structure.c **** *******************************************************************************/
 499:Generated_Source\PSoC4/CapSense_1_Structure.c **** #define PARAM_TYPE_OFFSET       (30u)
 500:Generated_Source\PSoC4/CapSense_1_Structure.c **** #define PARAM_TYPE_MASK         (3Lu << PARAM_TYPE_OFFSET)
 501:Generated_Source\PSoC4/CapSense_1_Structure.c **** #define PARAM_RWBIT_OFFSET      (29u)
 502:Generated_Source\PSoC4/CapSense_1_Structure.c **** #define PARAM_RWBIT_MASK        (1Lu << PARAM_RWBIT_OFFSET)
 503:Generated_Source\PSoC4/CapSense_1_Structure.c **** #define PARAM_FBIT_OFFSET       (28u)
 504:Generated_Source\PSoC4/CapSense_1_Structure.c **** #define PARAM_FBIT_MASK         (1Lu << PARAM_FBIT_OFFSET)
 505:Generated_Source\PSoC4/CapSense_1_Structure.c **** #define PARAM_UBIT_OFFSET       (23u)
 506:Generated_Source\PSoC4/CapSense_1_Structure.c **** #define PARAM_UBIT_MASK         (1Lu << PARAM_UBIT_OFFSET)
 507:Generated_Source\PSoC4/CapSense_1_Structure.c **** #define PARAM_WDID_OFFSET       (16u)
 508:Generated_Source\PSoC4/CapSense_1_Structure.c **** #define PARAM_WDID_MASK         (0x7FLu << PARAM_WDID_OFFSET)
 509:Generated_Source\PSoC4/CapSense_1_Structure.c **** #define PARAM_CRC_OFFSET        (24u)
 510:Generated_Source\PSoC4/CapSense_1_Structure.c **** #define PARAM_CRC_MASK          (0x0FLu << PARAM_CRC_OFFSET)
 511:Generated_Source\PSoC4/CapSense_1_Structure.c **** 
 512:Generated_Source\PSoC4/CapSense_1_Structure.c **** /* Defines align masks for uint16 and uint32 */
 513:Generated_Source\PSoC4/CapSense_1_Structure.c **** #define UINT16_ALIGN_MASK       (1Lu)
 514:Generated_Source\PSoC4/CapSense_1_Structure.c **** #define UINT32_ALIGN_MASK       (3Lu)
 515:Generated_Source\PSoC4/CapSense_1_Structure.c **** 
 516:Generated_Source\PSoC4/CapSense_1_Structure.c **** /* Defines supported parameter types */
 517:Generated_Source\PSoC4/CapSense_1_Structure.c **** #define DS_PARAM_TYPE_UINT8     (0x01u)
 518:Generated_Source\PSoC4/CapSense_1_Structure.c **** #define DS_PARAM_TYPE_UINT16    (0x02u)
 519:Generated_Source\PSoC4/CapSense_1_Structure.c **** #define DS_PARAM_TYPE_UINT32    (0x03u)
 520:Generated_Source\PSoC4/CapSense_1_Structure.c **** 
 521:Generated_Source\PSoC4/CapSense_1_Structure.c **** 
 522:Generated_Source\PSoC4/CapSense_1_Structure.c **** /* Defines PARAM_ID structure */
 523:Generated_Source\PSoC4/CapSense_1_Structure.c **** typedef struct
 524:Generated_Source\PSoC4/CapSense_1_Structure.c **** {
 525:Generated_Source\PSoC4/CapSense_1_Structure.c ****     uint16 offset;      /* parameter offset */
 526:Generated_Source\PSoC4/CapSense_1_Structure.c ****     uint8  widgetId;    /* widget Id parameter belongs to */
 527:Generated_Source\PSoC4/CapSense_1_Structure.c ****     uint8  affectsCrc;  /* parameter affects widget CRC */
 528:Generated_Source\PSoC4/CapSense_1_Structure.c ****     uint8  crc;         /* parameter CRC */
 529:Generated_Source\PSoC4/CapSense_1_Structure.c ****     uint8  flash;       /* parameter located in FLASH flag */
 530:Generated_Source\PSoC4/CapSense_1_Structure.c ****     uint8  rw;          /* parameter is read/write flag */
 531:Generated_Source\PSoC4/CapSense_1_Structure.c ****     uint8  type;        /* parameter type: uint8/uint16/uint32 */
 532:Generated_Source\PSoC4/CapSense_1_Structure.c **** } PARAM_ID_STRUCT;
 533:Generated_Source\PSoC4/CapSense_1_Structure.c **** 
 534:Generated_Source\PSoC4/CapSense_1_Structure.c **** 
 535:Generated_Source\PSoC4/CapSense_1_Structure.c **** /*******************************************************************************
 536:Generated_Source\PSoC4/CapSense_1_Structure.c **** * Static Function Prototypes
 537:Generated_Source\PSoC4/CapSense_1_Structure.c **** *******************************************************************************/
 538:Generated_Source\PSoC4/CapSense_1_Structure.c **** /**
 539:Generated_Source\PSoC4/CapSense_1_Structure.c **** * \cond SECTION_C_INTERNAL
 540:Generated_Source\PSoC4/CapSense_1_Structure.c **** * \addtogroup group_c_internal
 541:Generated_Source\PSoC4/CapSense_1_Structure.c **** * \{
 542:Generated_Source\PSoC4/CapSense_1_Structure.c **** */
 543:Generated_Source\PSoC4/CapSense_1_Structure.c **** 
 544:Generated_Source\PSoC4/CapSense_1_Structure.c **** 
ARM GAS  C:\Users\Mayur\AppData\Local\Temp\cc8qQOmM.s 			page 11


 545:Generated_Source\PSoC4/CapSense_1_Structure.c **** 
 546:Generated_Source\PSoC4/CapSense_1_Structure.c **** static cystatus DsParseParamId(uint32 paramId, PARAM_ID_STRUCT *pData);
 547:Generated_Source\PSoC4/CapSense_1_Structure.c **** 
 548:Generated_Source\PSoC4/CapSense_1_Structure.c **** /** \}
 549:Generated_Source\PSoC4/CapSense_1_Structure.c **** * \endcond */
 550:Generated_Source\PSoC4/CapSense_1_Structure.c **** 
 551:Generated_Source\PSoC4/CapSense_1_Structure.c **** 
 552:Generated_Source\PSoC4/CapSense_1_Structure.c **** /*******************************************************************************
 553:Generated_Source\PSoC4/CapSense_1_Structure.c **** * Function Name: CapSense_1_DsInitialize
 554:Generated_Source\PSoC4/CapSense_1_Structure.c **** ****************************************************************************//**
 555:Generated_Source\PSoC4/CapSense_1_Structure.c **** *
 556:Generated_Source\PSoC4/CapSense_1_Structure.c **** * \brief
 557:Generated_Source\PSoC4/CapSense_1_Structure.c **** *   This function initializes the Data Structure storage.
 558:Generated_Source\PSoC4/CapSense_1_Structure.c **** *
 559:Generated_Source\PSoC4/CapSense_1_Structure.c **** * \details
 560:Generated_Source\PSoC4/CapSense_1_Structure.c **** *   This function copies the default widget configuration parameters
 561:Generated_Source\PSoC4/CapSense_1_Structure.c **** *   from the Flash storage into the RAM Data Structure.
 562:Generated_Source\PSoC4/CapSense_1_Structure.c **** *
 563:Generated_Source\PSoC4/CapSense_1_Structure.c **** *******************************************************************************/
 564:Generated_Source\PSoC4/CapSense_1_Structure.c **** void CapSense_1_DsInitialize(void)
 565:Generated_Source\PSoC4/CapSense_1_Structure.c **** {
 566:Generated_Source\PSoC4/CapSense_1_Structure.c ****     #if ((CapSense_1_ENABLE == CapSense_1_CSX_EN) || \
 567:Generated_Source\PSoC4/CapSense_1_Structure.c ****          (CapSense_1_ENABLE == CapSense_1_CSD_IDAC_COMP_EN) || \
 568:Generated_Source\PSoC4/CapSense_1_Structure.c ****         ((CapSense_1_ENABLE == CapSense_1_CSX_EN) && \
 569:Generated_Source\PSoC4/CapSense_1_Structure.c ****          (CapSense_1_ENABLE == CapSense_1_CSX_SKIP_OVSMPL_SPECIFIC_NODES)))
 570:Generated_Source\PSoC4/CapSense_1_Structure.c ****         uint32 snsId;
 571:Generated_Source\PSoC4/CapSense_1_Structure.c ****         uint32 wdgtId;
 572:Generated_Source\PSoC4/CapSense_1_Structure.c ****         CapSense_1_RAM_SNS_STRUCT * ptrSnsTmp;
 573:Generated_Source\PSoC4/CapSense_1_Structure.c ****         CapSense_1_FLASH_WD_STRUCT const * ptrFlashWdgt;
 574:Generated_Source\PSoC4/CapSense_1_Structure.c ****     #endif
 575:Generated_Source\PSoC4/CapSense_1_Structure.c **** 
 576:Generated_Source\PSoC4/CapSense_1_Structure.c ****     #if ((CapSense_1_ENABLE == CapSense_1_CSX_EN) && \
 577:Generated_Source\PSoC4/CapSense_1_Structure.c ****          (CapSense_1_ENABLE == CapSense_1_CSX_SKIP_OVSMPL_SPECIFIC_NODES))
 578:Generated_Source\PSoC4/CapSense_1_Structure.c ****         uint16 subConvNumber;
 579:Generated_Source\PSoC4/CapSense_1_Structure.c ****     #endif
 580:Generated_Source\PSoC4/CapSense_1_Structure.c **** 
 581:Generated_Source\PSoC4/CapSense_1_Structure.c ****     #if ((0u != CapSense_1_CSX_EN) || (0 != CapSense_1_CSD_IDAC_COMP_EN))
 582:Generated_Source\PSoC4/CapSense_1_Structure.c ****         uint8 const * ptrIdacInit = CapSense_1_ramIdacInit;
 583:Generated_Source\PSoC4/CapSense_1_Structure.c ****     #endif
 584:Generated_Source\PSoC4/CapSense_1_Structure.c **** 
 585:Generated_Source\PSoC4/CapSense_1_Structure.c ****     /* Reset RAM data structure content */
 586:Generated_Source\PSoC4/CapSense_1_Structure.c ****     (void)memset(&CapSense_1_dsRam, 0, sizeof(CapSense_1_dsRam));
 587:Generated_Source\PSoC4/CapSense_1_Structure.c **** 
 588:Generated_Source\PSoC4/CapSense_1_Structure.c ****     /* Initialize configId, deviceId and hwClock registers */
 589:Generated_Source\PSoC4/CapSense_1_Structure.c ****     CapSense_1_dsRam.configId = CapSense_1_CONFIG_ID;
 590:Generated_Source\PSoC4/CapSense_1_Structure.c ****     CapSense_1_dsRam.deviceId = CapSense_1_DEVICE_ID;
 591:Generated_Source\PSoC4/CapSense_1_Structure.c ****     CapSense_1_dsRam.hwClock = CapSense_1_HW_CLOCK;
 592:Generated_Source\PSoC4/CapSense_1_Structure.c **** 
 593:Generated_Source\PSoC4/CapSense_1_Structure.c ****     /* Initialize global RAM data */
 594:Generated_Source\PSoC4/CapSense_1_Structure.c ****     CapSense_1_dsRam.csd0Config = CapSense_1_CSD0_CONFIG;
 595:Generated_Source\PSoC4/CapSense_1_Structure.c **** 
 596:Generated_Source\PSoC4/CapSense_1_Structure.c ****     #if (0u != CapSense_1_TOTAL_CSD_WIDGETS)
 597:Generated_Source\PSoC4/CapSense_1_Structure.c ****         CapSense_1_dsRam.modCsdClk = CapSense_1_CSD_SCANSPEED_DIVIDER;
 598:Generated_Source\PSoC4/CapSense_1_Structure.c **** 
 599:Generated_Source\PSoC4/CapSense_1_Structure.c ****         #if (0u != CapSense_1_CSD_COMMON_SNS_CLK_EN)
 600:Generated_Source\PSoC4/CapSense_1_Structure.c ****             CapSense_1_dsRam.snsCsdClk = CapSense_1_CSD_SNS_CLK_DIVIDER;
 601:Generated_Source\PSoC4/CapSense_1_Structure.c ****         #endif /* #if (0u != CapSense_1_CSD_COMMON_SNS_CLK_EN) */
ARM GAS  C:\Users\Mayur\AppData\Local\Temp\cc8qQOmM.s 			page 12


 602:Generated_Source\PSoC4/CapSense_1_Structure.c ****     #endif /* #if (0u != CapSense_1_TOTAL_CSD_WIDGETS) */
 603:Generated_Source\PSoC4/CapSense_1_Structure.c **** 
 604:Generated_Source\PSoC4/CapSense_1_Structure.c ****     #if (0u != CapSense_1_CSX_EN)
 605:Generated_Source\PSoC4/CapSense_1_Structure.c ****         CapSense_1_dsRam.modCsxClk = CapSense_1_CSX_SCANSPEED_DIVIDER;
 606:Generated_Source\PSoC4/CapSense_1_Structure.c **** 
 607:Generated_Source\PSoC4/CapSense_1_Structure.c ****         #if (0u != CapSense_1_CSX_COMMON_TX_CLK_EN)
 608:Generated_Source\PSoC4/CapSense_1_Structure.c ****             CapSense_1_dsRam.snsCsxClk = CapSense_1_CSX_TX_CLK_DIVIDER;
 609:Generated_Source\PSoC4/CapSense_1_Structure.c ****         #endif /* #if (0u != CapSense_1_CSX_COMMON_TX_CLK_EN) */
 610:Generated_Source\PSoC4/CapSense_1_Structure.c ****     #endif /* #if (0u != CapSense_1_CSX_EN) */
 611:Generated_Source\PSoC4/CapSense_1_Structure.c **** 
 612:Generated_Source\PSoC4/CapSense_1_Structure.c ****     #if (0u != CapSense_1_ISX_EN)
 613:Generated_Source\PSoC4/CapSense_1_Structure.c ****         CapSense_1_dsRam.modIsxClk = CapSense_1_ISX_SCANSPEED_DIVIDER;
 614:Generated_Source\PSoC4/CapSense_1_Structure.c ****     #endif /* #if (0u != CapSense_1_ISX_EN) */
 615:Generated_Source\PSoC4/CapSense_1_Structure.c **** 
 616:Generated_Source\PSoC4/CapSense_1_Structure.c ****     #if (0u != CapSense_1_SELF_TEST_EN)
 617:Generated_Source\PSoC4/CapSense_1_Structure.c ****         CapSense_1_dsRam.glbCrc = CapSense_1_GLB_CRC;
 618:Generated_Source\PSoC4/CapSense_1_Structure.c ****     #endif /* #if (0u != CapSense_1_SELF_TEST_EN) */
 619:Generated_Source\PSoC4/CapSense_1_Structure.c **** 
 620:Generated_Source\PSoC4/CapSense_1_Structure.c ****     /* Initialize RAM widget data */
 621:Generated_Source\PSoC4/CapSense_1_Structure.c ****     CapSense_1_dsRam.wdgtList = CapSense_1_ramWidgetInit;
 622:Generated_Source\PSoC4/CapSense_1_Structure.c **** 
 623:Generated_Source\PSoC4/CapSense_1_Structure.c ****     /* Initialize Gesture configuration structure */
 624:Generated_Source\PSoC4/CapSense_1_Structure.c ****     #if ((0u != CapSense_1_GES_GLOBAL_EN) || (0u != CapSense_1_BALLISTIC_MULTIPLIER_EN))
 625:Generated_Source\PSoC4/CapSense_1_Structure.c ****         CapSense_1_dsRam.timestampInterval = CapSense_1_TIMESTAMP_INTERVAL;
 626:Generated_Source\PSoC4/CapSense_1_Structure.c ****     #endif /* ((0u != CapSense_1_GES_GLOBAL_EN) || (0u != CapSense_1_BALLISTIC_MULTIPLIER_EN)) */
 627:Generated_Source\PSoC4/CapSense_1_Structure.c ****         
 628:Generated_Source\PSoC4/CapSense_1_Structure.c ****     #if (0u != CapSense_1_GES_GLOBAL_EN)
 629:Generated_Source\PSoC4/CapSense_1_Structure.c ****         CapSense_1_dsRam.gestures = CapSense_1_ramGesturesInit;
 630:Generated_Source\PSoC4/CapSense_1_Structure.c ****     #endif /* (0u != CapSense_1_GES_GLOBAL_EN) */
 631:Generated_Source\PSoC4/CapSense_1_Structure.c **** 
 632:Generated_Source\PSoC4/CapSense_1_Structure.c ****     #if (0u != CapSense_1_BALLISTIC_MULTIPLIER_EN)
 633:Generated_Source\PSoC4/CapSense_1_Structure.c ****         CapSense_1_dsRam.ballisticConfig = CapSense_1_ramBallisticInit;
 634:Generated_Source\PSoC4/CapSense_1_Structure.c ****     #endif /* (0u != CapSense_1_BALLISTIC_MULTIPLIER_EN) */
 635:Generated_Source\PSoC4/CapSense_1_Structure.c **** 
 636:Generated_Source\PSoC4/CapSense_1_Structure.c ****     #if (0u != CapSense_1_CSX_EN) || (0 != CapSense_1_CSD_IDAC_COMP_EN)
 637:Generated_Source\PSoC4/CapSense_1_Structure.c ****         /* Initialize IDAC data */
 638:Generated_Source\PSoC4/CapSense_1_Structure.c ****         ptrFlashWdgt = CapSense_1_dsFlash.wdgtArray;
 639:Generated_Source\PSoC4/CapSense_1_Structure.c **** 
 640:Generated_Source\PSoC4/CapSense_1_Structure.c ****         for (wdgtId = CapSense_1_TOTAL_WIDGETS; wdgtId-- > 0u; )
 641:Generated_Source\PSoC4/CapSense_1_Structure.c ****         {
 642:Generated_Source\PSoC4/CapSense_1_Structure.c ****             ptrSnsTmp = ptrFlashWdgt->ptr2SnsRam;
 643:Generated_Source\PSoC4/CapSense_1_Structure.c **** 
 644:Generated_Source\PSoC4/CapSense_1_Structure.c ****             for (snsId = CapSense_1_GET_SNS_CNT_BY_PTR(ptrFlashWdgt); snsId-- > 0u;)
 645:Generated_Source\PSoC4/CapSense_1_Structure.c ****             {
 646:Generated_Source\PSoC4/CapSense_1_Structure.c ****                 ptrSnsTmp->idacComp[0u] = *ptrIdacInit;
 647:Generated_Source\PSoC4/CapSense_1_Structure.c ****                 ptrIdacInit++;
 648:Generated_Source\PSoC4/CapSense_1_Structure.c **** 
 649:Generated_Source\PSoC4/CapSense_1_Structure.c ****                 #if (0u != CapSense_1_MULTI_FREQ_SCAN_EN)
 650:Generated_Source\PSoC4/CapSense_1_Structure.c ****                     ptrSnsTmp->idacComp[1u] = *ptrIdacInit;
 651:Generated_Source\PSoC4/CapSense_1_Structure.c ****                     ptrIdacInit++;
 652:Generated_Source\PSoC4/CapSense_1_Structure.c **** 
 653:Generated_Source\PSoC4/CapSense_1_Structure.c ****                     ptrSnsTmp->idacComp[2u] = *ptrIdacInit;
 654:Generated_Source\PSoC4/CapSense_1_Structure.c ****                     ptrIdacInit++;
 655:Generated_Source\PSoC4/CapSense_1_Structure.c ****                 #endif /* #if (0u != CapSense_1_MULTI_FREQ_SCAN_EN) */
 656:Generated_Source\PSoC4/CapSense_1_Structure.c **** 
 657:Generated_Source\PSoC4/CapSense_1_Structure.c ****                 ptrSnsTmp++;
 658:Generated_Source\PSoC4/CapSense_1_Structure.c ****             }
ARM GAS  C:\Users\Mayur\AppData\Local\Temp\cc8qQOmM.s 			page 13


 659:Generated_Source\PSoC4/CapSense_1_Structure.c **** 
 660:Generated_Source\PSoC4/CapSense_1_Structure.c ****             ptrFlashWdgt++; /* Move to next widget */
 661:Generated_Source\PSoC4/CapSense_1_Structure.c ****         }
 662:Generated_Source\PSoC4/CapSense_1_Structure.c ****     #endif /*(0u != CapSense_1_CSX_EN) || (0 != CapSense_1_CSD_IDAC_COMP_EN)*/
 663:Generated_Source\PSoC4/CapSense_1_Structure.c **** 
 664:Generated_Source\PSoC4/CapSense_1_Structure.c ****     #if ((CapSense_1_ENABLE == CapSense_1_CSX_EN) && \
 665:Generated_Source\PSoC4/CapSense_1_Structure.c ****          (CapSense_1_ENABLE == CapSense_1_CSX_SKIP_OVSMPL_SPECIFIC_NODES))
 666:Generated_Source\PSoC4/CapSense_1_Structure.c ****         /* Initialize Sub-Conversion Number for each node of each CSX widget */
 667:Generated_Source\PSoC4/CapSense_1_Structure.c ****         ptrFlashWdgt = CapSense_1_dsFlash.wdgtArray;
 668:Generated_Source\PSoC4/CapSense_1_Structure.c ****         for (wdgtId = CapSense_1_TOTAL_WIDGETS; wdgtId-- > 0u;)
 669:Generated_Source\PSoC4/CapSense_1_Structure.c ****         {
 670:Generated_Source\PSoC4/CapSense_1_Structure.c ****             /* Check for widget sense method */
 671:Generated_Source\PSoC4/CapSense_1_Structure.c ****             if (CapSense_1_SENSE_METHOD_CSX_E == CapSense_1_GET_SENSE_METHOD(ptrFlashWdgt))
 672:Generated_Source\PSoC4/CapSense_1_Structure.c ****             {
 673:Generated_Source\PSoC4/CapSense_1_Structure.c ****                 /* Take the sub-convesion number of a CSX widget and initialize each node of this w
 674:Generated_Source\PSoC4/CapSense_1_Structure.c ****                 subConvNumber = ((CapSense_1_RAM_WD_BASE_STRUCT *)(ptrFlashWdgt->ptr2WdgtRam))->res
 675:Generated_Source\PSoC4/CapSense_1_Structure.c ****                 ptrSnsTmp = ptrFlashWdgt->ptr2SnsRam;
 676:Generated_Source\PSoC4/CapSense_1_Structure.c ****                 for (snsId = CapSense_1_GET_SNS_CNT_BY_PTR(ptrFlashWdgt); snsId-- > 0u;)
 677:Generated_Source\PSoC4/CapSense_1_Structure.c ****                 {
 678:Generated_Source\PSoC4/CapSense_1_Structure.c ****                     ptrSnsTmp->subConvNum = subConvNumber;
 679:Generated_Source\PSoC4/CapSense_1_Structure.c ****                     ptrSnsTmp++;
 680:Generated_Source\PSoC4/CapSense_1_Structure.c ****                 }
 681:Generated_Source\PSoC4/CapSense_1_Structure.c ****             }
 682:Generated_Source\PSoC4/CapSense_1_Structure.c ****             /* Move to the next widget */
 683:Generated_Source\PSoC4/CapSense_1_Structure.c ****             ptrFlashWdgt++;
 684:Generated_Source\PSoC4/CapSense_1_Structure.c ****         }
 685:Generated_Source\PSoC4/CapSense_1_Structure.c ****     #endif /* ((CapSense_1_ENABLE == CapSense_1_CSX_EN) && \
 686:Generated_Source\PSoC4/CapSense_1_Structure.c ****                (CapSense_1_ENABLE == CapSense_1_CSX_SKIP_OVSMPL_SPECIFIC_NODES)) */
 687:Generated_Source\PSoC4/CapSense_1_Structure.c **** 
 688:Generated_Source\PSoC4/CapSense_1_Structure.c ****     #if (0u != CapSense_1_ADC_EN)
 689:Generated_Source\PSoC4/CapSense_1_Structure.c ****         CapSense_1_AdcDsInitialize();
 690:Generated_Source\PSoC4/CapSense_1_Structure.c ****     #endif /* (0u != CapSense_1_ADC_EN) */
 691:Generated_Source\PSoC4/CapSense_1_Structure.c **** }
 692:Generated_Source\PSoC4/CapSense_1_Structure.c **** 
 693:Generated_Source\PSoC4/CapSense_1_Structure.c **** 
 694:Generated_Source\PSoC4/CapSense_1_Structure.c **** #if (0u != CapSense_1_ADC_EN)
 695:Generated_Source\PSoC4/CapSense_1_Structure.c ****     /*******************************************************************************
 696:Generated_Source\PSoC4/CapSense_1_Structure.c ****     * Function Name: CapSense_1_AdcDsInitialize
 697:Generated_Source\PSoC4/CapSense_1_Structure.c ****     ****************************************************************************//**
 698:Generated_Source\PSoC4/CapSense_1_Structure.c ****     *
 699:Generated_Source\PSoC4/CapSense_1_Structure.c ****     * \brief
 700:Generated_Source\PSoC4/CapSense_1_Structure.c ****     *   Configures the initial Adc datastructure members.
 701:Generated_Source\PSoC4/CapSense_1_Structure.c ****     *
 702:Generated_Source\PSoC4/CapSense_1_Structure.c ****     *******************************************************************************/
 703:Generated_Source\PSoC4/CapSense_1_Structure.c ****     void CapSense_1_AdcDsInitialize(void)
 704:Generated_Source\PSoC4/CapSense_1_Structure.c ****     {
 705:Generated_Source\PSoC4/CapSense_1_Structure.c ****         CapSense_1_dsRam.adcResolution = CapSense_1_ADC_RESOLUTION;
 706:Generated_Source\PSoC4/CapSense_1_Structure.c ****         CapSense_1_dsRam.adcIdac = (uint8)(CapSense_1_ADC_IDAC_DEFAULT);
 707:Generated_Source\PSoC4/CapSense_1_Structure.c ****         CapSense_1_dsRam.adcActiveCh = CapSense_1_AdcNO_CHANNEL;
 708:Generated_Source\PSoC4/CapSense_1_Structure.c ****     }
 709:Generated_Source\PSoC4/CapSense_1_Structure.c **** #endif /* (0u != CapSense_1_ADC_EN) */
 710:Generated_Source\PSoC4/CapSense_1_Structure.c **** 
 711:Generated_Source\PSoC4/CapSense_1_Structure.c **** 
 712:Generated_Source\PSoC4/CapSense_1_Structure.c **** /*******************************************************************************
 713:Generated_Source\PSoC4/CapSense_1_Structure.c **** * Function Name: DsParseParamId
 714:Generated_Source\PSoC4/CapSense_1_Structure.c **** ****************************************************************************//**
 715:Generated_Source\PSoC4/CapSense_1_Structure.c **** *
ARM GAS  C:\Users\Mayur\AppData\Local\Temp\cc8qQOmM.s 			page 14


 716:Generated_Source\PSoC4/CapSense_1_Structure.c **** * \brief
 717:Generated_Source\PSoC4/CapSense_1_Structure.c **** *   This function parses the parameter ID and checks its correctness.
 718:Generated_Source\PSoC4/CapSense_1_Structure.c **** *
 719:Generated_Source\PSoC4/CapSense_1_Structure.c **** * \details
 720:Generated_Source\PSoC4/CapSense_1_Structure.c **** *   This function checks the parameter CRC if the self-test is enabled,
 721:Generated_Source\PSoC4/CapSense_1_Structure.c **** *   validates the offset value and parameter type.
 722:Generated_Source\PSoC4/CapSense_1_Structure.c **** *
 723:Generated_Source\PSoC4/CapSense_1_Structure.c **** * \param paramId The parameter to parse.
 724:Generated_Source\PSoC4/CapSense_1_Structure.c **** * \param pData   The pointer to the structure that will hold parsed data.
 725:Generated_Source\PSoC4/CapSense_1_Structure.c **** *
 726:Generated_Source\PSoC4/CapSense_1_Structure.c **** * \return CYRET_SUCCESS     If the parameter is valid
 727:Generated_Source\PSoC4/CapSense_1_Structure.c **** *         CYRET_BAD_PARAM   If the parameter is invalid
 728:Generated_Source\PSoC4/CapSense_1_Structure.c **** *
 729:Generated_Source\PSoC4/CapSense_1_Structure.c **** *******************************************************************************/
 730:Generated_Source\PSoC4/CapSense_1_Structure.c **** static cystatus DsParseParamId(uint32 paramId, PARAM_ID_STRUCT *pData)
 731:Generated_Source\PSoC4/CapSense_1_Structure.c **** {
  27              		.loc 1 731 0
  28              		.cfi_startproc
  29              		@ args = 0, pretend = 0, frame = 0
  30              		@ frame_needed = 0, uses_anonymous_args = 0
  31              	.LVL0:
  32 0000 70B5     		push	{r4, r5, r6, lr}
  33              		.cfi_def_cfa_offset 16
  34              		.cfi_offset 4, -16
  35              		.cfi_offset 5, -12
  36              		.cfi_offset 6, -8
  37              		.cfi_offset 14, -4
  38              	.LVL1:
 732:Generated_Source\PSoC4/CapSense_1_Structure.c ****     cystatus result = CYRET_SUCCESS;
 733:Generated_Source\PSoC4/CapSense_1_Structure.c **** 
 734:Generated_Source\PSoC4/CapSense_1_Structure.c ****     #if (0u != CapSense_1_SELF_TEST_EN)
 735:Generated_Source\PSoC4/CapSense_1_Structure.c ****         const uint8 crcTable[] =
 736:Generated_Source\PSoC4/CapSense_1_Structure.c ****         {
 737:Generated_Source\PSoC4/CapSense_1_Structure.c ****             0x00u, 0x09u, 0x0Bu, 0x02u, 0x0Fu, 0x06u, 0x04u, 0x0Du,
 738:Generated_Source\PSoC4/CapSense_1_Structure.c ****             0x07u, 0x0Eu, 0x0Cu, 0x05u, 0x08u, 0x01u, 0x03u, 0x0Au
 739:Generated_Source\PSoC4/CapSense_1_Structure.c ****         };
 740:Generated_Source\PSoC4/CapSense_1_Structure.c **** 
 741:Generated_Source\PSoC4/CapSense_1_Structure.c ****         uint32 i;
 742:Generated_Source\PSoC4/CapSense_1_Structure.c ****         uint32 actualCrc = 0u;
 743:Generated_Source\PSoC4/CapSense_1_Structure.c ****         uint32 crcIndex;
 744:Generated_Source\PSoC4/CapSense_1_Structure.c ****     #endif /* #if (0u != CapSense_1_SELF_TEST_EN) */
 745:Generated_Source\PSoC4/CapSense_1_Structure.c **** 
 746:Generated_Source\PSoC4/CapSense_1_Structure.c ****     /* Extract parameter data */
 747:Generated_Source\PSoC4/CapSense_1_Structure.c ****     pData->offset     = LO16(paramId);
  39              		.loc 1 747 0
  40 0002 85B2     		uxth	r5, r0
  41 0004 0D80     		strh	r5, [r1]
 748:Generated_Source\PSoC4/CapSense_1_Structure.c ****     pData->affectsCrc = LO8((paramId & PARAM_UBIT_MASK)  >> PARAM_UBIT_OFFSET);
  42              		.loc 1 748 0
  43 0006 C30D     		lsrs	r3, r0, #23
  44 0008 0124     		movs	r4, #1
  45 000a 2340     		ands	r3, r4
  46 000c CB70     		strb	r3, [r1, #3]
 749:Generated_Source\PSoC4/CapSense_1_Structure.c ****     pData->widgetId   = LO8((paramId & PARAM_WDID_MASK)  >> PARAM_WDID_OFFSET);
  47              		.loc 1 749 0
  48 000e 030C     		lsrs	r3, r0, #16
  49 0010 7F22     		movs	r2, #127
ARM GAS  C:\Users\Mayur\AppData\Local\Temp\cc8qQOmM.s 			page 15


  50 0012 1340     		ands	r3, r2
  51 0014 8B70     		strb	r3, [r1, #2]
 750:Generated_Source\PSoC4/CapSense_1_Structure.c ****     pData->type       = LO8((paramId & PARAM_TYPE_MASK)  >> PARAM_TYPE_OFFSET);
  52              		.loc 1 750 0
  53 0016 860F     		lsrs	r6, r0, #30
  54 0018 CE71     		strb	r6, [r1, #7]
 751:Generated_Source\PSoC4/CapSense_1_Structure.c ****     pData->flash      = LO8((paramId & PARAM_FBIT_MASK)  >> PARAM_FBIT_OFFSET);
  55              		.loc 1 751 0
  56 001a 030F     		lsrs	r3, r0, #28
  57 001c 2340     		ands	r3, r4
  58 001e 4B71     		strb	r3, [r1, #5]
 752:Generated_Source\PSoC4/CapSense_1_Structure.c ****     pData->rw         = LO8((paramId & PARAM_RWBIT_MASK) >> PARAM_RWBIT_OFFSET);
  59              		.loc 1 752 0
  60 0020 420F     		lsrs	r2, r0, #29
  61 0022 2240     		ands	r2, r4
  62 0024 8A71     		strb	r2, [r1, #6]
 753:Generated_Source\PSoC4/CapSense_1_Structure.c ****     pData->crc        = LO8((paramId & PARAM_CRC_MASK)   >> PARAM_CRC_OFFSET);
  63              		.loc 1 753 0
  64 0026 000E     		lsrs	r0, r0, #24
  65              	.LVL2:
  66 0028 0E34     		adds	r4, r4, #14
  67 002a 2040     		ands	r0, r4
  68 002c 0871     		strb	r0, [r1, #4]
 754:Generated_Source\PSoC4/CapSense_1_Structure.c **** 
 755:Generated_Source\PSoC4/CapSense_1_Structure.c ****     /* Check parameter CRC if self-test is enabled */
 756:Generated_Source\PSoC4/CapSense_1_Structure.c ****     #if (0u != CapSense_1_SELF_TEST_EN)
 757:Generated_Source\PSoC4/CapSense_1_Structure.c **** 
 758:Generated_Source\PSoC4/CapSense_1_Structure.c ****         /* Calculate CRC for bits 0..24.
 759:Generated_Source\PSoC4/CapSense_1_Structure.c ****          * The CRC is calculated using nibbles (4-bits).
 760:Generated_Source\PSoC4/CapSense_1_Structure.c ****          * So for 0..24 bits there are in total 6 nibbles. */
 761:Generated_Source\PSoC4/CapSense_1_Structure.c ****         for (i = 6u; i > 0u; i--)
 762:Generated_Source\PSoC4/CapSense_1_Structure.c ****         {
 763:Generated_Source\PSoC4/CapSense_1_Structure.c ****             crcIndex = actualCrc ^ (paramId & 0x0Fu);
 764:Generated_Source\PSoC4/CapSense_1_Structure.c ****             actualCrc = crcTable[crcIndex];
 765:Generated_Source\PSoC4/CapSense_1_Structure.c ****             paramId >>= 4u;
 766:Generated_Source\PSoC4/CapSense_1_Structure.c ****         }
 767:Generated_Source\PSoC4/CapSense_1_Structure.c **** 
 768:Generated_Source\PSoC4/CapSense_1_Structure.c ****         /* Add bits 28..32 */
 769:Generated_Source\PSoC4/CapSense_1_Structure.c ****         crcIndex = actualCrc ^ ((paramId >> 4u) & 0x0Fu);
 770:Generated_Source\PSoC4/CapSense_1_Structure.c ****         actualCrc = crcTable[crcIndex];
 771:Generated_Source\PSoC4/CapSense_1_Structure.c **** 
 772:Generated_Source\PSoC4/CapSense_1_Structure.c ****         /* Add bits 24..28 (CRC) */
 773:Generated_Source\PSoC4/CapSense_1_Structure.c ****         crcIndex = actualCrc ^ (paramId & 0x0Fu);
 774:Generated_Source\PSoC4/CapSense_1_Structure.c ****         actualCrc = crcTable[crcIndex];
 775:Generated_Source\PSoC4/CapSense_1_Structure.c **** 
 776:Generated_Source\PSoC4/CapSense_1_Structure.c ****         if (0u != actualCrc)
 777:Generated_Source\PSoC4/CapSense_1_Structure.c ****         {
 778:Generated_Source\PSoC4/CapSense_1_Structure.c ****             /* CRC mismatch */
 779:Generated_Source\PSoC4/CapSense_1_Structure.c ****             result = CYRET_BAD_PARAM;
 780:Generated_Source\PSoC4/CapSense_1_Structure.c ****         }
 781:Generated_Source\PSoC4/CapSense_1_Structure.c **** 
 782:Generated_Source\PSoC4/CapSense_1_Structure.c ****         if ((CYRET_SUCCESS == result) &&
 783:Generated_Source\PSoC4/CapSense_1_Structure.c ****             (0u != pData->affectsCrc) && (pData->widgetId >= CapSense_1_TOTAL_WIDGETS ))
 784:Generated_Source\PSoC4/CapSense_1_Structure.c ****         {
 785:Generated_Source\PSoC4/CapSense_1_Structure.c ****             /* Wrong widgetId for protected parameter */
 786:Generated_Source\PSoC4/CapSense_1_Structure.c ****             result = CYRET_BAD_PARAM;
 787:Generated_Source\PSoC4/CapSense_1_Structure.c ****         }
ARM GAS  C:\Users\Mayur\AppData\Local\Temp\cc8qQOmM.s 			page 16


 788:Generated_Source\PSoC4/CapSense_1_Structure.c **** 
 789:Generated_Source\PSoC4/CapSense_1_Structure.c ****         /* Check offset value range */
 790:Generated_Source\PSoC4/CapSense_1_Structure.c ****         if (CYRET_SUCCESS == result)
 791:Generated_Source\PSoC4/CapSense_1_Structure.c ****         {
 792:Generated_Source\PSoC4/CapSense_1_Structure.c ****             if (0u == pData->flash)
 793:Generated_Source\PSoC4/CapSense_1_Structure.c ****             {
 794:Generated_Source\PSoC4/CapSense_1_Structure.c ****                 /* Check offset for RAM Data Structure range */
 795:Generated_Source\PSoC4/CapSense_1_Structure.c ****                 if (pData->offset >= sizeof(CapSense_1_dsRam))
 796:Generated_Source\PSoC4/CapSense_1_Structure.c ****                 {
 797:Generated_Source\PSoC4/CapSense_1_Structure.c ****                     result = CYRET_BAD_PARAM;
 798:Generated_Source\PSoC4/CapSense_1_Structure.c ****                 }
 799:Generated_Source\PSoC4/CapSense_1_Structure.c ****             }
 800:Generated_Source\PSoC4/CapSense_1_Structure.c ****             else
 801:Generated_Source\PSoC4/CapSense_1_Structure.c ****             {
 802:Generated_Source\PSoC4/CapSense_1_Structure.c ****                 /* Check offset for Flash Data Structure range */
 803:Generated_Source\PSoC4/CapSense_1_Structure.c ****                 if (pData->offset >= sizeof(CapSense_1_dsFlash))
 804:Generated_Source\PSoC4/CapSense_1_Structure.c ****                 {
 805:Generated_Source\PSoC4/CapSense_1_Structure.c ****                     result = CYRET_BAD_PARAM;
 806:Generated_Source\PSoC4/CapSense_1_Structure.c ****                 }
 807:Generated_Source\PSoC4/CapSense_1_Structure.c **** 
 808:Generated_Source\PSoC4/CapSense_1_Structure.c ****                 /* Check if it is marked as Read Only */
 809:Generated_Source\PSoC4/CapSense_1_Structure.c ****                 if (0u != pData->rw)
 810:Generated_Source\PSoC4/CapSense_1_Structure.c ****                 {
 811:Generated_Source\PSoC4/CapSense_1_Structure.c ****                     result = CYRET_BAD_PARAM;
 812:Generated_Source\PSoC4/CapSense_1_Structure.c ****                 }
 813:Generated_Source\PSoC4/CapSense_1_Structure.c ****             }
 814:Generated_Source\PSoC4/CapSense_1_Structure.c ****         }
 815:Generated_Source\PSoC4/CapSense_1_Structure.c ****     #else /* #if (0u != CapSense_1_SELF_TEST_EN) */
 816:Generated_Source\PSoC4/CapSense_1_Structure.c ****         /* Check offset value range */
 817:Generated_Source\PSoC4/CapSense_1_Structure.c ****         if (0u == pData->flash)
  69              		.loc 1 817 0
  70 002e 002B     		cmp	r3, #0
  71 0030 05D1     		bne	.L2
 818:Generated_Source\PSoC4/CapSense_1_Structure.c ****         {
 819:Generated_Source\PSoC4/CapSense_1_Structure.c ****             /* Check offset for RAM Data Structure range */
 820:Generated_Source\PSoC4/CapSense_1_Structure.c ****             if (pData->offset >= sizeof(CapSense_1_dsRam))
  72              		.loc 1 820 0
  73 0032 0C23     		movs	r3, #12
  74 0034 FF33     		adds	r3, r3, #255
  75 0036 9D42     		cmp	r5, r3
  76 0038 09D8     		bhi	.L9
 732:Generated_Source\PSoC4/CapSense_1_Structure.c **** 
  77              		.loc 1 732 0
  78 003a 0020     		movs	r0, #0
  79 003c 0AE0     		b	.L3
  80              	.L2:
 821:Generated_Source\PSoC4/CapSense_1_Structure.c ****             {
 822:Generated_Source\PSoC4/CapSense_1_Structure.c ****                 result = CYRET_BAD_PARAM;
 823:Generated_Source\PSoC4/CapSense_1_Structure.c ****             }
 824:Generated_Source\PSoC4/CapSense_1_Structure.c ****         }
 825:Generated_Source\PSoC4/CapSense_1_Structure.c ****         else
 826:Generated_Source\PSoC4/CapSense_1_Structure.c ****         {
 827:Generated_Source\PSoC4/CapSense_1_Structure.c ****             /* Check offset for Flash Data Structure range */
 828:Generated_Source\PSoC4/CapSense_1_Structure.c ****             if (pData->offset >= sizeof(CapSense_1_dsFlash))
  81              		.loc 1 828 0
  82 003e FF2D     		cmp	r5, #255
  83 0040 01D8     		bhi	.L10
ARM GAS  C:\Users\Mayur\AppData\Local\Temp\cc8qQOmM.s 			page 17


 732:Generated_Source\PSoC4/CapSense_1_Structure.c **** 
  84              		.loc 1 732 0
  85 0042 0020     		movs	r0, #0
  86 0044 00E0     		b	.L4
  87              	.L10:
 829:Generated_Source\PSoC4/CapSense_1_Structure.c ****             {
 830:Generated_Source\PSoC4/CapSense_1_Structure.c ****                 result = CYRET_BAD_PARAM;
  88              		.loc 1 830 0
  89 0046 0120     		movs	r0, #1
  90              	.L4:
  91              	.LVL3:
 831:Generated_Source\PSoC4/CapSense_1_Structure.c ****             }
 832:Generated_Source\PSoC4/CapSense_1_Structure.c **** 
 833:Generated_Source\PSoC4/CapSense_1_Structure.c ****             /* Check if it is marked as Read Only */
 834:Generated_Source\PSoC4/CapSense_1_Structure.c ****             if (0u != pData->rw)
  92              		.loc 1 834 0
  93 0048 002A     		cmp	r2, #0
  94 004a 02D1     		bne	.L11
  95 004c 02E0     		b	.L3
  96              	.LVL4:
  97              	.L9:
 822:Generated_Source\PSoC4/CapSense_1_Structure.c ****             }
  98              		.loc 1 822 0
  99 004e 0120     		movs	r0, #1
 100 0050 00E0     		b	.L3
 101              	.LVL5:
 102              	.L11:
 835:Generated_Source\PSoC4/CapSense_1_Structure.c ****             {
 836:Generated_Source\PSoC4/CapSense_1_Structure.c ****                 result = CYRET_BAD_PARAM;
 103              		.loc 1 836 0
 104 0052 0120     		movs	r0, #1
 105              	.LVL6:
 106              	.L3:
 837:Generated_Source\PSoC4/CapSense_1_Structure.c ****             }
 838:Generated_Source\PSoC4/CapSense_1_Structure.c ****         }
 839:Generated_Source\PSoC4/CapSense_1_Structure.c ****     #endif /* #if (0u != CapSense_1_SELF_TEST_EN) */
 840:Generated_Source\PSoC4/CapSense_1_Structure.c **** 
 841:Generated_Source\PSoC4/CapSense_1_Structure.c ****     if (CYRET_SUCCESS == result)
 107              		.loc 1 841 0
 108 0054 0028     		cmp	r0, #0
 109 0056 11D1     		bne	.L5
 842:Generated_Source\PSoC4/CapSense_1_Structure.c ****     {
 843:Generated_Source\PSoC4/CapSense_1_Structure.c ****         /* Check parameter type, offset alignment */
 844:Generated_Source\PSoC4/CapSense_1_Structure.c ****         switch (pData->type)
 110              		.loc 1 844 0
 111 0058 022E     		cmp	r6, #2
 112 005a 04D0     		beq	.L6
 113 005c 032E     		cmp	r6, #3
 114 005e 05D0     		beq	.L7
 115 0060 012E     		cmp	r6, #1
 116 0062 06D1     		bne	.L15
 117 0064 0AE0     		b	.L5
 118              	.L6:
 845:Generated_Source\PSoC4/CapSense_1_Structure.c ****         {
 846:Generated_Source\PSoC4/CapSense_1_Structure.c ****         case DS_PARAM_TYPE_UINT16:
 847:Generated_Source\PSoC4/CapSense_1_Structure.c ****             if (0u != (pData->offset & UINT16_ALIGN_MASK))
 119              		.loc 1 847 0
ARM GAS  C:\Users\Mayur\AppData\Local\Temp\cc8qQOmM.s 			page 18


 120 0066 EB07     		lsls	r3, r5, #31
 121 0068 05D4     		bmi	.L13
 122 006a 07E0     		b	.L5
 123              	.L7:
 848:Generated_Source\PSoC4/CapSense_1_Structure.c ****             {
 849:Generated_Source\PSoC4/CapSense_1_Structure.c ****                 result = CYRET_BAD_PARAM;
 850:Generated_Source\PSoC4/CapSense_1_Structure.c ****             }
 851:Generated_Source\PSoC4/CapSense_1_Structure.c ****             break;
 852:Generated_Source\PSoC4/CapSense_1_Structure.c **** 
 853:Generated_Source\PSoC4/CapSense_1_Structure.c ****         case DS_PARAM_TYPE_UINT32:
 854:Generated_Source\PSoC4/CapSense_1_Structure.c ****             if (0u != (pData->offset & UINT32_ALIGN_MASK))
 124              		.loc 1 854 0
 125 006c AB07     		lsls	r3, r5, #30
 126 006e 04D1     		bne	.L14
 127 0070 04E0     		b	.L5
 128              	.L15:
 855:Generated_Source\PSoC4/CapSense_1_Structure.c ****             {
 856:Generated_Source\PSoC4/CapSense_1_Structure.c ****                 result = CYRET_BAD_PARAM;
 857:Generated_Source\PSoC4/CapSense_1_Structure.c ****             }
 858:Generated_Source\PSoC4/CapSense_1_Structure.c ****             break;
 859:Generated_Source\PSoC4/CapSense_1_Structure.c **** 
 860:Generated_Source\PSoC4/CapSense_1_Structure.c ****         case DS_PARAM_TYPE_UINT8:
 861:Generated_Source\PSoC4/CapSense_1_Structure.c ****             break;
 862:Generated_Source\PSoC4/CapSense_1_Structure.c **** 
 863:Generated_Source\PSoC4/CapSense_1_Structure.c ****         default:
 864:Generated_Source\PSoC4/CapSense_1_Structure.c ****             result = CYRET_BAD_PARAM;
 129              		.loc 1 864 0
 130 0072 0120     		movs	r0, #1
 131              	.LVL7:
 132 0074 02E0     		b	.L5
 133              	.LVL8:
 134              	.L13:
 849:Generated_Source\PSoC4/CapSense_1_Structure.c ****             }
 135              		.loc 1 849 0
 136 0076 0120     		movs	r0, #1
 137              	.LVL9:
 138 0078 00E0     		b	.L5
 139              	.LVL10:
 140              	.L14:
 856:Generated_Source\PSoC4/CapSense_1_Structure.c ****             }
 141              		.loc 1 856 0
 142 007a 0120     		movs	r0, #1
 143              	.LVL11:
 144              	.L5:
 865:Generated_Source\PSoC4/CapSense_1_Structure.c ****             break;
 866:Generated_Source\PSoC4/CapSense_1_Structure.c ****         }
 867:Generated_Source\PSoC4/CapSense_1_Structure.c ****     }
 868:Generated_Source\PSoC4/CapSense_1_Structure.c **** 
 869:Generated_Source\PSoC4/CapSense_1_Structure.c ****     return result;
 870:Generated_Source\PSoC4/CapSense_1_Structure.c **** }
 145              		.loc 1 870 0
 146              		@ sp needed
 147 007c 70BD     		pop	{r4, r5, r6, pc}
 148              		.cfi_endproc
 149              	.LFE1:
 150              		.size	DsParseParamId, .-DsParseParamId
 151 007e C046     		.section	.text.CapSense_1_DsInitialize,"ax",%progbits
ARM GAS  C:\Users\Mayur\AppData\Local\Temp\cc8qQOmM.s 			page 19


 152              		.align	2
 153              		.global	CapSense_1_DsInitialize
 154              		.code	16
 155              		.thumb_func
 156              		.type	CapSense_1_DsInitialize, %function
 157              	CapSense_1_DsInitialize:
 158              	.LFB0:
 565:Generated_Source\PSoC4/CapSense_1_Structure.c ****     #if ((CapSense_1_ENABLE == CapSense_1_CSX_EN) || \
 159              		.loc 1 565 0
 160              		.cfi_startproc
 161              		@ args = 0, pretend = 0, frame = 0
 162              		@ frame_needed = 0, uses_anonymous_args = 0
 163 0000 70B5     		push	{r4, r5, r6, lr}
 164              		.cfi_def_cfa_offset 16
 165              		.cfi_offset 4, -16
 166              		.cfi_offset 5, -12
 167              		.cfi_offset 6, -8
 168              		.cfi_offset 14, -4
 169              	.LVL12:
 586:Generated_Source\PSoC4/CapSense_1_Structure.c **** 
 170              		.loc 1 586 0
 171 0002 174C     		ldr	r4, .L21
 172 0004 8622     		movs	r2, #134
 173 0006 5200     		lsls	r2, r2, #1
 174 0008 0021     		movs	r1, #0
 175 000a 2000     		movs	r0, r4
 176 000c FFF7FEFF 		bl	memset
 177              	.LVL13:
 589:Generated_Source\PSoC4/CapSense_1_Structure.c ****     CapSense_1_dsRam.deviceId = CapSense_1_DEVICE_ID;
 178              		.loc 1 589 0
 179 0010 144B     		ldr	r3, .L21+4
 180 0012 2380     		strh	r3, [r4]
 590:Generated_Source\PSoC4/CapSense_1_Structure.c ****     CapSense_1_dsRam.hwClock = CapSense_1_HW_CLOCK;
 181              		.loc 1 590 0
 182 0014 8023     		movs	r3, #128
 183 0016 DB00     		lsls	r3, r3, #3
 184 0018 6380     		strh	r3, [r4, #2]
 591:Generated_Source\PSoC4/CapSense_1_Structure.c **** 
 185              		.loc 1 591 0
 186 001a 134B     		ldr	r3, .L21+8
 187 001c A380     		strh	r3, [r4, #4]
 597:Generated_Source\PSoC4/CapSense_1_Structure.c **** 
 188              		.loc 1 597 0
 189 001e 0222     		movs	r2, #2
 190 0020 2223     		movs	r3, #34
 191 0022 E254     		strb	r2, [r4, r3]
 621:Generated_Source\PSoC4/CapSense_1_Structure.c **** 
 192              		.loc 1 621 0
 193 0024 2000     		movs	r0, r4
 194 0026 2430     		adds	r0, r0, #36
 195 0028 8E32     		adds	r2, r2, #142
 196 002a 1049     		ldr	r1, .L21+12
 197 002c 0831     		adds	r1, r1, #8
 198 002e FFF7FEFF 		bl	memcpy
 199              	.LVL14:
 582:Generated_Source\PSoC4/CapSense_1_Structure.c ****     #endif
 200              		.loc 1 582 0
ARM GAS  C:\Users\Mayur\AppData\Local\Temp\cc8qQOmM.s 			page 20


 201 0032 0F49     		ldr	r1, .L21+16
 638:Generated_Source\PSoC4/CapSense_1_Structure.c **** 
 202              		.loc 1 638 0
 203 0034 0C00     		movs	r4, r1
 204 0036 0834     		adds	r4, r4, #8
 640:Generated_Source\PSoC4/CapSense_1_Structure.c ****         {
 205              		.loc 1 640 0
 206 0038 0823     		movs	r3, #8
 207 003a 0CE0     		b	.L17
 208              	.LVL15:
 209              	.L20:
 642:Generated_Source\PSoC4/CapSense_1_Structure.c **** 
 210              		.loc 1 642 0
 211 003c A268     		ldr	r2, [r4, #8]
 212              	.LVL16:
 644:Generated_Source\PSoC4/CapSense_1_Structure.c ****             {
 213              		.loc 1 644 0
 214 003e 238B     		ldrh	r3, [r4, #24]
 215              	.LVL17:
 216 0040 04E0     		b	.L18
 217              	.LVL18:
 218              	.L19:
 646:Generated_Source\PSoC4/CapSense_1_Structure.c ****                 ptrIdacInit++;
 219              		.loc 1 646 0
 220 0042 0B78     		ldrb	r3, [r1]
 221 0044 5372     		strb	r3, [r2, #9]
 647:Generated_Source\PSoC4/CapSense_1_Structure.c **** 
 222              		.loc 1 647 0
 223 0046 0131     		adds	r1, r1, #1
 224              	.LVL19:
 657:Generated_Source\PSoC4/CapSense_1_Structure.c ****             }
 225              		.loc 1 657 0
 226 0048 0A32     		adds	r2, r2, #10
 227              	.LVL20:
 644:Generated_Source\PSoC4/CapSense_1_Structure.c ****             {
 228              		.loc 1 644 0
 229 004a 0300     		movs	r3, r0
 230              	.LVL21:
 231              	.L18:
 644:Generated_Source\PSoC4/CapSense_1_Structure.c ****             {
 232              		.loc 1 644 0 is_stmt 0 discriminator 1
 233 004c 581E     		subs	r0, r3, #1
 234              	.LVL22:
 235 004e 002B     		cmp	r3, #0
 236 0050 F7D1     		bne	.L19
 660:Generated_Source\PSoC4/CapSense_1_Structure.c ****         }
 237              		.loc 1 660 0 is_stmt 1
 238 0052 2034     		adds	r4, r4, #32
 239              	.LVL23:
 640:Generated_Source\PSoC4/CapSense_1_Structure.c ****         {
 240              		.loc 1 640 0
 241 0054 2B00     		movs	r3, r5
 242              	.LVL24:
 243              	.L17:
 640:Generated_Source\PSoC4/CapSense_1_Structure.c ****         {
 244              		.loc 1 640 0 is_stmt 0 discriminator 1
 245 0056 5D1E     		subs	r5, r3, #1
ARM GAS  C:\Users\Mayur\AppData\Local\Temp\cc8qQOmM.s 			page 21


 246              	.LVL25:
 247 0058 002B     		cmp	r3, #0
 248 005a EFD1     		bne	.L20
 691:Generated_Source\PSoC4/CapSense_1_Structure.c **** 
 249              		.loc 1 691 0 is_stmt 1
 250              		@ sp needed
 251              	.LVL26:
 252              	.LVL27:
 253 005c 70BD     		pop	{r4, r5, r6, pc}
 254              	.L22:
 255 005e C046     		.align	2
 256              	.L21:
 257 0060 00000000 		.word	CapSense_1_dsRam
 258 0064 D2A9FFFF 		.word	-22062
 259 0068 B80B0000 		.word	3000
 260 006c 00010000 		.word	.LANCHOR1
 261 0070 00000000 		.word	.LANCHOR0
 262              		.cfi_endproc
 263              	.LFE0:
 264              		.size	CapSense_1_DsInitialize, .-CapSense_1_DsInitialize
 265              		.section	.text.CapSense_1_GetParam,"ax",%progbits
 266              		.align	2
 267              		.global	CapSense_1_GetParam
 268              		.code	16
 269              		.thumb_func
 270              		.type	CapSense_1_GetParam, %function
 271              	CapSense_1_GetParam:
 272              	.LFB2:
 871:Generated_Source\PSoC4/CapSense_1_Structure.c **** 
 872:Generated_Source\PSoC4/CapSense_1_Structure.c **** /*******************************************************************************
 873:Generated_Source\PSoC4/CapSense_1_Structure.c **** * Function Name: CapSense_1_GetParam
 874:Generated_Source\PSoC4/CapSense_1_Structure.c **** ****************************************************************************//**
 875:Generated_Source\PSoC4/CapSense_1_Structure.c **** *
 876:Generated_Source\PSoC4/CapSense_1_Structure.c **** * \brief
 877:Generated_Source\PSoC4/CapSense_1_Structure.c **** *  Gets the specified parameter value from the \ref group_structures.
 878:Generated_Source\PSoC4/CapSense_1_Structure.c **** *
 879:Generated_Source\PSoC4/CapSense_1_Structure.c **** * \details
 880:Generated_Source\PSoC4/CapSense_1_Structure.c **** *  This function gets the value of the specified parameter by the paramId
 881:Generated_Source\PSoC4/CapSense_1_Structure.c **** *  argument. The paramId for each register is available in the
 882:Generated_Source\PSoC4/CapSense_1_Structure.c **** *  CapSense_1 RegisterMap header file as
 883:Generated_Source\PSoC4/CapSense_1_Structure.c **** *  CapSense_1_<ParameterName>_PARAM_ID. The paramId is a special
 884:Generated_Source\PSoC4/CapSense_1_Structure.c **** *  enumerated value generated by the customizer. The format of paramId is as
 885:Generated_Source\PSoC4/CapSense_1_Structure.c **** *  follows:
 886:Generated_Source\PSoC4/CapSense_1_Structure.c **** *    1. [ byte 3 byte 2 byte 1 byte 0 ]
 887:Generated_Source\PSoC4/CapSense_1_Structure.c **** *    2. [ TTWFCCCC UIIIIIII MMMMMMMM LLLLLLLL ]
 888:Generated_Source\PSoC4/CapSense_1_Structure.c **** *    3. T - encodes the parameter type:
 889:Generated_Source\PSoC4/CapSense_1_Structure.c **** *      - 01b: uint8
 890:Generated_Source\PSoC4/CapSense_1_Structure.c **** *      - 10b: uint16
 891:Generated_Source\PSoC4/CapSense_1_Structure.c **** *      - 11b: uint32
 892:Generated_Source\PSoC4/CapSense_1_Structure.c **** *    4. W - indicates whether the parameter is writable:
 893:Generated_Source\PSoC4/CapSense_1_Structure.c **** *      - 0: ReadOnly
 894:Generated_Source\PSoC4/CapSense_1_Structure.c **** *      - 1: Read/Write
 895:Generated_Source\PSoC4/CapSense_1_Structure.c **** *    5. C - 4 bit CRC (X^3 + 1) of the whole paramId word, the C bits are
 896:Generated_Source\PSoC4/CapSense_1_Structure.c **** *       filled with 0s when the CRC is calculated.
 897:Generated_Source\PSoC4/CapSense_1_Structure.c **** *    6. U - indicates if the parameter affects the RAM Widget Object CRC.
 898:Generated_Source\PSoC4/CapSense_1_Structure.c **** *    7. I - specifies that the widgetId parameter belongs to
 899:Generated_Source\PSoC4/CapSense_1_Structure.c **** *    8. M,L - the parameter offset MSB and LSB accordingly in:
ARM GAS  C:\Users\Mayur\AppData\Local\Temp\cc8qQOmM.s 			page 22


 900:Generated_Source\PSoC4/CapSense_1_Structure.c **** *      - Flash Data Structure if W bit is 0.
 901:Generated_Source\PSoC4/CapSense_1_Structure.c **** *      - RAM Data Structure if W bit is 1.
 902:Generated_Source\PSoC4/CapSense_1_Structure.c **** *
 903:Generated_Source\PSoC4/CapSense_1_Structure.c **** *  Refer to the \ref group_structures section for details of the data structure
 904:Generated_Source\PSoC4/CapSense_1_Structure.c **** *  organization and examples of its register access.
 905:Generated_Source\PSoC4/CapSense_1_Structure.c **** *
 906:Generated_Source\PSoC4/CapSense_1_Structure.c **** * \param paramId
 907:Generated_Source\PSoC4/CapSense_1_Structure.c **** *  Specifies the ID of parameter to get its value.
 908:Generated_Source\PSoC4/CapSense_1_Structure.c **** *  A macro for the parameter ID can be found in the CapSense_1 RegisterMap header
 909:Generated_Source\PSoC4/CapSense_1_Structure.c **** *  file defined as CapSense_1_<ParameterName>_PARAM_ID.
 910:Generated_Source\PSoC4/CapSense_1_Structure.c **** *
 911:Generated_Source\PSoC4/CapSense_1_Structure.c **** * \param value
 912:Generated_Source\PSoC4/CapSense_1_Structure.c **** *  The pointer to a variable to be updated with the obtained value.
 913:Generated_Source\PSoC4/CapSense_1_Structure.c **** *
 914:Generated_Source\PSoC4/CapSense_1_Structure.c **** * \return
 915:Generated_Source\PSoC4/CapSense_1_Structure.c **** *  Returns the status of the operation:
 916:Generated_Source\PSoC4/CapSense_1_Structure.c **** *    - CYRET_SUCCESS - The operation is successfully completed.
 917:Generated_Source\PSoC4/CapSense_1_Structure.c **** *    - CYRET_BAD_PARAM - The input parameter is invalid.
 918:Generated_Source\PSoC4/CapSense_1_Structure.c **** *
 919:Generated_Source\PSoC4/CapSense_1_Structure.c **** *******************************************************************************/
 920:Generated_Source\PSoC4/CapSense_1_Structure.c **** cystatus CapSense_1_GetParam(uint32 paramId, uint32 *value)
 921:Generated_Source\PSoC4/CapSense_1_Structure.c **** {
 273              		.loc 1 921 0
 274              		.cfi_startproc
 275              		@ args = 0, pretend = 0, frame = 8
 276              		@ frame_needed = 0, uses_anonymous_args = 0
 277              	.LVL28:
 278 0000 30B5     		push	{r4, r5, lr}
 279              		.cfi_def_cfa_offset 12
 280              		.cfi_offset 4, -12
 281              		.cfi_offset 5, -8
 282              		.cfi_offset 14, -4
 283 0002 83B0     		sub	sp, sp, #12
 284              		.cfi_def_cfa_offset 24
 285 0004 0D00     		movs	r5, r1
 922:Generated_Source\PSoC4/CapSense_1_Structure.c ****     PARAM_ID_STRUCT pData;
 923:Generated_Source\PSoC4/CapSense_1_Structure.c ****     cystatus result;
 924:Generated_Source\PSoC4/CapSense_1_Structure.c **** 
 925:Generated_Source\PSoC4/CapSense_1_Structure.c ****     union
 926:Generated_Source\PSoC4/CapSense_1_Structure.c ****     {
 927:Generated_Source\PSoC4/CapSense_1_Structure.c ****         volatile void   const * ptr;
 928:Generated_Source\PSoC4/CapSense_1_Structure.c ****         volatile uint8  const * ptrUint8;
 929:Generated_Source\PSoC4/CapSense_1_Structure.c ****         volatile uint16 const * ptrUint16;
 930:Generated_Source\PSoC4/CapSense_1_Structure.c ****         volatile uint32 const * ptrUint32;
 931:Generated_Source\PSoC4/CapSense_1_Structure.c ****     } ptrData;
 932:Generated_Source\PSoC4/CapSense_1_Structure.c **** 
 933:Generated_Source\PSoC4/CapSense_1_Structure.c ****     result = DsParseParamId(paramId, &pData);
 286              		.loc 1 933 0
 287 0006 6946     		mov	r1, sp
 288              	.LVL29:
 289 0008 FFF7FEFF 		bl	DsParseParamId
 290              	.LVL30:
 291 000c 041E     		subs	r4, r0, #0
 292              	.LVL31:
 934:Generated_Source\PSoC4/CapSense_1_Structure.c **** 
 935:Generated_Source\PSoC4/CapSense_1_Structure.c ****     /* Parse and validate paramId */
 936:Generated_Source\PSoC4/CapSense_1_Structure.c ****     if (CYRET_SUCCESS == result)
ARM GAS  C:\Users\Mayur\AppData\Local\Temp\cc8qQOmM.s 			page 23


 293              		.loc 1 936 0
 294 000e 1FD1     		bne	.L24
 937:Generated_Source\PSoC4/CapSense_1_Structure.c ****     {
 938:Generated_Source\PSoC4/CapSense_1_Structure.c ****         /* Get base address of parameter */
 939:Generated_Source\PSoC4/CapSense_1_Structure.c ****         if (0u == pData.flash)
 295              		.loc 1 939 0
 296 0010 6B46     		mov	r3, sp
 297 0012 5B79     		ldrb	r3, [r3, #5]
 298 0014 002B     		cmp	r3, #0
 299 0016 01D1     		bne	.L25
 940:Generated_Source\PSoC4/CapSense_1_Structure.c ****         {
 941:Generated_Source\PSoC4/CapSense_1_Structure.c ****             ptrData.ptr = &CapSense_1_dsRam;
 300              		.loc 1 941 0
 301 0018 0F4A     		ldr	r2, .L30
 302              	.LVL32:
 303 001a 02E0     		b	.L26
 304              	.L25:
 942:Generated_Source\PSoC4/CapSense_1_Structure.c ****         }
 943:Generated_Source\PSoC4/CapSense_1_Structure.c ****         else
 944:Generated_Source\PSoC4/CapSense_1_Structure.c ****         {
 945:Generated_Source\PSoC4/CapSense_1_Structure.c ****             ptrData.ptr = &CapSense_1_dsFlash;
 305              		.loc 1 945 0
 306 001c 0F4B     		ldr	r3, .L30+4
 307 001e 0833     		adds	r3, r3, #8
 308 0020 1A00     		movs	r2, r3
 309              	.L26:
 946:Generated_Source\PSoC4/CapSense_1_Structure.c ****         }
 947:Generated_Source\PSoC4/CapSense_1_Structure.c **** 
 948:Generated_Source\PSoC4/CapSense_1_Structure.c ****         /* Add offset to base address */
 949:Generated_Source\PSoC4/CapSense_1_Structure.c ****         ptrData.ptrUint8 += pData.offset;
 310              		.loc 1 949 0
 311 0022 6B46     		mov	r3, sp
 312 0024 1B88     		ldrh	r3, [r3]
 313              	.LVL33:
 314 0026 D318     		adds	r3, r2, r3
 950:Generated_Source\PSoC4/CapSense_1_Structure.c **** 
 951:Generated_Source\PSoC4/CapSense_1_Structure.c ****         /* Read data */
 952:Generated_Source\PSoC4/CapSense_1_Structure.c ****         if (DS_PARAM_TYPE_UINT8 == pData.type)
 315              		.loc 1 952 0
 316 0028 6A46     		mov	r2, sp
 317              	.LVL34:
 318 002a D279     		ldrb	r2, [r2, #7]
 319 002c 012A     		cmp	r2, #1
 320 002e 02D1     		bne	.L27
 953:Generated_Source\PSoC4/CapSense_1_Structure.c ****         {
 954:Generated_Source\PSoC4/CapSense_1_Structure.c ****             *value = (uint32) (*ptrData.ptrUint8);
 321              		.loc 1 954 0
 322 0030 1B78     		ldrb	r3, [r3]
 323 0032 2B60     		str	r3, [r5]
 324 0034 0CE0     		b	.L24
 325              	.L27:
 955:Generated_Source\PSoC4/CapSense_1_Structure.c ****         }
 956:Generated_Source\PSoC4/CapSense_1_Structure.c ****         else if (DS_PARAM_TYPE_UINT16 == pData.type)
 326              		.loc 1 956 0
 327 0036 022A     		cmp	r2, #2
 328 0038 02D1     		bne	.L28
 957:Generated_Source\PSoC4/CapSense_1_Structure.c ****         {
ARM GAS  C:\Users\Mayur\AppData\Local\Temp\cc8qQOmM.s 			page 24


 958:Generated_Source\PSoC4/CapSense_1_Structure.c ****             *value = (uint32) (*ptrData.ptrUint16);
 329              		.loc 1 958 0
 330 003a 1B88     		ldrh	r3, [r3]
 331 003c 2B60     		str	r3, [r5]
 332 003e 07E0     		b	.L24
 333              	.L28:
 959:Generated_Source\PSoC4/CapSense_1_Structure.c ****         }
 960:Generated_Source\PSoC4/CapSense_1_Structure.c ****         else if (DS_PARAM_TYPE_UINT32 == pData.type)
 334              		.loc 1 960 0
 335 0040 032A     		cmp	r2, #3
 336 0042 02D1     		bne	.L29
 961:Generated_Source\PSoC4/CapSense_1_Structure.c ****         {
 962:Generated_Source\PSoC4/CapSense_1_Structure.c ****             *value = *ptrData.ptrUint32;
 337              		.loc 1 962 0
 338 0044 1B68     		ldr	r3, [r3]
 339 0046 2B60     		str	r3, [r5]
 340 0048 02E0     		b	.L24
 341              	.L29:
 963:Generated_Source\PSoC4/CapSense_1_Structure.c ****         }
 964:Generated_Source\PSoC4/CapSense_1_Structure.c ****         else
 965:Generated_Source\PSoC4/CapSense_1_Structure.c ****         {
 966:Generated_Source\PSoC4/CapSense_1_Structure.c ****             /* Parameter comes here already validated. */
 967:Generated_Source\PSoC4/CapSense_1_Structure.c ****             CYASSERT(0u);
 342              		.loc 1 967 0 discriminator 1
 343 004a 0020     		movs	r0, #0
 344              	.LVL35:
 345 004c FFF7FEFF 		bl	CyHalt
 346              	.LVL36:
 347              	.L24:
 968:Generated_Source\PSoC4/CapSense_1_Structure.c ****         }
 969:Generated_Source\PSoC4/CapSense_1_Structure.c ****     }
 970:Generated_Source\PSoC4/CapSense_1_Structure.c **** 
 971:Generated_Source\PSoC4/CapSense_1_Structure.c ****     return result;
 972:Generated_Source\PSoC4/CapSense_1_Structure.c **** }
 348              		.loc 1 972 0
 349 0050 2000     		movs	r0, r4
 350 0052 03B0     		add	sp, sp, #12
 351              		@ sp needed
 352              	.LVL37:
 353              	.LVL38:
 354 0054 30BD     		pop	{r4, r5, pc}
 355              	.L31:
 356 0056 C046     		.align	2
 357              	.L30:
 358 0058 00000000 		.word	CapSense_1_dsRam
 359 005c 00000000 		.word	.LANCHOR0
 360              		.cfi_endproc
 361              	.LFE2:
 362              		.size	CapSense_1_GetParam, .-CapSense_1_GetParam
 363              		.section	.text.CapSense_1_SetParam,"ax",%progbits
 364              		.align	2
 365              		.global	CapSense_1_SetParam
 366              		.code	16
 367              		.thumb_func
 368              		.type	CapSense_1_SetParam, %function
 369              	CapSense_1_SetParam:
 370              	.LFB3:
ARM GAS  C:\Users\Mayur\AppData\Local\Temp\cc8qQOmM.s 			page 25


 973:Generated_Source\PSoC4/CapSense_1_Structure.c **** 
 974:Generated_Source\PSoC4/CapSense_1_Structure.c **** 
 975:Generated_Source\PSoC4/CapSense_1_Structure.c **** /*******************************************************************************
 976:Generated_Source\PSoC4/CapSense_1_Structure.c **** * Function Name: CapSense_1_SetParam
 977:Generated_Source\PSoC4/CapSense_1_Structure.c **** ****************************************************************************//**
 978:Generated_Source\PSoC4/CapSense_1_Structure.c **** *
 979:Generated_Source\PSoC4/CapSense_1_Structure.c **** * \brief
 980:Generated_Source\PSoC4/CapSense_1_Structure.c **** *  Sets a new value for the specified parameter in the \ref group_structures.
 981:Generated_Source\PSoC4/CapSense_1_Structure.c **** *
 982:Generated_Source\PSoC4/CapSense_1_Structure.c **** * \details
 983:Generated_Source\PSoC4/CapSense_1_Structure.c **** *  This function sets the value of the specified parameter by the paramId
 984:Generated_Source\PSoC4/CapSense_1_Structure.c **** *  argument. The paramId for each register is available in the
 985:Generated_Source\PSoC4/CapSense_1_Structure.c **** *  CapSense_1 RegisterMap header file as
 986:Generated_Source\PSoC4/CapSense_1_Structure.c **** *  CapSense_1_<ParameterName>_PARAM_ID. The paramId is a special
 987:Generated_Source\PSoC4/CapSense_1_Structure.c **** *  enumerated value generated by the customizer. The format of paramId is as
 988:Generated_Source\PSoC4/CapSense_1_Structure.c **** *  follows:
 989:Generated_Source\PSoC4/CapSense_1_Structure.c **** *    1. [ byte 3 byte 2 byte 1 byte 0 ]
 990:Generated_Source\PSoC4/CapSense_1_Structure.c **** *    2. [ TTWFCCCC UIIIIIII MMMMMMMM LLLLLLLL ]
 991:Generated_Source\PSoC4/CapSense_1_Structure.c **** *    3. T - encodes the parameter type:
 992:Generated_Source\PSoC4/CapSense_1_Structure.c **** *      - 01b: uint8
 993:Generated_Source\PSoC4/CapSense_1_Structure.c **** *      - 10b: uint16
 994:Generated_Source\PSoC4/CapSense_1_Structure.c **** *      - 11b: uint32
 995:Generated_Source\PSoC4/CapSense_1_Structure.c **** *    4. W - indicates whether the parameter is writable:
 996:Generated_Source\PSoC4/CapSense_1_Structure.c **** *      - 0: ReadOnly
 997:Generated_Source\PSoC4/CapSense_1_Structure.c **** *      - 1: Read/Write
 998:Generated_Source\PSoC4/CapSense_1_Structure.c **** *    5. C - 4 bit CRC (X^3 + 1) of the whole paramId word, the C bits are
 999:Generated_Source\PSoC4/CapSense_1_Structure.c **** *       filled with 0s when the CRC is calculated.
1000:Generated_Source\PSoC4/CapSense_1_Structure.c **** *    6. U - indicates if the parameter affects the RAM Widget Object CRC.
1001:Generated_Source\PSoC4/CapSense_1_Structure.c **** *    7. I - specifies that the widgetId parameter belongs to
1002:Generated_Source\PSoC4/CapSense_1_Structure.c **** *    8. M,L - the parameter offset MSB and LSB accordingly in:
1003:Generated_Source\PSoC4/CapSense_1_Structure.c **** *      - Flash Data Structure if W bit is 0.
1004:Generated_Source\PSoC4/CapSense_1_Structure.c **** *      - RAM Data Structure if W bit is 1.
1005:Generated_Source\PSoC4/CapSense_1_Structure.c **** *
1006:Generated_Source\PSoC4/CapSense_1_Structure.c **** *  Refer to the \ref group_structures section for details of the data structure
1007:Generated_Source\PSoC4/CapSense_1_Structure.c **** *  organization and examples of its register access.
1008:Generated_Source\PSoC4/CapSense_1_Structure.c **** *
1009:Generated_Source\PSoC4/CapSense_1_Structure.c **** *  This function writes specified value into the desired register without
1010:Generated_Source\PSoC4/CapSense_1_Structure.c **** *  other registers update. It is application layer responsibility to keep all
1011:Generated_Source\PSoC4/CapSense_1_Structure.c **** *  the data structure registers aligned. Repeated call of
1012:Generated_Source\PSoC4/CapSense_1_Structure.c **** *  CapSense_1_Start() function helps aligning dependent register values.
1013:Generated_Source\PSoC4/CapSense_1_Structure.c **** *
1014:Generated_Source\PSoC4/CapSense_1_Structure.c **** * \param paramId
1015:Generated_Source\PSoC4/CapSense_1_Structure.c **** *  Specifies the ID of parameter to set its value.
1016:Generated_Source\PSoC4/CapSense_1_Structure.c **** *  A macro for the parameter ID can be found in the CapSense_1 RegisterMap header
1017:Generated_Source\PSoC4/CapSense_1_Structure.c **** *  file defined as CapSense_1_<ParameterName>_PARAM_ID.
1018:Generated_Source\PSoC4/CapSense_1_Structure.c **** 
1019:Generated_Source\PSoC4/CapSense_1_Structure.c **** * \param value
1020:Generated_Source\PSoC4/CapSense_1_Structure.c **** *  Specifies the new parameter's value.
1021:Generated_Source\PSoC4/CapSense_1_Structure.c **** *
1022:Generated_Source\PSoC4/CapSense_1_Structure.c **** * \return
1023:Generated_Source\PSoC4/CapSense_1_Structure.c **** *  Returns the status of the operation:
1024:Generated_Source\PSoC4/CapSense_1_Structure.c **** *    - CYRET_SUCCESS - The operation is successfully completed.
1025:Generated_Source\PSoC4/CapSense_1_Structure.c **** *    - CYRET_BAD_PARAM - The input parameter is invalid.
1026:Generated_Source\PSoC4/CapSense_1_Structure.c **** *
1027:Generated_Source\PSoC4/CapSense_1_Structure.c **** *******************************************************************************/
1028:Generated_Source\PSoC4/CapSense_1_Structure.c **** cystatus CapSense_1_SetParam(uint32 paramId, uint32 value)
1029:Generated_Source\PSoC4/CapSense_1_Structure.c **** {
ARM GAS  C:\Users\Mayur\AppData\Local\Temp\cc8qQOmM.s 			page 26


 371              		.loc 1 1029 0
 372              		.cfi_startproc
 373              		@ args = 0, pretend = 0, frame = 8
 374              		@ frame_needed = 0, uses_anonymous_args = 0
 375              	.LVL39:
 376 0000 30B5     		push	{r4, r5, lr}
 377              		.cfi_def_cfa_offset 12
 378              		.cfi_offset 4, -12
 379              		.cfi_offset 5, -8
 380              		.cfi_offset 14, -4
 381 0002 83B0     		sub	sp, sp, #12
 382              		.cfi_def_cfa_offset 24
 383 0004 0D00     		movs	r5, r1
1030:Generated_Source\PSoC4/CapSense_1_Structure.c ****     cystatus result;
1031:Generated_Source\PSoC4/CapSense_1_Structure.c ****     PARAM_ID_STRUCT pData;
1032:Generated_Source\PSoC4/CapSense_1_Structure.c **** 
1033:Generated_Source\PSoC4/CapSense_1_Structure.c ****     union
1034:Generated_Source\PSoC4/CapSense_1_Structure.c ****     {
1035:Generated_Source\PSoC4/CapSense_1_Structure.c ****         volatile void   * ptr;
1036:Generated_Source\PSoC4/CapSense_1_Structure.c ****         volatile uint8  * ptrUint8;
1037:Generated_Source\PSoC4/CapSense_1_Structure.c ****         volatile uint16 * ptrUint16;
1038:Generated_Source\PSoC4/CapSense_1_Structure.c ****         volatile uint32 * ptrUint32;
1039:Generated_Source\PSoC4/CapSense_1_Structure.c ****     } ptrData;
1040:Generated_Source\PSoC4/CapSense_1_Structure.c **** 
1041:Generated_Source\PSoC4/CapSense_1_Structure.c ****     result = DsParseParamId(paramId, &pData);
 384              		.loc 1 1041 0
 385 0006 6946     		mov	r1, sp
 386              	.LVL40:
 387 0008 FFF7FEFF 		bl	DsParseParamId
 388              	.LVL41:
 389 000c 041E     		subs	r4, r0, #0
 390              	.LVL42:
1042:Generated_Source\PSoC4/CapSense_1_Structure.c **** 
1043:Generated_Source\PSoC4/CapSense_1_Structure.c ****     /* verify if parameter is writable */
1044:Generated_Source\PSoC4/CapSense_1_Structure.c ****     if (CYRET_SUCCESS == result)
 391              		.loc 1 1044 0
 392 000e 04D1     		bne	.L33
1045:Generated_Source\PSoC4/CapSense_1_Structure.c ****     {
1046:Generated_Source\PSoC4/CapSense_1_Structure.c ****         if (0u == pData.rw)
 393              		.loc 1 1046 0
 394 0010 6B46     		mov	r3, sp
 395 0012 9B79     		ldrb	r3, [r3, #6]
 396 0014 002B     		cmp	r3, #0
 397 0016 00D1     		bne	.L33
1047:Generated_Source\PSoC4/CapSense_1_Structure.c ****         {
1048:Generated_Source\PSoC4/CapSense_1_Structure.c ****             result = CYRET_BAD_PARAM;
 398              		.loc 1 1048 0
 399 0018 0134     		adds	r4, r4, #1
 400              	.L33:
 401              	.LVL43:
1049:Generated_Source\PSoC4/CapSense_1_Structure.c ****         }
1050:Generated_Source\PSoC4/CapSense_1_Structure.c ****     }
1051:Generated_Source\PSoC4/CapSense_1_Structure.c **** 
1052:Generated_Source\PSoC4/CapSense_1_Structure.c ****     /* Parse and validate paramId */
1053:Generated_Source\PSoC4/CapSense_1_Structure.c ****     if (CYRET_SUCCESS == result)
 402              		.loc 1 1053 0
 403 001a 002C     		cmp	r4, #0
ARM GAS  C:\Users\Mayur\AppData\Local\Temp\cc8qQOmM.s 			page 27


 404 001c 16D1     		bne	.L34
1054:Generated_Source\PSoC4/CapSense_1_Structure.c ****     {
1055:Generated_Source\PSoC4/CapSense_1_Structure.c ****         /* Get base address of parameter */
1056:Generated_Source\PSoC4/CapSense_1_Structure.c ****         ptrData.ptr = &CapSense_1_dsRam;
1057:Generated_Source\PSoC4/CapSense_1_Structure.c **** 
1058:Generated_Source\PSoC4/CapSense_1_Structure.c ****         /* Add offset to base address */
1059:Generated_Source\PSoC4/CapSense_1_Structure.c ****         ptrData.ptrUint8 += pData.offset;
 405              		.loc 1 1059 0
 406 001e 6B46     		mov	r3, sp
 407 0020 1A88     		ldrh	r2, [r3]
 408 0022 0C4B     		ldr	r3, .L39
 409 0024 D318     		adds	r3, r2, r3
1060:Generated_Source\PSoC4/CapSense_1_Structure.c **** 
1061:Generated_Source\PSoC4/CapSense_1_Structure.c ****         /* Write data */
1062:Generated_Source\PSoC4/CapSense_1_Structure.c ****         if (DS_PARAM_TYPE_UINT8 == pData.type)
 410              		.loc 1 1062 0
 411 0026 6A46     		mov	r2, sp
 412 0028 D279     		ldrb	r2, [r2, #7]
 413 002a 012A     		cmp	r2, #1
 414 002c 02D1     		bne	.L35
1063:Generated_Source\PSoC4/CapSense_1_Structure.c ****         {
1064:Generated_Source\PSoC4/CapSense_1_Structure.c ****             *ptrData.ptrUint8 = LO8(value);
 415              		.loc 1 1064 0
 416 002e EDB2     		uxtb	r5, r5
 417              	.LVL44:
 418 0030 1D70     		strb	r5, [r3]
 419 0032 0BE0     		b	.L34
 420              	.LVL45:
 421              	.L35:
1065:Generated_Source\PSoC4/CapSense_1_Structure.c ****         }
1066:Generated_Source\PSoC4/CapSense_1_Structure.c ****         else if (DS_PARAM_TYPE_UINT16 == pData.type)
 422              		.loc 1 1066 0
 423 0034 022A     		cmp	r2, #2
 424 0036 02D1     		bne	.L36
1067:Generated_Source\PSoC4/CapSense_1_Structure.c ****         {
1068:Generated_Source\PSoC4/CapSense_1_Structure.c ****             *ptrData.ptrUint16 = LO16(value);
 425              		.loc 1 1068 0
 426 0038 ADB2     		uxth	r5, r5
 427              	.LVL46:
 428 003a 1D80     		strh	r5, [r3]
 429 003c 06E0     		b	.L34
 430              	.LVL47:
 431              	.L36:
1069:Generated_Source\PSoC4/CapSense_1_Structure.c ****         }
1070:Generated_Source\PSoC4/CapSense_1_Structure.c ****         else if (DS_PARAM_TYPE_UINT32 == pData.type)
 432              		.loc 1 1070 0
 433 003e 032A     		cmp	r2, #3
 434 0040 01D1     		bne	.L37
1071:Generated_Source\PSoC4/CapSense_1_Structure.c ****         {
1072:Generated_Source\PSoC4/CapSense_1_Structure.c ****             *ptrData.ptrUint32 = value;
 435              		.loc 1 1072 0
 436 0042 1D60     		str	r5, [r3]
 437 0044 02E0     		b	.L34
 438              	.L37:
1073:Generated_Source\PSoC4/CapSense_1_Structure.c ****         }
1074:Generated_Source\PSoC4/CapSense_1_Structure.c ****         else
1075:Generated_Source\PSoC4/CapSense_1_Structure.c ****         {
ARM GAS  C:\Users\Mayur\AppData\Local\Temp\cc8qQOmM.s 			page 28


1076:Generated_Source\PSoC4/CapSense_1_Structure.c ****             /* Parameter comes here already validated. */
1077:Generated_Source\PSoC4/CapSense_1_Structure.c ****             CYASSERT(0u);
 439              		.loc 1 1077 0 discriminator 1
 440 0046 0020     		movs	r0, #0
 441 0048 FFF7FEFF 		bl	CyHalt
 442              	.LVL48:
 443              	.L34:
1078:Generated_Source\PSoC4/CapSense_1_Structure.c ****         }
1079:Generated_Source\PSoC4/CapSense_1_Structure.c **** 
1080:Generated_Source\PSoC4/CapSense_1_Structure.c ****         #if (CapSense_1_ENABLE == (CapSense_1_TST_WDGT_CRC_EN || CapSense_1_TST_GLOBAL_CRC_EN))
1081:Generated_Source\PSoC4/CapSense_1_Structure.c ****             /* Update widget or global CRC if self-test is enabled and parameter affects it */
1082:Generated_Source\PSoC4/CapSense_1_Structure.c ****             if (0u != pData.affectsCrc)
1083:Generated_Source\PSoC4/CapSense_1_Structure.c ****             {
1084:Generated_Source\PSoC4/CapSense_1_Structure.c ****                 if ((ptrData.ptrUint16 >= &CapSense_1_dsRam.csd0Config) &&
1085:Generated_Source\PSoC4/CapSense_1_Structure.c ****                     (ptrData.ptrUint16 <  &CapSense_1_dsRam.glbCrc))
1086:Generated_Source\PSoC4/CapSense_1_Structure.c ****                 {
1087:Generated_Source\PSoC4/CapSense_1_Structure.c **** 
1088:Generated_Source\PSoC4/CapSense_1_Structure.c ****                     #if (CapSense_1_ENABLE == CapSense_1_TST_GLOBAL_CRC_EN)
1089:Generated_Source\PSoC4/CapSense_1_Structure.c ****                         CapSense_1_DsUpdateGlobalCrc();
1090:Generated_Source\PSoC4/CapSense_1_Structure.c ****                     #endif /* (CapSense_1_ENABLE == CapSense_1_TST_GLOBAL_CRC_EN) */
1091:Generated_Source\PSoC4/CapSense_1_Structure.c **** 
1092:Generated_Source\PSoC4/CapSense_1_Structure.c ****                 }
1093:Generated_Source\PSoC4/CapSense_1_Structure.c ****                 else
1094:Generated_Source\PSoC4/CapSense_1_Structure.c ****                 {
1095:Generated_Source\PSoC4/CapSense_1_Structure.c ****                     #if (CapSense_1_ENABLE == CapSense_1_TST_WDGT_CRC_EN)
1096:Generated_Source\PSoC4/CapSense_1_Structure.c ****                         CapSense_1_DsUpdateWidgetCrc((uint32)pData.widgetId);
1097:Generated_Source\PSoC4/CapSense_1_Structure.c ****                     #endif /* (CapSense_1_ENABLE == CapSense_1_TST_WDGT_CRC_EN) */
1098:Generated_Source\PSoC4/CapSense_1_Structure.c ****                 }
1099:Generated_Source\PSoC4/CapSense_1_Structure.c ****             }
1100:Generated_Source\PSoC4/CapSense_1_Structure.c ****         #endif /* (CapSense_1_ENABLE == (CapSense_1_TST_WDGT_CRC_EN || CapSense_1_TST_GLOBAL_CRC_EN
1101:Generated_Source\PSoC4/CapSense_1_Structure.c ****     }
1102:Generated_Source\PSoC4/CapSense_1_Structure.c **** 
1103:Generated_Source\PSoC4/CapSense_1_Structure.c ****     return result;
1104:Generated_Source\PSoC4/CapSense_1_Structure.c **** }
 444              		.loc 1 1104 0
 445 004c 2000     		movs	r0, r4
 446 004e 03B0     		add	sp, sp, #12
 447              		@ sp needed
 448              	.LVL49:
 449 0050 30BD     		pop	{r4, r5, pc}
 450              	.L40:
 451 0052 C046     		.align	2
 452              	.L39:
 453 0054 00000000 		.word	CapSense_1_dsRam
 454              		.cfi_endproc
 455              	.LFE3:
 456              		.size	CapSense_1_SetParam, .-CapSense_1_SetParam
 457              		.section	.text.CapSense_1_IsAnyWidgetActive,"ax",%progbits
 458              		.align	2
 459              		.global	CapSense_1_IsAnyWidgetActive
 460              		.code	16
 461              		.thumb_func
 462              		.type	CapSense_1_IsAnyWidgetActive, %function
 463              	CapSense_1_IsAnyWidgetActive:
 464              	.LFB4:
1105:Generated_Source\PSoC4/CapSense_1_Structure.c **** 
1106:Generated_Source\PSoC4/CapSense_1_Structure.c **** /*******************************************************************************
ARM GAS  C:\Users\Mayur\AppData\Local\Temp\cc8qQOmM.s 			page 29


1107:Generated_Source\PSoC4/CapSense_1_Structure.c **** * Function Name: CapSense_1_IsAnyWidgetActive
1108:Generated_Source\PSoC4/CapSense_1_Structure.c **** ****************************************************************************//**
1109:Generated_Source\PSoC4/CapSense_1_Structure.c **** *
1110:Generated_Source\PSoC4/CapSense_1_Structure.c **** * \brief
1111:Generated_Source\PSoC4/CapSense_1_Structure.c **** *  Reports if any widget has detected a touch.
1112:Generated_Source\PSoC4/CapSense_1_Structure.c **** *
1113:Generated_Source\PSoC4/CapSense_1_Structure.c **** * \details
1114:Generated_Source\PSoC4/CapSense_1_Structure.c **** *  This function reports if any widget has detected a touch or not by extracting
1115:Generated_Source\PSoC4/CapSense_1_Structure.c **** *  information from the wdgtStatus registers
1116:Generated_Source\PSoC4/CapSense_1_Structure.c **** *  (CapSense_1_WDGT_STATUS<X>_VALUE). This function does not process a
1117:Generated_Source\PSoC4/CapSense_1_Structure.c **** *  widget but extracts processed results from the \ref group_structures.
1118:Generated_Source\PSoC4/CapSense_1_Structure.c **** *
1119:Generated_Source\PSoC4/CapSense_1_Structure.c **** * \return
1120:Generated_Source\PSoC4/CapSense_1_Structure.c **** *   Returns the touch detection status of all the widgets:
1121:Generated_Source\PSoC4/CapSense_1_Structure.c **** *     - Zero - No touch is detected in all the widgets or sensors.
1122:Generated_Source\PSoC4/CapSense_1_Structure.c **** *     - Non-zero - At least one widget or sensor detected a touch.
1123:Generated_Source\PSoC4/CapSense_1_Structure.c **** *
1124:Generated_Source\PSoC4/CapSense_1_Structure.c **** *******************************************************************************/
1125:Generated_Source\PSoC4/CapSense_1_Structure.c **** uint32 CapSense_1_IsAnyWidgetActive(void)
1126:Generated_Source\PSoC4/CapSense_1_Structure.c **** {
 465              		.loc 1 1126 0
 466              		.cfi_startproc
 467              		@ args = 0, pretend = 0, frame = 0
 468              		@ frame_needed = 0, uses_anonymous_args = 0
 469              		@ link register save eliminated.
 470              	.LVL50:
1127:Generated_Source\PSoC4/CapSense_1_Structure.c ****     uint32 result = 0Lu;
1128:Generated_Source\PSoC4/CapSense_1_Structure.c ****     uint32 wdWord;
1129:Generated_Source\PSoC4/CapSense_1_Structure.c **** 
1130:Generated_Source\PSoC4/CapSense_1_Structure.c ****     for (wdWord = CapSense_1_WDGT_STATUS_WORDS; wdWord-- > 0u;)
 471              		.loc 1 1130 0
 472 0000 0123     		movs	r3, #1
1127:Generated_Source\PSoC4/CapSense_1_Structure.c ****     uint32 result = 0Lu;
 473              		.loc 1 1127 0
 474 0002 0020     		movs	r0, #0
 475              		.loc 1 1130 0
 476 0004 06E0     		b	.L42
 477              	.LVL51:
 478              	.L43:
1131:Generated_Source\PSoC4/CapSense_1_Structure.c ****     {
1132:Generated_Source\PSoC4/CapSense_1_Structure.c ****         result |= CapSense_1_dsRam.wdgtStatus[wdWord];
 479              		.loc 1 1132 0
 480 0006 131D     		adds	r3, r2, #4
 481 0008 9B00     		lsls	r3, r3, #2
 482 000a 0449     		ldr	r1, .L44
 483 000c CB18     		adds	r3, r1, r3
 484 000e 5B68     		ldr	r3, [r3, #4]
 485 0010 1843     		orrs	r0, r3
 486              	.LVL52:
1130:Generated_Source\PSoC4/CapSense_1_Structure.c ****     {
 487              		.loc 1 1130 0
 488 0012 1300     		movs	r3, r2
 489              	.LVL53:
 490              	.L42:
1130:Generated_Source\PSoC4/CapSense_1_Structure.c ****     {
 491              		.loc 1 1130 0 is_stmt 0 discriminator 1
 492 0014 5A1E     		subs	r2, r3, #1
ARM GAS  C:\Users\Mayur\AppData\Local\Temp\cc8qQOmM.s 			page 30


 493              	.LVL54:
 494 0016 002B     		cmp	r3, #0
 495 0018 F5D1     		bne	.L43
1133:Generated_Source\PSoC4/CapSense_1_Structure.c ****     }
1134:Generated_Source\PSoC4/CapSense_1_Structure.c **** 
1135:Generated_Source\PSoC4/CapSense_1_Structure.c ****     return result;
1136:Generated_Source\PSoC4/CapSense_1_Structure.c **** }
 496              		.loc 1 1136 0 is_stmt 1
 497              		@ sp needed
 498 001a 7047     		bx	lr
 499              	.L45:
 500              		.align	2
 501              	.L44:
 502 001c 00000000 		.word	CapSense_1_dsRam
 503              		.cfi_endproc
 504              	.LFE4:
 505              		.size	CapSense_1_IsAnyWidgetActive, .-CapSense_1_IsAnyWidgetActive
 506              		.section	.text.CapSense_1_IsWidgetActive,"ax",%progbits
 507              		.align	2
 508              		.global	CapSense_1_IsWidgetActive
 509              		.code	16
 510              		.thumb_func
 511              		.type	CapSense_1_IsWidgetActive, %function
 512              	CapSense_1_IsWidgetActive:
 513              	.LFB5:
1137:Generated_Source\PSoC4/CapSense_1_Structure.c **** 
1138:Generated_Source\PSoC4/CapSense_1_Structure.c **** 
1139:Generated_Source\PSoC4/CapSense_1_Structure.c **** /*******************************************************************************
1140:Generated_Source\PSoC4/CapSense_1_Structure.c **** * Function Name: CapSense_1_IsWidgetActive
1141:Generated_Source\PSoC4/CapSense_1_Structure.c **** ****************************************************************************//**
1142:Generated_Source\PSoC4/CapSense_1_Structure.c **** *
1143:Generated_Source\PSoC4/CapSense_1_Structure.c **** * \brief
1144:Generated_Source\PSoC4/CapSense_1_Structure.c **** *  Reports if the specified widget detects a touch on any of its sensors.
1145:Generated_Source\PSoC4/CapSense_1_Structure.c **** *
1146:Generated_Source\PSoC4/CapSense_1_Structure.c **** * \details
1147:Generated_Source\PSoC4/CapSense_1_Structure.c **** *  This function reports if the specified widget has detected a touch or not by
1148:Generated_Source\PSoC4/CapSense_1_Structure.c **** *  extracting information from the wdgtStatus registers
1149:Generated_Source\PSoC4/CapSense_1_Structure.c **** *  (CapSense_1_WDGT_STATUS<X>_VALUE). This function does not process the
1150:Generated_Source\PSoC4/CapSense_1_Structure.c **** *  widget but extracts processed results from the \ref group_structures.
1151:Generated_Source\PSoC4/CapSense_1_Structure.c **** *
1152:Generated_Source\PSoC4/CapSense_1_Structure.c **** * \param widgetId
1153:Generated_Source\PSoC4/CapSense_1_Structure.c **** *  Specifies the ID number of the widget to get its status.
1154:Generated_Source\PSoC4/CapSense_1_Structure.c **** *  A macro for the widget ID can be found in the CapSense_1 Configuration header
1155:Generated_Source\PSoC4/CapSense_1_Structure.c **** *  file defined as CapSense_1_<WidgetName>_WDGT_ID.
1156:Generated_Source\PSoC4/CapSense_1_Structure.c **** *
1157:Generated_Source\PSoC4/CapSense_1_Structure.c **** * \return
1158:Generated_Source\PSoC4/CapSense_1_Structure.c **** *  Returns the touch detection status of the specified widgets:
1159:Generated_Source\PSoC4/CapSense_1_Structure.c **** *    - Zero - No touch is detected in the specified widget or a wrong widgetId
1160:Generated_Source\PSoC4/CapSense_1_Structure.c **** *      is specified.
1161:Generated_Source\PSoC4/CapSense_1_Structure.c **** *    - Non-zero if at least one sensor of the specified widget is active, i.e.
1162:Generated_Source\PSoC4/CapSense_1_Structure.c **** *      a touch is detected.
1163:Generated_Source\PSoC4/CapSense_1_Structure.c **** *
1164:Generated_Source\PSoC4/CapSense_1_Structure.c **** *******************************************************************************/
1165:Generated_Source\PSoC4/CapSense_1_Structure.c **** uint32 CapSense_1_IsWidgetActive(uint32 widgetId)
1166:Generated_Source\PSoC4/CapSense_1_Structure.c **** {
 514              		.loc 1 1166 0
 515              		.cfi_startproc
ARM GAS  C:\Users\Mayur\AppData\Local\Temp\cc8qQOmM.s 			page 31


 516              		@ args = 0, pretend = 0, frame = 0
 517              		@ frame_needed = 0, uses_anonymous_args = 0
 518              		@ link register save eliminated.
 519              	.LVL55:
1167:Generated_Source\PSoC4/CapSense_1_Structure.c ****     uint32 result = 0Lu;
1168:Generated_Source\PSoC4/CapSense_1_Structure.c **** 
1169:Generated_Source\PSoC4/CapSense_1_Structure.c ****     if (widgetId < CapSense_1_TOTAL_WIDGETS)
 520              		.loc 1 1169 0
 521 0000 0728     		cmp	r0, #7
 522 0002 0BD8     		bhi	.L48
1170:Generated_Source\PSoC4/CapSense_1_Structure.c ****     {
1171:Generated_Source\PSoC4/CapSense_1_Structure.c ****         result = CapSense_1_GET_WIDGET_ACTIVE_STATUS(widgetId);
 523              		.loc 1 1171 0
 524 0004 1F23     		movs	r3, #31
 525 0006 0340     		ands	r3, r0
 526 0008 0122     		movs	r2, #1
 527 000a 9A40     		lsls	r2, r2, r3
 528 000c 4009     		lsrs	r0, r0, #5
 529              	.LVL56:
 530 000e 031D     		adds	r3, r0, #4
 531 0010 9B00     		lsls	r3, r3, #2
 532 0012 0348     		ldr	r0, .L49
 533 0014 C318     		adds	r3, r0, r3
 534 0016 5868     		ldr	r0, [r3, #4]
 535 0018 1040     		ands	r0, r2
 536              	.LVL57:
 537 001a 00E0     		b	.L47
 538              	.LVL58:
 539              	.L48:
1167:Generated_Source\PSoC4/CapSense_1_Structure.c ****     uint32 result = 0Lu;
 540              		.loc 1 1167 0
 541 001c 0020     		movs	r0, #0
 542              	.LVL59:
 543              	.L47:
1172:Generated_Source\PSoC4/CapSense_1_Structure.c ****     }
1173:Generated_Source\PSoC4/CapSense_1_Structure.c ****     return result;
1174:Generated_Source\PSoC4/CapSense_1_Structure.c **** }
 544              		.loc 1 1174 0
 545              		@ sp needed
 546 001e 7047     		bx	lr
 547              	.L50:
 548              		.align	2
 549              	.L49:
 550 0020 00000000 		.word	CapSense_1_dsRam
 551              		.cfi_endproc
 552              	.LFE5:
 553              		.size	CapSense_1_IsWidgetActive, .-CapSense_1_IsWidgetActive
 554              		.section	.text.CapSense_1_IsSensorActive,"ax",%progbits
 555              		.align	2
 556              		.global	CapSense_1_IsSensorActive
 557              		.code	16
 558              		.thumb_func
 559              		.type	CapSense_1_IsSensorActive, %function
 560              	CapSense_1_IsSensorActive:
 561              	.LFB6:
1175:Generated_Source\PSoC4/CapSense_1_Structure.c **** 
1176:Generated_Source\PSoC4/CapSense_1_Structure.c **** 
ARM GAS  C:\Users\Mayur\AppData\Local\Temp\cc8qQOmM.s 			page 32


1177:Generated_Source\PSoC4/CapSense_1_Structure.c **** /*******************************************************************************
1178:Generated_Source\PSoC4/CapSense_1_Structure.c **** * Function Name: CapSense_1_IsSensorActive
1179:Generated_Source\PSoC4/CapSense_1_Structure.c **** ****************************************************************************//**
1180:Generated_Source\PSoC4/CapSense_1_Structure.c **** *
1181:Generated_Source\PSoC4/CapSense_1_Structure.c **** * \brief
1182:Generated_Source\PSoC4/CapSense_1_Structure.c **** *  Reports if the specified sensor in the widget detects a touch.
1183:Generated_Source\PSoC4/CapSense_1_Structure.c **** *
1184:Generated_Source\PSoC4/CapSense_1_Structure.c **** * \details
1185:Generated_Source\PSoC4/CapSense_1_Structure.c **** *  This function reports if the specified sensor in the widget has detected a
1186:Generated_Source\PSoC4/CapSense_1_Structure.c **** *  touch or not by extracting information from the wdgtStatus registers
1187:Generated_Source\PSoC4/CapSense_1_Structure.c **** *  (CapSense_1_WDGT_STATUS<X>_VALUE). This function does not process the
1188:Generated_Source\PSoC4/CapSense_1_Structure.c **** *  widget or sensor but extracts processed results from the \ref group_structures.
1189:Generated_Source\PSoC4/CapSense_1_Structure.c **** *
1190:Generated_Source\PSoC4/CapSense_1_Structure.c **** *  For proximity sensors, this function returns the proximity detection status. To
1191:Generated_Source\PSoC4/CapSense_1_Structure.c **** *  get the finger touch status of proximity sensors, use the
1192:Generated_Source\PSoC4/CapSense_1_Structure.c **** *  CapSense_1_IsProximitySensorActive() function.
1193:Generated_Source\PSoC4/CapSense_1_Structure.c **** *
1194:Generated_Source\PSoC4/CapSense_1_Structure.c **** * \param widgetId
1195:Generated_Source\PSoC4/CapSense_1_Structure.c **** *  Specifies the ID number of the widget.
1196:Generated_Source\PSoC4/CapSense_1_Structure.c **** *  A macro for the widget ID can be found in the CapSense_1 Configuration header
1197:Generated_Source\PSoC4/CapSense_1_Structure.c **** *  file defined as CapSense_1_<WidgetName>_WDGT_ID.
1198:Generated_Source\PSoC4/CapSense_1_Structure.c **** 
1199:Generated_Source\PSoC4/CapSense_1_Structure.c **** * \param sensorId
1200:Generated_Source\PSoC4/CapSense_1_Structure.c **** *  Specifies the ID number of the sensor within the widget to get its touch
1201:Generated_Source\PSoC4/CapSense_1_Structure.c **** *  detection status.
1202:Generated_Source\PSoC4/CapSense_1_Structure.c **** *  A macro for the sensor ID within the specified widget can be found in the
1203:Generated_Source\PSoC4/CapSense_1_Structure.c **** *  CapSense_1 Configuration header file defined as
1204:Generated_Source\PSoC4/CapSense_1_Structure.c **** *  CapSense_1_<WidgetName>_SNS<SensorNumber>_ID.
1205:Generated_Source\PSoC4/CapSense_1_Structure.c **** *
1206:Generated_Source\PSoC4/CapSense_1_Structure.c **** * \return
1207:Generated_Source\PSoC4/CapSense_1_Structure.c **** *  Returns the touch detection status of the specified sensor / widget:
1208:Generated_Source\PSoC4/CapSense_1_Structure.c **** *    - Zero if no touch is detected in the specified sensor / widget or a wrong
1209:Generated_Source\PSoC4/CapSense_1_Structure.c **** *      widget ID / sensor ID is specified.
1210:Generated_Source\PSoC4/CapSense_1_Structure.c **** *    - Non-zero if the specified sensor is active i.e. touch is detected. If the
1211:Generated_Source\PSoC4/CapSense_1_Structure.c **** *      specific sensor belongs to a proximity widget, the proximity detection
1212:Generated_Source\PSoC4/CapSense_1_Structure.c **** *      status is returned.
1213:Generated_Source\PSoC4/CapSense_1_Structure.c **** *
1214:Generated_Source\PSoC4/CapSense_1_Structure.c **** *******************************************************************************/
1215:Generated_Source\PSoC4/CapSense_1_Structure.c **** uint32 CapSense_1_IsSensorActive(uint32 widgetId, uint32 sensorId)
1216:Generated_Source\PSoC4/CapSense_1_Structure.c **** {
 562              		.loc 1 1216 0
 563              		.cfi_startproc
 564              		@ args = 0, pretend = 0, frame = 0
 565              		@ frame_needed = 0, uses_anonymous_args = 0
 566              		@ link register save eliminated.
 567              	.LVL60:
1217:Generated_Source\PSoC4/CapSense_1_Structure.c ****     uint32 result = 0Lu;
1218:Generated_Source\PSoC4/CapSense_1_Structure.c **** 
1219:Generated_Source\PSoC4/CapSense_1_Structure.c ****     if ((widgetId < CapSense_1_TOTAL_WIDGETS) &&
 568              		.loc 1 1219 0
 569 0000 0728     		cmp	r0, #7
 570 0002 0CD8     		bhi	.L53
1220:Generated_Source\PSoC4/CapSense_1_Structure.c ****         (sensorId < CapSense_1_GET_SENSOR_COUNT(widgetId)))
 571              		.loc 1 1220 0 discriminator 1
 572 0004 4301     		lsls	r3, r0, #5
 573 0006 084A     		ldr	r2, .L55
 574 0008 D318     		adds	r3, r2, r3
ARM GAS  C:\Users\Mayur\AppData\Local\Temp\cc8qQOmM.s 			page 33


 575 000a 1B8C     		ldrh	r3, [r3, #32]
1219:Generated_Source\PSoC4/CapSense_1_Structure.c ****         (sensorId < CapSense_1_GET_SENSOR_COUNT(widgetId)))
 576              		.loc 1 1219 0 discriminator 1
 577 000c 8B42     		cmp	r3, r1
 578 000e 08D9     		bls	.L54
1221:Generated_Source\PSoC4/CapSense_1_Structure.c ****     {
1222:Generated_Source\PSoC4/CapSense_1_Structure.c ****         #if (CapSense_1_ENABLE == CapSense_1_PROXIMITY_WIDGET_EN)
1223:Generated_Source\PSoC4/CapSense_1_Structure.c ****             if (CapSense_1_WD_PROXIMITY_E ==
1224:Generated_Source\PSoC4/CapSense_1_Structure.c ****                 (CapSense_1_WD_TYPE_ENUM)CapSense_1_dsFlash.wdgtArray[widgetId].wdgtType)
1225:Generated_Source\PSoC4/CapSense_1_Structure.c ****             {
1226:Generated_Source\PSoC4/CapSense_1_Structure.c ****                 sensorId = CapSense_1_PROX_STS_OFFSET(sensorId);
1227:Generated_Source\PSoC4/CapSense_1_Structure.c ****             }
1228:Generated_Source\PSoC4/CapSense_1_Structure.c ****         #endif /* (CapSense_1_ENABLE != CapSense_1_PROXIMITY_WIDGET_EN) */
1229:Generated_Source\PSoC4/CapSense_1_Structure.c ****         result = CapSense_1_dsRam.snsStatus[widgetId] & (1Lu << sensorId);
 579              		.loc 1 1229 0
 580 0010 064B     		ldr	r3, .L55+4
 581 0012 1818     		adds	r0, r3, r0
 582              	.LVL61:
 583 0014 037E     		ldrb	r3, [r0, #24]
 584 0016 0120     		movs	r0, #1
 585 0018 8840     		lsls	r0, r0, r1
 586 001a 1840     		ands	r0, r3
 587              	.LVL62:
 588 001c 02E0     		b	.L52
 589              	.LVL63:
 590              	.L53:
1217:Generated_Source\PSoC4/CapSense_1_Structure.c **** 
 591              		.loc 1 1217 0
 592 001e 0020     		movs	r0, #0
 593              	.LVL64:
 594 0020 00E0     		b	.L52
 595              	.LVL65:
 596              	.L54:
 597 0022 0020     		movs	r0, #0
 598              	.LVL66:
 599              	.L52:
1230:Generated_Source\PSoC4/CapSense_1_Structure.c ****     }
1231:Generated_Source\PSoC4/CapSense_1_Structure.c **** 
1232:Generated_Source\PSoC4/CapSense_1_Structure.c ****     return result;
1233:Generated_Source\PSoC4/CapSense_1_Structure.c **** }
 600              		.loc 1 1233 0
 601              		@ sp needed
 602 0024 7047     		bx	lr
 603              	.L56:
 604 0026 C046     		.align	2
 605              	.L55:
 606 0028 00000000 		.word	.LANCHOR0
 607 002c 00000000 		.word	CapSense_1_dsRam
 608              		.cfi_endproc
 609              	.LFE6:
 610              		.size	CapSense_1_IsSensorActive, .-CapSense_1_IsSensorActive
 611              		.global	CapSense_1_ramIdacInit
 612              		.global	CapSense_1_ramWidgetInit
 613              		.global	CapSense_1_ioList
 614              		.global	CapSense_1_dsFlash
 615              		.comm	CapSense_1_dsRam,268,4
 616              		.section	.rodata
ARM GAS  C:\Users\Mayur\AppData\Local\Temp\cc8qQOmM.s 			page 34


 617              		.align	2
 618              		.set	.LANCHOR0,. + 0
 619              		.set	.LANCHOR1,. + 256
 620              		.type	CapSense_1_ramIdacInit, %object
 621              		.size	CapSense_1_ramIdacInit, 8
 622              	CapSense_1_ramIdacInit:
 623 0000 20       		.byte	32
 624 0001 20       		.byte	32
 625 0002 20       		.byte	32
 626 0003 20       		.byte	32
 627 0004 20       		.byte	32
 628 0005 20       		.byte	32
 629 0006 20       		.byte	32
 630 0007 20       		.byte	32
 631              		.type	CapSense_1_dsFlash, %object
 632              		.size	CapSense_1_dsFlash, 256
 633              	CapSense_1_dsFlash:
 634 0008 00000000 		.word	CapSense_1_ioList
 635 000c 24000000 		.word	CapSense_1_dsRam+36
 636 0010 B4000000 		.word	CapSense_1_dsRam+180
 637 0014 54000000 		.word	CapSense_1_fltrHistoryButton0
 638 0018 DC000000 		.word	CapSense_1_debounceButton0
 639 001c 01280000 		.word	10241
 640 0020 0100     		.short	1
 641 0022 01       		.byte	1
 642 0023 01       		.byte	1
 643 0024 B4000000 		.word	CapSense_1_noiseEnvlpButton0
 644 0028 1C000000 		.word	CapSense_1_ioList+28
 645 002c 36000000 		.word	CapSense_1_dsRam+54
 646 0030 BE000000 		.word	CapSense_1_dsRam+190
 647 0034 48000000 		.word	CapSense_1_fltrHistoryButton1
 648 0038 D8000000 		.word	CapSense_1_debounceButton1
 649 003c 01280000 		.word	10241
 650 0040 0100     		.short	1
 651 0042 01       		.byte	1
 652 0043 01       		.byte	1
 653 0044 A8000000 		.word	CapSense_1_noiseEnvlpButton1
 654 0048 38000000 		.word	CapSense_1_ioList+56
 655 004c 48000000 		.word	CapSense_1_dsRam+72
 656 0050 C8000000 		.word	CapSense_1_dsRam+200
 657 0054 3C000000 		.word	CapSense_1_fltrHistoryButton2
 658 0058 D4000000 		.word	CapSense_1_debounceButton2
 659 005c 01280000 		.word	10241
 660 0060 0100     		.short	1
 661 0062 01       		.byte	1
 662 0063 01       		.byte	1
 663 0064 9C000000 		.word	CapSense_1_noiseEnvlpButton2
 664 0068 54000000 		.word	CapSense_1_ioList+84
 665 006c 5A000000 		.word	CapSense_1_dsRam+90
 666 0070 D2000000 		.word	CapSense_1_dsRam+210
 667 0074 30000000 		.word	CapSense_1_fltrHistoryButton3
 668 0078 D0000000 		.word	CapSense_1_debounceButton3
 669 007c 01280000 		.word	10241
 670 0080 0100     		.short	1
 671 0082 01       		.byte	1
 672 0083 01       		.byte	1
 673 0084 90000000 		.word	CapSense_1_noiseEnvlpButton3
ARM GAS  C:\Users\Mayur\AppData\Local\Temp\cc8qQOmM.s 			page 35


 674 0088 70000000 		.word	CapSense_1_ioList+112
 675 008c 6C000000 		.word	CapSense_1_dsRam+108
 676 0090 DC000000 		.word	CapSense_1_dsRam+220
 677 0094 24000000 		.word	CapSense_1_fltrHistoryButton5
 678 0098 CC000000 		.word	CapSense_1_debounceButton5
 679 009c 01280000 		.word	10241
 680 00a0 0100     		.short	1
 681 00a2 01       		.byte	1
 682 00a3 01       		.byte	1
 683 00a4 84000000 		.word	CapSense_1_noiseEnvlpButton5
 684 00a8 8C000000 		.word	CapSense_1_ioList+140
 685 00ac 7E000000 		.word	CapSense_1_dsRam+126
 686 00b0 E6000000 		.word	CapSense_1_dsRam+230
 687 00b4 18000000 		.word	CapSense_1_fltrHistoryButton6
 688 00b8 C8000000 		.word	CapSense_1_debounceButton6
 689 00bc 01280000 		.word	10241
 690 00c0 0100     		.short	1
 691 00c2 01       		.byte	1
 692 00c3 01       		.byte	1
 693 00c4 78000000 		.word	CapSense_1_noiseEnvlpButton6
 694 00c8 A8000000 		.word	CapSense_1_ioList+168
 695 00cc 90000000 		.word	CapSense_1_dsRam+144
 696 00d0 F0000000 		.word	CapSense_1_dsRam+240
 697 00d4 0C000000 		.word	CapSense_1_fltrHistoryButton4
 698 00d8 C4000000 		.word	CapSense_1_debounceButton4
 699 00dc 01280000 		.word	10241
 700 00e0 0100     		.short	1
 701 00e2 01       		.byte	1
 702 00e3 01       		.byte	1
 703 00e4 6C000000 		.word	CapSense_1_noiseEnvlpButton4
 704 00e8 C4000000 		.word	CapSense_1_ioList+196
 705 00ec A2000000 		.word	CapSense_1_dsRam+162
 706 00f0 FA000000 		.word	CapSense_1_dsRam+250
 707 00f4 00000000 		.word	CapSense_1_fltrHistoryButton7
 708 00f8 C0000000 		.word	CapSense_1_debounceButton7
 709 00fc 01280000 		.word	10241
 710 0100 0100     		.short	1
 711 0102 01       		.byte	1
 712 0103 01       		.byte	1
 713 0104 60000000 		.word	CapSense_1_noiseEnvlpButton7
 714              		.type	CapSense_1_ramWidgetInit, %object
 715              		.size	CapSense_1_ramWidgetInit, 144
 716              	CapSense_1_ramWidgetInit:
 717 0108 0C00     		.short	12
 718 010a 6400     		.short	100
 719 010c 28       		.byte	40
 720 010d 28       		.byte	40
 721 010e 0A       		.byte	10
 722 010f 03       		.byte	3
 723 0110 1E       		.byte	30
 724 0111 20       		.byte	32
 725 0112 0400     		.short	4
 726 0114 00       		.byte	0
 727 0115 00       		.space	1
 728 0116 A000     		.short	160
 729 0118 0000     		.short	0
 730 011a 0C00     		.short	12
ARM GAS  C:\Users\Mayur\AppData\Local\Temp\cc8qQOmM.s 			page 36


 731 011c 6400     		.short	100
 732 011e 28       		.byte	40
 733 011f 28       		.byte	40
 734 0120 0A       		.byte	10
 735 0121 03       		.byte	3
 736 0122 1E       		.byte	30
 737 0123 20       		.byte	32
 738 0124 0400     		.short	4
 739 0126 00       		.byte	0
 740 0127 00       		.space	1
 741 0128 A000     		.short	160
 742 012a 0000     		.short	0
 743 012c 0C00     		.short	12
 744 012e 6400     		.short	100
 745 0130 28       		.byte	40
 746 0131 28       		.byte	40
 747 0132 0A       		.byte	10
 748 0133 03       		.byte	3
 749 0134 1E       		.byte	30
 750 0135 20       		.byte	32
 751 0136 0400     		.short	4
 752 0138 00       		.byte	0
 753 0139 00       		.space	1
 754 013a A000     		.short	160
 755 013c 0000     		.short	0
 756 013e 0C00     		.short	12
 757 0140 6400     		.short	100
 758 0142 28       		.byte	40
 759 0143 28       		.byte	40
 760 0144 0A       		.byte	10
 761 0145 03       		.byte	3
 762 0146 1E       		.byte	30
 763 0147 20       		.byte	32
 764 0148 0400     		.short	4
 765 014a 00       		.byte	0
 766 014b 00       		.space	1
 767 014c A000     		.short	160
 768 014e 0000     		.short	0
 769 0150 0C00     		.short	12
 770 0152 6400     		.short	100
 771 0154 28       		.byte	40
 772 0155 28       		.byte	40
 773 0156 0A       		.byte	10
 774 0157 03       		.byte	3
 775 0158 1E       		.byte	30
 776 0159 20       		.byte	32
 777 015a 0400     		.short	4
 778 015c 00       		.byte	0
 779 015d 00       		.space	1
 780 015e A000     		.short	160
 781 0160 0000     		.short	0
 782 0162 0C00     		.short	12
 783 0164 6400     		.short	100
 784 0166 28       		.byte	40
 785 0167 28       		.byte	40
 786 0168 0A       		.byte	10
 787 0169 03       		.byte	3
ARM GAS  C:\Users\Mayur\AppData\Local\Temp\cc8qQOmM.s 			page 37


 788 016a 1E       		.byte	30
 789 016b 20       		.byte	32
 790 016c 0400     		.short	4
 791 016e 00       		.byte	0
 792 016f 00       		.space	1
 793 0170 A000     		.short	160
 794 0172 0000     		.short	0
 795 0174 0C00     		.short	12
 796 0176 6400     		.short	100
 797 0178 28       		.byte	40
 798 0179 28       		.byte	40
 799 017a 0A       		.byte	10
 800 017b 03       		.byte	3
 801 017c 1E       		.byte	30
 802 017d 20       		.byte	32
 803 017e 0400     		.short	4
 804 0180 00       		.byte	0
 805 0181 00       		.space	1
 806 0182 A000     		.short	160
 807 0184 0000     		.short	0
 808 0186 0C00     		.short	12
 809 0188 6400     		.short	100
 810 018a 28       		.byte	40
 811 018b 28       		.byte	40
 812 018c 0A       		.byte	10
 813 018d 03       		.byte	3
 814 018e 1E       		.byte	30
 815 018f 20       		.byte	32
 816 0190 0400     		.short	4
 817 0192 00       		.byte	0
 818 0193 00       		.space	1
 819 0194 A000     		.short	160
 820 0196 0000     		.short	0
 821              		.type	CapSense_1_ioList, %object
 822              		.size	CapSense_1_ioList, 224
 823              	CapSense_1_ioList:
 824 0198 08000140 		.word	1073807368
 825 019c 08020440 		.word	1074004488
 826 01a0 00020440 		.word	1074004480
 827 01a4 04020440 		.word	1074004484
 828 01a8 000F0000 		.word	3840
 829 01ac 04000000 		.word	4
 830 01b0 08       		.byte	8
 831 01b1 02       		.byte	2
 832 01b2 06       		.byte	6
 833 01b3 00       		.space	1
 834 01b4 10000140 		.word	1073807376
 835 01b8 08040440 		.word	1074005000
 836 01bc 00040440 		.word	1074004992
 837 01c0 04040440 		.word	1074004996
 838 01c4 F0000000 		.word	240
 839 01c8 02000000 		.word	2
 840 01cc 04       		.byte	4
 841 01cd 01       		.byte	1
 842 01ce 03       		.byte	3
 843 01cf 00       		.space	1
 844 01d0 08000140 		.word	1073807368
ARM GAS  C:\Users\Mayur\AppData\Local\Temp\cc8qQOmM.s 			page 38


 845 01d4 08020440 		.word	1074004488
 846 01d8 00020440 		.word	1074004480
 847 01dc 04020440 		.word	1074004484
 848 01e0 00F00000 		.word	61440
 849 01e4 08000000 		.word	8
 850 01e8 0C       		.byte	12
 851 01e9 03       		.byte	3
 852 01ea 09       		.byte	9
 853 01eb 00       		.space	1
 854 01ec 10000140 		.word	1073807376
 855 01f0 08040440 		.word	1074005000
 856 01f4 00040440 		.word	1074004992
 857 01f8 04040440 		.word	1074004996
 858 01fc 00F00000 		.word	61440
 859 0200 08000000 		.word	8
 860 0204 0C       		.byte	12
 861 0205 03       		.byte	3
 862 0206 09       		.byte	9
 863 0207 00       		.space	1
 864 0208 08000140 		.word	1073807368
 865 020c 08020440 		.word	1074004488
 866 0210 00020440 		.word	1074004480
 867 0214 04020440 		.word	1074004484
 868 0218 0F000000 		.word	15
 869 021c 01000000 		.word	1
 870 0220 00       		.byte	0
 871 0221 00       		.byte	0
 872 0222 00       		.byte	0
 873 0223 00       		.space	1
 874 0224 00000140 		.word	1073807360
 875 0228 08000440 		.word	1074003976
 876 022c 00000440 		.word	1074003968
 877 0230 04000440 		.word	1074003972
 878 0234 0000F000 		.word	15728640
 879 0238 20000000 		.word	32
 880 023c 14       		.byte	20
 881 023d 05       		.byte	5
 882 023e 0F       		.byte	15
 883 023f 00       		.space	1
 884 0240 00000140 		.word	1073807360
 885 0244 08000440 		.word	1074003976
 886 0248 00000440 		.word	1074003968
 887 024c 04000440 		.word	1074003972
 888 0250 00000F00 		.word	983040
 889 0254 10000000 		.word	16
 890 0258 10       		.byte	16
 891 0259 04       		.byte	4
 892 025a 0C       		.byte	12
 893 025b 00       		.space	1
 894 025c 08000140 		.word	1073807368
 895 0260 08020440 		.word	1074004488
 896 0264 00020440 		.word	1074004480
 897 0268 04020440 		.word	1074004484
 898 026c F0000000 		.word	240
 899 0270 02000000 		.word	2
 900 0274 04       		.byte	4
 901 0275 01       		.byte	1
ARM GAS  C:\Users\Mayur\AppData\Local\Temp\cc8qQOmM.s 			page 39


 902 0276 03       		.byte	3
 903 0277 00       		.space	1
 904              		.bss
 905              		.align	2
 906              		.type	CapSense_1_fltrHistoryButton7, %object
 907              		.size	CapSense_1_fltrHistoryButton7, 12
 908              	CapSense_1_fltrHistoryButton7:
 909 0000 00000000 		.space	12
 909      00000000 
 909      00000000 
 910              		.type	CapSense_1_fltrHistoryButton4, %object
 911              		.size	CapSense_1_fltrHistoryButton4, 12
 912              	CapSense_1_fltrHistoryButton4:
 913 000c 00000000 		.space	12
 913      00000000 
 913      00000000 
 914              		.type	CapSense_1_fltrHistoryButton6, %object
 915              		.size	CapSense_1_fltrHistoryButton6, 12
 916              	CapSense_1_fltrHistoryButton6:
 917 0018 00000000 		.space	12
 917      00000000 
 917      00000000 
 918              		.type	CapSense_1_fltrHistoryButton5, %object
 919              		.size	CapSense_1_fltrHistoryButton5, 12
 920              	CapSense_1_fltrHistoryButton5:
 921 0024 00000000 		.space	12
 921      00000000 
 921      00000000 
 922              		.type	CapSense_1_fltrHistoryButton3, %object
 923              		.size	CapSense_1_fltrHistoryButton3, 12
 924              	CapSense_1_fltrHistoryButton3:
 925 0030 00000000 		.space	12
 925      00000000 
 925      00000000 
 926              		.type	CapSense_1_fltrHistoryButton2, %object
 927              		.size	CapSense_1_fltrHistoryButton2, 12
 928              	CapSense_1_fltrHistoryButton2:
 929 003c 00000000 		.space	12
 929      00000000 
 929      00000000 
 930              		.type	CapSense_1_fltrHistoryButton1, %object
 931              		.size	CapSense_1_fltrHistoryButton1, 12
 932              	CapSense_1_fltrHistoryButton1:
 933 0048 00000000 		.space	12
 933      00000000 
 933      00000000 
 934              		.type	CapSense_1_fltrHistoryButton0, %object
 935              		.size	CapSense_1_fltrHistoryButton0, 12
 936              	CapSense_1_fltrHistoryButton0:
 937 0054 00000000 		.space	12
 937      00000000 
 937      00000000 
 938              		.type	CapSense_1_noiseEnvlpButton7, %object
 939              		.size	CapSense_1_noiseEnvlpButton7, 12
 940              	CapSense_1_noiseEnvlpButton7:
 941 0060 00000000 		.space	12
 941      00000000 
ARM GAS  C:\Users\Mayur\AppData\Local\Temp\cc8qQOmM.s 			page 40


 941      00000000 
 942              		.type	CapSense_1_noiseEnvlpButton4, %object
 943              		.size	CapSense_1_noiseEnvlpButton4, 12
 944              	CapSense_1_noiseEnvlpButton4:
 945 006c 00000000 		.space	12
 945      00000000 
 945      00000000 
 946              		.type	CapSense_1_noiseEnvlpButton6, %object
 947              		.size	CapSense_1_noiseEnvlpButton6, 12
 948              	CapSense_1_noiseEnvlpButton6:
 949 0078 00000000 		.space	12
 949      00000000 
 949      00000000 
 950              		.type	CapSense_1_noiseEnvlpButton5, %object
 951              		.size	CapSense_1_noiseEnvlpButton5, 12
 952              	CapSense_1_noiseEnvlpButton5:
 953 0084 00000000 		.space	12
 953      00000000 
 953      00000000 
 954              		.type	CapSense_1_noiseEnvlpButton3, %object
 955              		.size	CapSense_1_noiseEnvlpButton3, 12
 956              	CapSense_1_noiseEnvlpButton3:
 957 0090 00000000 		.space	12
 957      00000000 
 957      00000000 
 958              		.type	CapSense_1_noiseEnvlpButton2, %object
 959              		.size	CapSense_1_noiseEnvlpButton2, 12
 960              	CapSense_1_noiseEnvlpButton2:
 961 009c 00000000 		.space	12
 961      00000000 
 961      00000000 
 962              		.type	CapSense_1_noiseEnvlpButton1, %object
 963              		.size	CapSense_1_noiseEnvlpButton1, 12
 964              	CapSense_1_noiseEnvlpButton1:
 965 00a8 00000000 		.space	12
 965      00000000 
 965      00000000 
 966              		.type	CapSense_1_noiseEnvlpButton0, %object
 967              		.size	CapSense_1_noiseEnvlpButton0, 12
 968              	CapSense_1_noiseEnvlpButton0:
 969 00b4 00000000 		.space	12
 969      00000000 
 969      00000000 
 970              		.type	CapSense_1_debounceButton7, %object
 971              		.size	CapSense_1_debounceButton7, 1
 972              	CapSense_1_debounceButton7:
 973 00c0 00       		.space	1
 974 00c1 000000   		.space	3
 975              		.type	CapSense_1_debounceButton4, %object
 976              		.size	CapSense_1_debounceButton4, 1
 977              	CapSense_1_debounceButton4:
 978 00c4 00       		.space	1
 979 00c5 000000   		.space	3
 980              		.type	CapSense_1_debounceButton6, %object
 981              		.size	CapSense_1_debounceButton6, 1
 982              	CapSense_1_debounceButton6:
 983 00c8 00       		.space	1
ARM GAS  C:\Users\Mayur\AppData\Local\Temp\cc8qQOmM.s 			page 41


 984 00c9 000000   		.space	3
 985              		.type	CapSense_1_debounceButton5, %object
 986              		.size	CapSense_1_debounceButton5, 1
 987              	CapSense_1_debounceButton5:
 988 00cc 00       		.space	1
 989 00cd 000000   		.space	3
 990              		.type	CapSense_1_debounceButton3, %object
 991              		.size	CapSense_1_debounceButton3, 1
 992              	CapSense_1_debounceButton3:
 993 00d0 00       		.space	1
 994 00d1 000000   		.space	3
 995              		.type	CapSense_1_debounceButton2, %object
 996              		.size	CapSense_1_debounceButton2, 1
 997              	CapSense_1_debounceButton2:
 998 00d4 00       		.space	1
 999 00d5 000000   		.space	3
 1000              		.type	CapSense_1_debounceButton1, %object
 1001              		.size	CapSense_1_debounceButton1, 1
 1002              	CapSense_1_debounceButton1:
 1003 00d8 00       		.space	1
 1004 00d9 000000   		.space	3
 1005              		.type	CapSense_1_debounceButton0, %object
 1006              		.size	CapSense_1_debounceButton0, 1
 1007              	CapSense_1_debounceButton0:
 1008 00dc 00       		.space	1
 1009              		.text
 1010              	.Letext0:
 1011              		.file 2 "Generated_Source\\PSoC4/cytypes.h"
 1012              		.file 3 "Generated_Source\\PSoC4\\CapSense_1_Configuration.h"
 1013              		.file 4 "Generated_Source\\PSoC4\\CapSense_1_SmartSense_LL.h"
 1014              		.file 5 "Generated_Source\\PSoC4\\CapSense_1_Structure.h"
 1015              		.file 6 "Generated_Source\\PSoC4\\CyLib.h"