ARM GAS  C:\Users\Mayur\AppData\Local\Temp\ccxZLytu.s 			page 1


   1              		.syntax unified
   2              		.cpu cortex-m0
   3              		.fpu softvfp
   4              		.eabi_attribute 20, 1
   5              		.eabi_attribute 21, 1
   6              		.eabi_attribute 23, 3
   7              		.eabi_attribute 24, 1
   8              		.eabi_attribute 25, 1
   9              		.eabi_attribute 26, 1
  10              		.eabi_attribute 30, 1
  11              		.eabi_attribute 34, 0
  12              		.eabi_attribute 18, 4
  13              		.thumb
  14              		.syntax unified
  15              		.file	"CapSense_1_Filter.c"
  16              		.text
  17              	.Ltext0:
  18              		.cfi_sections	.debug_frame
  19              		.section	.text.CapSense_1_FtInitializeBaselineChannel,"ax",%progbits
  20              		.align	2
  21              		.global	CapSense_1_FtInitializeBaselineChannel
  22              		.code	16
  23              		.thumb_func
  24              		.type	CapSense_1_FtInitializeBaselineChannel, %function
  25              	CapSense_1_FtInitializeBaselineChannel:
  26              	.LFB9:
  27              		.file 1 "Generated_Source\\PSoC4\\CapSense_1_Filter.c"
   1:Generated_Source\PSoC4/CapSense_1_Filter.c **** /***************************************************************************//**
   2:Generated_Source\PSoC4/CapSense_1_Filter.c **** * \file CapSense_1_Filter.c
   3:Generated_Source\PSoC4/CapSense_1_Filter.c **** * \version 6.0
   4:Generated_Source\PSoC4/CapSense_1_Filter.c **** *
   5:Generated_Source\PSoC4/CapSense_1_Filter.c **** * \brief
   6:Generated_Source\PSoC4/CapSense_1_Filter.c **** *   This file contains the implementation source code to implement all
   7:Generated_Source\PSoC4/CapSense_1_Filter.c **** *   firmware filters.
   8:Generated_Source\PSoC4/CapSense_1_Filter.c **** *
   9:Generated_Source\PSoC4/CapSense_1_Filter.c **** * \see CapSense_1 v6.0 Datasheet
  10:Generated_Source\PSoC4/CapSense_1_Filter.c **** *
  11:Generated_Source\PSoC4/CapSense_1_Filter.c **** *//*****************************************************************************
  12:Generated_Source\PSoC4/CapSense_1_Filter.c **** * Copyright (2016-2018), Cypress Semiconductor Corporation.
  13:Generated_Source\PSoC4/CapSense_1_Filter.c **** ********************************************************************************
  14:Generated_Source\PSoC4/CapSense_1_Filter.c **** * This software is owned by Cypress Semiconductor Corporation (Cypress) and is
  15:Generated_Source\PSoC4/CapSense_1_Filter.c **** * protected by and subject to worldwide patent protection (United States and
  16:Generated_Source\PSoC4/CapSense_1_Filter.c **** * foreign), United States copyright laws and international treaty provisions.
  17:Generated_Source\PSoC4/CapSense_1_Filter.c **** * Cypress hereby grants to licensee a personal, non-exclusive, non-transferable
  18:Generated_Source\PSoC4/CapSense_1_Filter.c **** * license to copy, use, modify, create derivative works of, and compile the
  19:Generated_Source\PSoC4/CapSense_1_Filter.c **** * Cypress Source Code and derivative works for the sole purpose of creating
  20:Generated_Source\PSoC4/CapSense_1_Filter.c **** * custom software in support of licensee product to be used only in conjunction
  21:Generated_Source\PSoC4/CapSense_1_Filter.c **** * with a Cypress integrated circuit as specified in the applicable agreement.
  22:Generated_Source\PSoC4/CapSense_1_Filter.c **** * Any reproduction, modification, translation, compilation, or representation of
  23:Generated_Source\PSoC4/CapSense_1_Filter.c **** * this software except as specified above is prohibited without the express
  24:Generated_Source\PSoC4/CapSense_1_Filter.c **** * written permission of Cypress.
  25:Generated_Source\PSoC4/CapSense_1_Filter.c **** *
  26:Generated_Source\PSoC4/CapSense_1_Filter.c **** * Disclaimer: CYPRESS MAKES NO WARRANTY OF ANY KIND, EXPRESS OR IMPLIED, WITH
  27:Generated_Source\PSoC4/CapSense_1_Filter.c **** * REGARD TO THIS MATERIAL, INCLUDING, BUT NOT LIMITED TO, THE IMPLIED
  28:Generated_Source\PSoC4/CapSense_1_Filter.c **** * WARRANTIES OF MERCHANTABILITY AND FITNESS FOR A PARTICULAR PURPOSE.
  29:Generated_Source\PSoC4/CapSense_1_Filter.c **** * Cypress reserves the right to make changes without further notice to the
  30:Generated_Source\PSoC4/CapSense_1_Filter.c **** * materials described herein. Cypress does not assume any liability arising out
ARM GAS  C:\Users\Mayur\AppData\Local\Temp\ccxZLytu.s 			page 2


  31:Generated_Source\PSoC4/CapSense_1_Filter.c **** * of the application or use of any product or circuit described herein. Cypress
  32:Generated_Source\PSoC4/CapSense_1_Filter.c **** * does not authorize its products for use as critical components in life-support
  33:Generated_Source\PSoC4/CapSense_1_Filter.c **** * systems where a malfunction or failure may reasonably be expected to result in
  34:Generated_Source\PSoC4/CapSense_1_Filter.c **** * significant injury to the user. The inclusion of Cypress' product in a life-
  35:Generated_Source\PSoC4/CapSense_1_Filter.c **** * support systems application implies that the manufacturer assumes all risk of
  36:Generated_Source\PSoC4/CapSense_1_Filter.c **** * such use and in doing so indemnifies Cypress against all charges. Use may be
  37:Generated_Source\PSoC4/CapSense_1_Filter.c **** * limited by and subject to the applicable Cypress software license agreement.
  38:Generated_Source\PSoC4/CapSense_1_Filter.c **** *******************************************************************************/
  39:Generated_Source\PSoC4/CapSense_1_Filter.c **** 
  40:Generated_Source\PSoC4/CapSense_1_Filter.c **** #include "CapSense_1_Filter.h"
  41:Generated_Source\PSoC4/CapSense_1_Filter.c **** #include "CapSense_1_Configuration.h"
  42:Generated_Source\PSoC4/CapSense_1_Filter.c **** 
  43:Generated_Source\PSoC4/CapSense_1_Filter.c **** #if (0 != (CapSense_1_CSD_AUTOTUNE & CapSense_1_CSD_SS_TH_EN))
  44:Generated_Source\PSoC4/CapSense_1_Filter.c ****     #include "CapSense_1_SmartSense_LL.h"
  45:Generated_Source\PSoC4/CapSense_1_Filter.c **** #endif /* (0 != (CapSense_1_CSD_AUTOTUNE & CapSense_1_CSD_SS_TH_EN)) */
  46:Generated_Source\PSoC4/CapSense_1_Filter.c **** 
  47:Generated_Source\PSoC4/CapSense_1_Filter.c **** #if (CapSense_1_ENABLE == CapSense_1_SELF_TEST_EN)
  48:Generated_Source\PSoC4/CapSense_1_Filter.c ****     #include "CapSense_1_SelfTest.h"
  49:Generated_Source\PSoC4/CapSense_1_Filter.c **** #endif
  50:Generated_Source\PSoC4/CapSense_1_Filter.c **** 
  51:Generated_Source\PSoC4/CapSense_1_Filter.c **** /*******************************************************************************
  52:Generated_Source\PSoC4/CapSense_1_Filter.c **** * Function Name: CapSense_1_FtInitialize
  53:Generated_Source\PSoC4/CapSense_1_Filter.c **** ****************************************************************************//**
  54:Generated_Source\PSoC4/CapSense_1_Filter.c **** *
  55:Generated_Source\PSoC4/CapSense_1_Filter.c **** * \brief
  56:Generated_Source\PSoC4/CapSense_1_Filter.c **** *  Initializes all the firmware filter history, except the baseline filter.
  57:Generated_Source\PSoC4/CapSense_1_Filter.c **** *
  58:Generated_Source\PSoC4/CapSense_1_Filter.c **** * \details
  59:Generated_Source\PSoC4/CapSense_1_Filter.c **** *  Initializes all the firmware filter history, except the baseline filter.
  60:Generated_Source\PSoC4/CapSense_1_Filter.c **** *
  61:Generated_Source\PSoC4/CapSense_1_Filter.c **** *******************************************************************************/
  62:Generated_Source\PSoC4/CapSense_1_Filter.c **** void CapSense_1_FtInitialize(void)
  63:Generated_Source\PSoC4/CapSense_1_Filter.c **** {
  64:Generated_Source\PSoC4/CapSense_1_Filter.c ****     #if ((CapSense_1_ENABLE == CapSense_1_RC_FILTER_EN) || \
  65:Generated_Source\PSoC4/CapSense_1_Filter.c ****          (0u != (CapSense_1_CSD_AUTOTUNE & CapSense_1_CSD_SS_TH_EN)))
  66:Generated_Source\PSoC4/CapSense_1_Filter.c ****         CapSense_1_InitializeAllFilters();
  67:Generated_Source\PSoC4/CapSense_1_Filter.c ****     #endif /* ((CapSense_1_ENABLE == CapSense_1_RC_FILTER_EN) || \
  68:Generated_Source\PSoC4/CapSense_1_Filter.c ****                (0u != (CapSense_1_CSD_AUTOTUNE & CapSense_1_CSD_SS_TH_EN))) */
  69:Generated_Source\PSoC4/CapSense_1_Filter.c **** }
  70:Generated_Source\PSoC4/CapSense_1_Filter.c **** 
  71:Generated_Source\PSoC4/CapSense_1_Filter.c **** 
  72:Generated_Source\PSoC4/CapSense_1_Filter.c **** /*******************************************************************************
  73:Generated_Source\PSoC4/CapSense_1_Filter.c **** * Function Name: CapSense_1_UpdateAllBaselines
  74:Generated_Source\PSoC4/CapSense_1_Filter.c **** ****************************************************************************//**
  75:Generated_Source\PSoC4/CapSense_1_Filter.c **** *
  76:Generated_Source\PSoC4/CapSense_1_Filter.c **** * \brief
  77:Generated_Source\PSoC4/CapSense_1_Filter.c **** *  Updates the baseline for all the sensors in all the widgets.
  78:Generated_Source\PSoC4/CapSense_1_Filter.c **** *
  79:Generated_Source\PSoC4/CapSense_1_Filter.c **** * \details
  80:Generated_Source\PSoC4/CapSense_1_Filter.c **** *  Updates the baseline for all the sensors in all the widgets. Baseline updating is a
  81:Generated_Source\PSoC4/CapSense_1_Filter.c **** *  part of data processing performed by the process functions. So, no need to
  82:Generated_Source\PSoC4/CapSense_1_Filter.c **** *  call this function except a specific process flow is implemented.
  83:Generated_Source\PSoC4/CapSense_1_Filter.c **** *
  84:Generated_Source\PSoC4/CapSense_1_Filter.c **** *  This function ignores the value of the wdgtEnable register. Multiple calling
  85:Generated_Source\PSoC4/CapSense_1_Filter.c **** *  of this function (or any other function with a baseline updating task)
  86:Generated_Source\PSoC4/CapSense_1_Filter.c **** *  without scanning leads to unexpected behavior.
  87:Generated_Source\PSoC4/CapSense_1_Filter.c **** *
ARM GAS  C:\Users\Mayur\AppData\Local\Temp\ccxZLytu.s 			page 3


  88:Generated_Source\PSoC4/CapSense_1_Filter.c **** *  If the Self-test library is enabled, this function executes the baseline duplication
  89:Generated_Source\PSoC4/CapSense_1_Filter.c **** *  test. Refer to CapSense_1_CheckBaselineDuplication() for details.
  90:Generated_Source\PSoC4/CapSense_1_Filter.c **** *
  91:Generated_Source\PSoC4/CapSense_1_Filter.c **** * \return
  92:Generated_Source\PSoC4/CapSense_1_Filter.c **** *  Returns the status of the update baseline operation of all the widgets:
  93:Generated_Source\PSoC4/CapSense_1_Filter.c **** *  - CYRET_SUCCESS - The operation is successfully completed.
  94:Generated_Source\PSoC4/CapSense_1_Filter.c **** *  - CYRET_BAD_DATA - The baseline processing failed.
  95:Generated_Source\PSoC4/CapSense_1_Filter.c **** *
  96:Generated_Source\PSoC4/CapSense_1_Filter.c **** *******************************************************************************/
  97:Generated_Source\PSoC4/CapSense_1_Filter.c **** cystatus CapSense_1_UpdateAllBaselines(void)
  98:Generated_Source\PSoC4/CapSense_1_Filter.c **** {
  99:Generated_Source\PSoC4/CapSense_1_Filter.c ****     uint32 widgetId;
 100:Generated_Source\PSoC4/CapSense_1_Filter.c ****     cystatus bslnStatus = CYRET_SUCCESS;
 101:Generated_Source\PSoC4/CapSense_1_Filter.c **** 
 102:Generated_Source\PSoC4/CapSense_1_Filter.c ****     for(widgetId = CapSense_1_TOTAL_WIDGETS; widgetId-- > 0u;)
 103:Generated_Source\PSoC4/CapSense_1_Filter.c ****     {
 104:Generated_Source\PSoC4/CapSense_1_Filter.c ****         bslnStatus |= CapSense_1_UpdateWidgetBaseline(widgetId);
 105:Generated_Source\PSoC4/CapSense_1_Filter.c ****     }
 106:Generated_Source\PSoC4/CapSense_1_Filter.c **** 
 107:Generated_Source\PSoC4/CapSense_1_Filter.c ****     return(bslnStatus);
 108:Generated_Source\PSoC4/CapSense_1_Filter.c **** }
 109:Generated_Source\PSoC4/CapSense_1_Filter.c **** 
 110:Generated_Source\PSoC4/CapSense_1_Filter.c **** 
 111:Generated_Source\PSoC4/CapSense_1_Filter.c **** /*******************************************************************************
 112:Generated_Source\PSoC4/CapSense_1_Filter.c **** * Function Name: CapSense_1_UpdateWidgetBaseline
 113:Generated_Source\PSoC4/CapSense_1_Filter.c **** ****************************************************************************//**
 114:Generated_Source\PSoC4/CapSense_1_Filter.c **** *
 115:Generated_Source\PSoC4/CapSense_1_Filter.c **** * \brief
 116:Generated_Source\PSoC4/CapSense_1_Filter.c **** *  Updates the baselines for all the sensors in a widget specified by the input
 117:Generated_Source\PSoC4/CapSense_1_Filter.c **** *  parameter.
 118:Generated_Source\PSoC4/CapSense_1_Filter.c **** *
 119:Generated_Source\PSoC4/CapSense_1_Filter.c **** * \details
 120:Generated_Source\PSoC4/CapSense_1_Filter.c **** *  This function performs exactly the same tasks as
 121:Generated_Source\PSoC4/CapSense_1_Filter.c **** *  CapSense_1_UpdateAllBaselines() but only for a specified widget.
 122:Generated_Source\PSoC4/CapSense_1_Filter.c **** *
 123:Generated_Source\PSoC4/CapSense_1_Filter.c **** *  This function ignores the value of the wdgtEnable register. Multiple calling
 124:Generated_Source\PSoC4/CapSense_1_Filter.c **** *  of this function (or any other function with a baseline updating task)
 125:Generated_Source\PSoC4/CapSense_1_Filter.c **** *  without scanning leads to unexpected behavior.
 126:Generated_Source\PSoC4/CapSense_1_Filter.c **** *
 127:Generated_Source\PSoC4/CapSense_1_Filter.c **** *  If the Self-test library is enabled, this function executes the baseline duplication
 128:Generated_Source\PSoC4/CapSense_1_Filter.c **** *  test. Refer to CapSense_1_CheckBaselineDuplication() for details.
 129:Generated_Source\PSoC4/CapSense_1_Filter.c **** *
 130:Generated_Source\PSoC4/CapSense_1_Filter.c **** * \param widgetId
 131:Generated_Source\PSoC4/CapSense_1_Filter.c **** *  Specifies the ID number of the widget to update the baseline of all the sensors
 132:Generated_Source\PSoC4/CapSense_1_Filter.c **** *  in the widget.
 133:Generated_Source\PSoC4/CapSense_1_Filter.c **** *  A macro for the widget ID can be found in the
 134:Generated_Source\PSoC4/CapSense_1_Filter.c **** *  CapSense_1 Configuration header file defined as
 135:Generated_Source\PSoC4/CapSense_1_Filter.c **** *  CapSense_1_<WidgetName>_WDGT_ID.
 136:Generated_Source\PSoC4/CapSense_1_Filter.c **** *
 137:Generated_Source\PSoC4/CapSense_1_Filter.c **** * \return
 138:Generated_Source\PSoC4/CapSense_1_Filter.c **** *  Returns the status of the specified widget update baseline operation:
 139:Generated_Source\PSoC4/CapSense_1_Filter.c **** *  - CYRET_SUCCESS - The operation is successfully completed.
 140:Generated_Source\PSoC4/CapSense_1_Filter.c **** *  - CYRET_BAD_DATA - The baseline processing is failed.
 141:Generated_Source\PSoC4/CapSense_1_Filter.c **** *
 142:Generated_Source\PSoC4/CapSense_1_Filter.c **** *******************************************************************************/
 143:Generated_Source\PSoC4/CapSense_1_Filter.c **** cystatus CapSense_1_UpdateWidgetBaseline(uint32 widgetId)
 144:Generated_Source\PSoC4/CapSense_1_Filter.c **** {
ARM GAS  C:\Users\Mayur\AppData\Local\Temp\ccxZLytu.s 			page 4


 145:Generated_Source\PSoC4/CapSense_1_Filter.c ****     uint32 sensorId;
 146:Generated_Source\PSoC4/CapSense_1_Filter.c ****     uint32 sensorsNumber;
 147:Generated_Source\PSoC4/CapSense_1_Filter.c **** 
 148:Generated_Source\PSoC4/CapSense_1_Filter.c ****     CapSense_1_FLASH_WD_STRUCT const *ptrWidget = &CapSense_1_dsFlash.wdgtArray[widgetId];
 149:Generated_Source\PSoC4/CapSense_1_Filter.c ****     cystatus bslnStatus = CYRET_SUCCESS;
 150:Generated_Source\PSoC4/CapSense_1_Filter.c **** 
 151:Generated_Source\PSoC4/CapSense_1_Filter.c ****     /* Find total amount of sensors in specified widget */
 152:Generated_Source\PSoC4/CapSense_1_Filter.c ****     sensorsNumber = CapSense_1_GET_SNS_CNT_BY_PTR(ptrWidget);
 153:Generated_Source\PSoC4/CapSense_1_Filter.c **** 
 154:Generated_Source\PSoC4/CapSense_1_Filter.c ****     for(sensorId = sensorsNumber; sensorId-- > 0u;)
 155:Generated_Source\PSoC4/CapSense_1_Filter.c ****     {
 156:Generated_Source\PSoC4/CapSense_1_Filter.c ****         bslnStatus |= CapSense_1_UpdateSensorBaseline(widgetId, sensorId);
 157:Generated_Source\PSoC4/CapSense_1_Filter.c ****     }
 158:Generated_Source\PSoC4/CapSense_1_Filter.c **** 
 159:Generated_Source\PSoC4/CapSense_1_Filter.c ****     return(bslnStatus);
 160:Generated_Source\PSoC4/CapSense_1_Filter.c **** }
 161:Generated_Source\PSoC4/CapSense_1_Filter.c **** 
 162:Generated_Source\PSoC4/CapSense_1_Filter.c **** 
 163:Generated_Source\PSoC4/CapSense_1_Filter.c **** /*******************************************************************************
 164:Generated_Source\PSoC4/CapSense_1_Filter.c **** * Function Name: CapSense_1_UpdateSensorBaseline
 165:Generated_Source\PSoC4/CapSense_1_Filter.c **** ****************************************************************************//**
 166:Generated_Source\PSoC4/CapSense_1_Filter.c **** *
 167:Generated_Source\PSoC4/CapSense_1_Filter.c **** * \brief
 168:Generated_Source\PSoC4/CapSense_1_Filter.c **** *  Updates the baseline for a sensor in a widget specified by the input parameters.
 169:Generated_Source\PSoC4/CapSense_1_Filter.c **** *
 170:Generated_Source\PSoC4/CapSense_1_Filter.c **** * \details
 171:Generated_Source\PSoC4/CapSense_1_Filter.c **** *  This function performs exactly the same tasks as
 172:Generated_Source\PSoC4/CapSense_1_Filter.c **** *  CapSense_1_UpdateAllBaselines() and
 173:Generated_Source\PSoC4/CapSense_1_Filter.c **** *  CapSense_1_UpdateWidgetBaseline() but only for a specified sensor.
 174:Generated_Source\PSoC4/CapSense_1_Filter.c **** *
 175:Generated_Source\PSoC4/CapSense_1_Filter.c **** *  This function ignores the value of the wdgtEnable register. Multiple calling
 176:Generated_Source\PSoC4/CapSense_1_Filter.c **** *  of this function (or any other function with a baseline updating task)
 177:Generated_Source\PSoC4/CapSense_1_Filter.c **** *  without scanning leads to unexpected behavior.
 178:Generated_Source\PSoC4/CapSense_1_Filter.c **** *
 179:Generated_Source\PSoC4/CapSense_1_Filter.c **** *  If the Self-test library is enabled, this function executes the baseline duplication
 180:Generated_Source\PSoC4/CapSense_1_Filter.c **** *  test. Refer to CapSense_1_CheckBaselineDuplication() for details.
 181:Generated_Source\PSoC4/CapSense_1_Filter.c **** *
 182:Generated_Source\PSoC4/CapSense_1_Filter.c **** * \param widgetId
 183:Generated_Source\PSoC4/CapSense_1_Filter.c **** *  Specifies the ID number of the widget to update the baseline of the sensor
 184:Generated_Source\PSoC4/CapSense_1_Filter.c **** *  specified by the sensorId argument.
 185:Generated_Source\PSoC4/CapSense_1_Filter.c **** *  A macro for the widget ID can be found in the CapSense_1 Configuration header
 186:Generated_Source\PSoC4/CapSense_1_Filter.c **** *  file defined as CapSense_1_<WidgetName>_WDGT_ID.
 187:Generated_Source\PSoC4/CapSense_1_Filter.c **** *
 188:Generated_Source\PSoC4/CapSense_1_Filter.c **** * \param sensorId
 189:Generated_Source\PSoC4/CapSense_1_Filter.c **** *  Specifies the ID number of the sensor within the widget to update its baseline.
 190:Generated_Source\PSoC4/CapSense_1_Filter.c **** *  A macro for the sensor ID within a specified widget can be found in the
 191:Generated_Source\PSoC4/CapSense_1_Filter.c **** *  CapSense_1 Configuration header file defined as
 192:Generated_Source\PSoC4/CapSense_1_Filter.c **** *  CapSense_1_<WidgetName>_SNS<SensorNumber>_ID.
 193:Generated_Source\PSoC4/CapSense_1_Filter.c **** *
 194:Generated_Source\PSoC4/CapSense_1_Filter.c **** * \return
 195:Generated_Source\PSoC4/CapSense_1_Filter.c **** *  Returns the status of the specified sensor update baseline operation:
 196:Generated_Source\PSoC4/CapSense_1_Filter.c **** *  - CYRET_SUCCESS - The operation is successfully completed.
 197:Generated_Source\PSoC4/CapSense_1_Filter.c **** *  - CYRET_BAD_DATA - The baseline processing failed.
 198:Generated_Source\PSoC4/CapSense_1_Filter.c **** *
 199:Generated_Source\PSoC4/CapSense_1_Filter.c **** *******************************************************************************/
 200:Generated_Source\PSoC4/CapSense_1_Filter.c **** cystatus CapSense_1_UpdateSensorBaseline(uint32 widgetId, uint32 sensorId)
 201:Generated_Source\PSoC4/CapSense_1_Filter.c **** {
ARM GAS  C:\Users\Mayur\AppData\Local\Temp\ccxZLytu.s 			page 5


 202:Generated_Source\PSoC4/CapSense_1_Filter.c ****     uint32 result = CYRET_SUCCESS;
 203:Generated_Source\PSoC4/CapSense_1_Filter.c **** 
 204:Generated_Source\PSoC4/CapSense_1_Filter.c ****     CapSense_1_RAM_SNS_STRUCT *ptrSensor = NULL;
 205:Generated_Source\PSoC4/CapSense_1_Filter.c ****     CapSense_1_FLASH_WD_STRUCT const *ptrWidget = &CapSense_1_dsFlash.wdgtArray[widgetId];
 206:Generated_Source\PSoC4/CapSense_1_Filter.c ****     CapSense_1_RAM_WD_BASE_STRUCT *ptrWidgetRam = (CapSense_1_RAM_WD_BASE_STRUCT *)ptrWidget->ptr2W
 207:Generated_Source\PSoC4/CapSense_1_Filter.c **** 
 208:Generated_Source\PSoC4/CapSense_1_Filter.c ****     /* Find pointer to specified sensor object */
 209:Generated_Source\PSoC4/CapSense_1_Filter.c ****     ptrSensor = ptrWidget->ptr2SnsRam;
 210:Generated_Source\PSoC4/CapSense_1_Filter.c ****     ptrSensor = &ptrSensor[sensorId];
 211:Generated_Source\PSoC4/CapSense_1_Filter.c ****     result = CapSense_1_FtUpdateBaseline(ptrWidgetRam, ptrSensor, (uint32)ptrWidget->wdgtType);
 212:Generated_Source\PSoC4/CapSense_1_Filter.c **** 
 213:Generated_Source\PSoC4/CapSense_1_Filter.c ****     #if (CapSense_1_ENABLE == CapSense_1_TST_BSLN_DUPLICATION_EN)
 214:Generated_Source\PSoC4/CapSense_1_Filter.c ****         if (CYRET_SUCCESS != result)
 215:Generated_Source\PSoC4/CapSense_1_Filter.c ****         {
 216:Generated_Source\PSoC4/CapSense_1_Filter.c ****             result = CYRET_BAD_DATA;
 217:Generated_Source\PSoC4/CapSense_1_Filter.c ****             CapSense_1_UpdateTestResultBaselineDuplication(widgetId, sensorId);
 218:Generated_Source\PSoC4/CapSense_1_Filter.c ****         }
 219:Generated_Source\PSoC4/CapSense_1_Filter.c ****     #endif /* (CapSense_1_ENABLE == CapSense_1_TST_BSLN_DUPLICATION_EN) */
 220:Generated_Source\PSoC4/CapSense_1_Filter.c **** 
 221:Generated_Source\PSoC4/CapSense_1_Filter.c ****     return result;
 222:Generated_Source\PSoC4/CapSense_1_Filter.c **** }
 223:Generated_Source\PSoC4/CapSense_1_Filter.c **** 
 224:Generated_Source\PSoC4/CapSense_1_Filter.c **** /*******************************************************************************
 225:Generated_Source\PSoC4/CapSense_1_Filter.c **** * Function Name: CapSense_1_FtUpdateBaseline
 226:Generated_Source\PSoC4/CapSense_1_Filter.c **** ****************************************************************************//**
 227:Generated_Source\PSoC4/CapSense_1_Filter.c **** *
 228:Generated_Source\PSoC4/CapSense_1_Filter.c **** * \brief
 229:Generated_Source\PSoC4/CapSense_1_Filter.c **** *  Updates the baseline for a sensor specified by an input parameter.
 230:Generated_Source\PSoC4/CapSense_1_Filter.c **** *
 231:Generated_Source\PSoC4/CapSense_1_Filter.c **** * \details
 232:Generated_Source\PSoC4/CapSense_1_Filter.c **** *  Check a matching of present baseline and its inverse duplication. If they
 233:Generated_Source\PSoC4/CapSense_1_Filter.c **** *  match then updates the baseline for a sensor specified by an input parameter.
 234:Generated_Source\PSoC4/CapSense_1_Filter.c **** *  If don't match the function return CapSense_1_TST_BSLN_DUPLICATION
 235:Generated_Source\PSoC4/CapSense_1_Filter.c **** *  result and don't update baseline.
 236:Generated_Source\PSoC4/CapSense_1_Filter.c **** *
 237:Generated_Source\PSoC4/CapSense_1_Filter.c **** * \param ptrWidgetRam
 238:Generated_Source\PSoC4/CapSense_1_Filter.c **** *  The pointer to the widget RAM structure where all the widget parameters
 239:Generated_Source\PSoC4/CapSense_1_Filter.c **** *  are stored.
 240:Generated_Source\PSoC4/CapSense_1_Filter.c **** *
 241:Generated_Source\PSoC4/CapSense_1_Filter.c **** * \param ptrSensor
 242:Generated_Source\PSoC4/CapSense_1_Filter.c **** *  The pointer to the sensor RAM structure where all the sensor parameters
 243:Generated_Source\PSoC4/CapSense_1_Filter.c **** *  are stored.
 244:Generated_Source\PSoC4/CapSense_1_Filter.c **** *
 245:Generated_Source\PSoC4/CapSense_1_Filter.c **** * \param wdType
 246:Generated_Source\PSoC4/CapSense_1_Filter.c **** *  Specifies the type of a widget.
 247:Generated_Source\PSoC4/CapSense_1_Filter.c **** *
 248:Generated_Source\PSoC4/CapSense_1_Filter.c **** * \return
 249:Generated_Source\PSoC4/CapSense_1_Filter.c **** *  Returns a status indicating whether the baseline has been updated:
 250:Generated_Source\PSoC4/CapSense_1_Filter.c **** *  - CYRET_SUCCESS if baseline updating was successful.
 251:Generated_Source\PSoC4/CapSense_1_Filter.c **** *  - CapSense_1_PROCESS_BASELINE_FAILED if present sensor's any channel
 252:Generated_Source\PSoC4/CapSense_1_Filter.c **** *    baseline and its inversion doesn't matched.
 253:Generated_Source\PSoC4/CapSense_1_Filter.c **** *
 254:Generated_Source\PSoC4/CapSense_1_Filter.c **** *******************************************************************************/
 255:Generated_Source\PSoC4/CapSense_1_Filter.c **** uint32 CapSense_1_FtUpdateBaseline(
 256:Generated_Source\PSoC4/CapSense_1_Filter.c ****                                 CapSense_1_RAM_WD_BASE_STRUCT *ptrWidgetRam,
 257:Generated_Source\PSoC4/CapSense_1_Filter.c ****                                 CapSense_1_RAM_SNS_STRUCT *ptrSensor,
 258:Generated_Source\PSoC4/CapSense_1_Filter.c ****                                 uint32 wdType)
ARM GAS  C:\Users\Mayur\AppData\Local\Temp\ccxZLytu.s 			page 6


 259:Generated_Source\PSoC4/CapSense_1_Filter.c **** {
 260:Generated_Source\PSoC4/CapSense_1_Filter.c ****     uint32 sign;
 261:Generated_Source\PSoC4/CapSense_1_Filter.c ****     uint32 difference;
 262:Generated_Source\PSoC4/CapSense_1_Filter.c ****     uint32 freqChannel;
 263:Generated_Source\PSoC4/CapSense_1_Filter.c ****     uint32 baselineCoeff;
 264:Generated_Source\PSoC4/CapSense_1_Filter.c ****     uint32 result = CYRET_SUCCESS;
 265:Generated_Source\PSoC4/CapSense_1_Filter.c **** 
 266:Generated_Source\PSoC4/CapSense_1_Filter.c ****     #if (CapSense_1_TOTAL_WIDGETS)
 267:Generated_Source\PSoC4/CapSense_1_Filter.c ****         uint32 history;
 268:Generated_Source\PSoC4/CapSense_1_Filter.c ****     #endif /* (CapSense_1_TOTAL_WIDGETS) */
 269:Generated_Source\PSoC4/CapSense_1_Filter.c **** 
 270:Generated_Source\PSoC4/CapSense_1_Filter.c ****     /* Apply baseline to every channel in sensor */
 271:Generated_Source\PSoC4/CapSense_1_Filter.c ****     for(freqChannel = CapSense_1_NUM_SCAN_FREQS; freqChannel-- > 0u;)
 272:Generated_Source\PSoC4/CapSense_1_Filter.c ****     {
 273:Generated_Source\PSoC4/CapSense_1_Filter.c ****         #if (CapSense_1_ENABLE == CapSense_1_TST_BSLN_DUPLICATION_EN)
 274:Generated_Source\PSoC4/CapSense_1_Filter.c ****             if (ptrSensor->bslnInv[freqChannel] != ((uint16) ~(ptrSensor->bsln[freqChannel])))
 275:Generated_Source\PSoC4/CapSense_1_Filter.c ****             {
 276:Generated_Source\PSoC4/CapSense_1_Filter.c ****                 result = CapSense_1_PROCESS_BASELINE_FAILED;
 277:Generated_Source\PSoC4/CapSense_1_Filter.c ****             }
 278:Generated_Source\PSoC4/CapSense_1_Filter.c ****             else
 279:Generated_Source\PSoC4/CapSense_1_Filter.c ****             {
 280:Generated_Source\PSoC4/CapSense_1_Filter.c ****         #endif /* (CapSense_1_ENABLE == CapSense_1_TST_BSLN_DUPLICATION_EN) */
 281:Generated_Source\PSoC4/CapSense_1_Filter.c **** 
 282:Generated_Source\PSoC4/CapSense_1_Filter.c ****         /* Calculate signal value and its sign */
 283:Generated_Source\PSoC4/CapSense_1_Filter.c ****         if(ptrSensor->raw[freqChannel] >= ptrSensor->bsln[freqChannel])
 284:Generated_Source\PSoC4/CapSense_1_Filter.c ****         {
 285:Generated_Source\PSoC4/CapSense_1_Filter.c ****             difference = (uint32)ptrSensor->raw[freqChannel] - (uint32)ptrSensor->bsln[freqChannel]
 286:Generated_Source\PSoC4/CapSense_1_Filter.c ****             sign = 1u;
 287:Generated_Source\PSoC4/CapSense_1_Filter.c ****             ptrSensor->negBslnRstCnt[freqChannel] = 0u;
 288:Generated_Source\PSoC4/CapSense_1_Filter.c ****         }
 289:Generated_Source\PSoC4/CapSense_1_Filter.c ****         else
 290:Generated_Source\PSoC4/CapSense_1_Filter.c ****         {
 291:Generated_Source\PSoC4/CapSense_1_Filter.c ****             difference = (uint32)ptrSensor->bsln[freqChannel] - (uint32)ptrSensor->raw[freqChannel]
 292:Generated_Source\PSoC4/CapSense_1_Filter.c ****             sign = 0u;
 293:Generated_Source\PSoC4/CapSense_1_Filter.c ****         }
 294:Generated_Source\PSoC4/CapSense_1_Filter.c **** 
 295:Generated_Source\PSoC4/CapSense_1_Filter.c ****         /* Reset baseline if condition is met */
 296:Generated_Source\PSoC4/CapSense_1_Filter.c ****         if((sign == 0u) && (difference > (uint32) ptrWidgetRam->nNoiseTh))
 297:Generated_Source\PSoC4/CapSense_1_Filter.c ****         {
 298:Generated_Source\PSoC4/CapSense_1_Filter.c ****             if(ptrSensor->negBslnRstCnt[freqChannel] >= ptrWidgetRam->lowBslnRst)
 299:Generated_Source\PSoC4/CapSense_1_Filter.c ****             {
 300:Generated_Source\PSoC4/CapSense_1_Filter.c ****                 CapSense_1_FtInitializeBaselineChannel(ptrSensor, wdType, freqChannel);
 301:Generated_Source\PSoC4/CapSense_1_Filter.c ****             }
 302:Generated_Source\PSoC4/CapSense_1_Filter.c ****             else
 303:Generated_Source\PSoC4/CapSense_1_Filter.c ****             {
 304:Generated_Source\PSoC4/CapSense_1_Filter.c ****                 ptrSensor->negBslnRstCnt[freqChannel]++;
 305:Generated_Source\PSoC4/CapSense_1_Filter.c ****             }
 306:Generated_Source\PSoC4/CapSense_1_Filter.c ****         }
 307:Generated_Source\PSoC4/CapSense_1_Filter.c ****         else
 308:Generated_Source\PSoC4/CapSense_1_Filter.c ****         {
 309:Generated_Source\PSoC4/CapSense_1_Filter.c ****             #if (!CapSense_1_SENSOR_AUTO_RESET_EN)
 310:Generated_Source\PSoC4/CapSense_1_Filter.c ****                 /* Update baseline only if signal is in range between noiseThreshold and negativeno
 311:Generated_Source\PSoC4/CapSense_1_Filter.c ****                 if ((difference <= (uint32)ptrWidgetRam->noiseTh) ||
 312:Generated_Source\PSoC4/CapSense_1_Filter.c ****                     ((difference < (uint32) ptrWidgetRam->nNoiseTh) && (sign == 0u)))
 313:Generated_Source\PSoC4/CapSense_1_Filter.c ****                 {
 314:Generated_Source\PSoC4/CapSense_1_Filter.c ****             #endif /* (CapSense_1_CSD_AUTO_RESET == CapSense_1_CSD_AUTO_RESET_DISABLE) */
 315:Generated_Source\PSoC4/CapSense_1_Filter.c **** 
ARM GAS  C:\Users\Mayur\AppData\Local\Temp\ccxZLytu.s 			page 7


 316:Generated_Source\PSoC4/CapSense_1_Filter.c ****             #if (CapSense_1_BASELINE_TYPE == CapSense_1_IIR_BASELINE)
 317:Generated_Source\PSoC4/CapSense_1_Filter.c ****                 /* Calculate baseline value */
 318:Generated_Source\PSoC4/CapSense_1_Filter.c ****                 if ((CapSense_1_WD_TYPE_ENUM)wdType != CapSense_1_WD_PROXIMITY_E)
 319:Generated_Source\PSoC4/CapSense_1_Filter.c ****                 {
 320:Generated_Source\PSoC4/CapSense_1_Filter.c ****                     #if (CapSense_1_REGULAR_SENSOR_EN)
 321:Generated_Source\PSoC4/CapSense_1_Filter.c ****                         #if (CapSense_1_REGULAR_IIR_BL_TYPE == CapSense_1_IIR_FILTER_PERFORMANCE)
 322:Generated_Source\PSoC4/CapSense_1_Filter.c ****                             history = (uint32) ptrSensor->bsln[freqChannel] << 8u;
 323:Generated_Source\PSoC4/CapSense_1_Filter.c ****                             history |= ptrSensor->bslnExt[freqChannel];
 324:Generated_Source\PSoC4/CapSense_1_Filter.c ****                         #else
 325:Generated_Source\PSoC4/CapSense_1_Filter.c ****                             history = ptrSensor->bsln[freqChannel];
 326:Generated_Source\PSoC4/CapSense_1_Filter.c ****                         #endif /* (CapSense_1_REGULAR_IIR_BL_TYPE == CapSense_1_IIR_FILTER_PERFORMA
 327:Generated_Source\PSoC4/CapSense_1_Filter.c **** 
 328:Generated_Source\PSoC4/CapSense_1_Filter.c ****                         #if (CapSense_1_ENABLE == CapSense_1_WD_BSLN_COEFF_EN)
 329:Generated_Source\PSoC4/CapSense_1_Filter.c ****                             baselineCoeff = ptrWidgetRam->bslnCoeff;
 330:Generated_Source\PSoC4/CapSense_1_Filter.c ****                         #else /* (CapSense_1_ENABLE == CapSense_1_WD_BSLN_COEFF_EN) */
 331:Generated_Source\PSoC4/CapSense_1_Filter.c ****                             baselineCoeff = CapSense_1_REGULAR_IIR_BL_N;
 332:Generated_Source\PSoC4/CapSense_1_Filter.c ****                         #endif /* (CapSense_1_ENABLE == CapSense_1_WD_BSLN_COEFF_EN) */
 333:Generated_Source\PSoC4/CapSense_1_Filter.c **** 
 334:Generated_Source\PSoC4/CapSense_1_Filter.c ****                         history =  CapSense_1_FtIIR1stOrder(
 335:Generated_Source\PSoC4/CapSense_1_Filter.c ****                                         (uint32)ptrSensor->raw[freqChannel],
 336:Generated_Source\PSoC4/CapSense_1_Filter.c ****                                         history, baselineCoeff,
 337:Generated_Source\PSoC4/CapSense_1_Filter.c ****                                         CapSense_1_REGULAR_IIR_BL_SHIFT);
 338:Generated_Source\PSoC4/CapSense_1_Filter.c **** 
 339:Generated_Source\PSoC4/CapSense_1_Filter.c ****                         #if (CapSense_1_REGULAR_IIR_BL_TYPE == CapSense_1_IIR_FILTER_PERFORMANCE)
 340:Generated_Source\PSoC4/CapSense_1_Filter.c ****                             ptrSensor->bsln[freqChannel] = LO16(history >> 8u);
 341:Generated_Source\PSoC4/CapSense_1_Filter.c ****                             ptrSensor->bslnExt[freqChannel] = LO8(history);
 342:Generated_Source\PSoC4/CapSense_1_Filter.c ****                         #else
 343:Generated_Source\PSoC4/CapSense_1_Filter.c ****                             ptrSensor->bsln[freqChannel] = LO16(history);
 344:Generated_Source\PSoC4/CapSense_1_Filter.c ****                         #endif /* (CapSense_1_REGULAR_IIR_BL_TYPE == CapSense_1_IIR_FILTER_PERFORMA
 345:Generated_Source\PSoC4/CapSense_1_Filter.c ****                     #endif /* (CapSense_1_REGULAR_SENSOR_EN) */
 346:Generated_Source\PSoC4/CapSense_1_Filter.c ****                 }
 347:Generated_Source\PSoC4/CapSense_1_Filter.c ****                 else
 348:Generated_Source\PSoC4/CapSense_1_Filter.c ****                 {
 349:Generated_Source\PSoC4/CapSense_1_Filter.c ****                     #if (CapSense_1_PROXIMITY_SENSOR_EN)
 350:Generated_Source\PSoC4/CapSense_1_Filter.c ****                         #if (CapSense_1_PROX_IIR_BL_TYPE == CapSense_1_IIR_FILTER_PERFORMANCE)
 351:Generated_Source\PSoC4/CapSense_1_Filter.c ****                             history = (uint32) ptrSensor->bsln[freqChannel] << 8u;
 352:Generated_Source\PSoC4/CapSense_1_Filter.c ****                             history |= ptrSensor->bslnExt[freqChannel];
 353:Generated_Source\PSoC4/CapSense_1_Filter.c ****                         #else
 354:Generated_Source\PSoC4/CapSense_1_Filter.c ****                             history = (uint32) ptrSensor->bsln[freqChannel];
 355:Generated_Source\PSoC4/CapSense_1_Filter.c ****                         #endif /* (CapSense_1_PROX_IIR_BL_TYPE == CapSense_1_IIR_FILTER_PERFORMANCE
 356:Generated_Source\PSoC4/CapSense_1_Filter.c **** 
 357:Generated_Source\PSoC4/CapSense_1_Filter.c ****                         #if (CapSense_1_ENABLE == CapSense_1_WD_BSLN_COEFF_EN)
 358:Generated_Source\PSoC4/CapSense_1_Filter.c ****                             baselineCoeff = ptrWidgetRam->bslnCoeff;
 359:Generated_Source\PSoC4/CapSense_1_Filter.c ****                         #else /* (CapSense_1_ENABLE == CapSense_1_WD_BSLN_COEFF_EN) */
 360:Generated_Source\PSoC4/CapSense_1_Filter.c ****                             baselineCoeff = CapSense_1_PROX_IIR_BL_N;
 361:Generated_Source\PSoC4/CapSense_1_Filter.c ****                         #endif /* (CapSense_1_ENABLE == CapSense_1_WD_BSLN_COEFF_EN) */
 362:Generated_Source\PSoC4/CapSense_1_Filter.c **** 
 363:Generated_Source\PSoC4/CapSense_1_Filter.c ****                         history = CapSense_1_FtIIR1stOrder(
 364:Generated_Source\PSoC4/CapSense_1_Filter.c ****                                         (uint32)ptrSensor->raw[freqChannel],
 365:Generated_Source\PSoC4/CapSense_1_Filter.c ****                                         history, baselineCoeff,
 366:Generated_Source\PSoC4/CapSense_1_Filter.c ****                                         CapSense_1_PROX_IIR_BL_SHIFT);
 367:Generated_Source\PSoC4/CapSense_1_Filter.c **** 
 368:Generated_Source\PSoC4/CapSense_1_Filter.c ****                         #if (CapSense_1_PROX_IIR_BL_TYPE == CapSense_1_IIR_FILTER_PERFORMANCE)
 369:Generated_Source\PSoC4/CapSense_1_Filter.c ****                             ptrSensor->bsln[freqChannel] = LO16(history >> 8u);
 370:Generated_Source\PSoC4/CapSense_1_Filter.c ****                             ptrSensor->bslnExt[freqChannel] = LO8(history);
 371:Generated_Source\PSoC4/CapSense_1_Filter.c ****                         #else
 372:Generated_Source\PSoC4/CapSense_1_Filter.c ****                             ptrSensor->bsln[freqChannel] = LO16(history);
ARM GAS  C:\Users\Mayur\AppData\Local\Temp\ccxZLytu.s 			page 8


 373:Generated_Source\PSoC4/CapSense_1_Filter.c ****                         #endif /* (CapSense_1_PROX_IIR_BL_TYPE == CapSense_1_IIR_FILTER_PERFORMANCE
 374:Generated_Source\PSoC4/CapSense_1_Filter.c ****                     #endif /* (CapSense_1_PROX_SENSOR_EN) */
 375:Generated_Source\PSoC4/CapSense_1_Filter.c ****                 }
 376:Generated_Source\PSoC4/CapSense_1_Filter.c ****             #else /* (CapSense_1_CSD_BASELINE_TYPE == CapSense_1_IIR_BASELINE) */
 377:Generated_Source\PSoC4/CapSense_1_Filter.c **** 
 378:Generated_Source\PSoC4/CapSense_1_Filter.c ****                 /******************************************************************
 379:Generated_Source\PSoC4/CapSense_1_Filter.c ****                 * This is the place where the bucket algorithm should be implemented.
 380:Generated_Source\PSoC4/CapSense_1_Filter.c ****                 * The bucket method will be implemented in future Component version.
 381:Generated_Source\PSoC4/CapSense_1_Filter.c ****                 *******************************************************************/
 382:Generated_Source\PSoC4/CapSense_1_Filter.c **** 
 383:Generated_Source\PSoC4/CapSense_1_Filter.c ****             #endif /* (CapSense_1_CSD_BASELINE_TYPE == CapSense_1_IIR_BASELINE) */
 384:Generated_Source\PSoC4/CapSense_1_Filter.c **** 
 385:Generated_Source\PSoC4/CapSense_1_Filter.c ****             #if (!CapSense_1_SENSOR_AUTO_RESET_EN)
 386:Generated_Source\PSoC4/CapSense_1_Filter.c ****                 }
 387:Generated_Source\PSoC4/CapSense_1_Filter.c ****             #endif /* (!CapSense_1_SENSOR_AUTO_RESET_EN) */
 388:Generated_Source\PSoC4/CapSense_1_Filter.c ****         }
 389:Generated_Source\PSoC4/CapSense_1_Filter.c **** 
 390:Generated_Source\PSoC4/CapSense_1_Filter.c ****         #if (CapSense_1_ENABLE == CapSense_1_TST_BSLN_DUPLICATION_EN)
 391:Generated_Source\PSoC4/CapSense_1_Filter.c ****             /* Update baseline inversion of every channel in sensor */
 392:Generated_Source\PSoC4/CapSense_1_Filter.c ****             ptrSensor->bslnInv[freqChannel] = ~(ptrSensor->bsln[freqChannel]);
 393:Generated_Source\PSoC4/CapSense_1_Filter.c ****             }
 394:Generated_Source\PSoC4/CapSense_1_Filter.c ****         #endif /* (CapSense_1_ENABLE == CapSense_1_TST_BSLN_DUPLICATION_EN) */
 395:Generated_Source\PSoC4/CapSense_1_Filter.c **** 
 396:Generated_Source\PSoC4/CapSense_1_Filter.c ****     }
 397:Generated_Source\PSoC4/CapSense_1_Filter.c ****     return result;
 398:Generated_Source\PSoC4/CapSense_1_Filter.c **** }
 399:Generated_Source\PSoC4/CapSense_1_Filter.c **** 
 400:Generated_Source\PSoC4/CapSense_1_Filter.c **** 
 401:Generated_Source\PSoC4/CapSense_1_Filter.c **** /*******************************************************************************
 402:Generated_Source\PSoC4/CapSense_1_Filter.c **** * Function Name: CapSense_1_InitializeAllBaselines
 403:Generated_Source\PSoC4/CapSense_1_Filter.c **** ****************************************************************************//**
 404:Generated_Source\PSoC4/CapSense_1_Filter.c **** *
 405:Generated_Source\PSoC4/CapSense_1_Filter.c **** * \brief
 406:Generated_Source\PSoC4/CapSense_1_Filter.c **** *  Initializes (or re-initializes) the baselines of all the sensors of all the widgets.
 407:Generated_Source\PSoC4/CapSense_1_Filter.c **** *
 408:Generated_Source\PSoC4/CapSense_1_Filter.c **** * \details
 409:Generated_Source\PSoC4/CapSense_1_Filter.c **** *  Initializes the baseline for all the sensors of all the widgets. Also, this function
 410:Generated_Source\PSoC4/CapSense_1_Filter.c **** *  can be used to re-initialize baselines. CapSense_1_Start() calls this
 411:Generated_Source\PSoC4/CapSense_1_Filter.c **** *  API as part of CapSense_1 operation initialization.
 412:Generated_Source\PSoC4/CapSense_1_Filter.c **** *
 413:Generated_Source\PSoC4/CapSense_1_Filter.c **** *  If any raw count filter is enabled, make sure the raw count filter history is
 414:Generated_Source\PSoC4/CapSense_1_Filter.c **** *  initialized as well using one of these functions:
 415:Generated_Source\PSoC4/CapSense_1_Filter.c **** *  - CapSense_1_InitializeAllFilters().
 416:Generated_Source\PSoC4/CapSense_1_Filter.c **** *  - CapSense_1_InitializeWidgetFilter().
 417:Generated_Source\PSoC4/CapSense_1_Filter.c **** *
 418:Generated_Source\PSoC4/CapSense_1_Filter.c **** *******************************************************************************/
 419:Generated_Source\PSoC4/CapSense_1_Filter.c **** void CapSense_1_InitializeAllBaselines(void)
 420:Generated_Source\PSoC4/CapSense_1_Filter.c **** {
 421:Generated_Source\PSoC4/CapSense_1_Filter.c ****     uint32 widgetId;
 422:Generated_Source\PSoC4/CapSense_1_Filter.c **** 
 423:Generated_Source\PSoC4/CapSense_1_Filter.c ****     for(widgetId = CapSense_1_TOTAL_WIDGETS; widgetId-- > 0u;)
 424:Generated_Source\PSoC4/CapSense_1_Filter.c ****     {
 425:Generated_Source\PSoC4/CapSense_1_Filter.c ****         CapSense_1_InitializeWidgetBaseline(widgetId);
 426:Generated_Source\PSoC4/CapSense_1_Filter.c ****     }
 427:Generated_Source\PSoC4/CapSense_1_Filter.c **** }
 428:Generated_Source\PSoC4/CapSense_1_Filter.c **** 
 429:Generated_Source\PSoC4/CapSense_1_Filter.c **** 
ARM GAS  C:\Users\Mayur\AppData\Local\Temp\ccxZLytu.s 			page 9


 430:Generated_Source\PSoC4/CapSense_1_Filter.c **** /*******************************************************************************
 431:Generated_Source\PSoC4/CapSense_1_Filter.c **** * Function Name: CapSense_1_InitializeWidgetBaseline
 432:Generated_Source\PSoC4/CapSense_1_Filter.c **** ****************************************************************************//**
 433:Generated_Source\PSoC4/CapSense_1_Filter.c **** *
 434:Generated_Source\PSoC4/CapSense_1_Filter.c **** * \brief
 435:Generated_Source\PSoC4/CapSense_1_Filter.c **** *  Initializes (or re-initializes) the baselines of all the sensors in a widget
 436:Generated_Source\PSoC4/CapSense_1_Filter.c **** *  specified by the input parameter.
 437:Generated_Source\PSoC4/CapSense_1_Filter.c **** *
 438:Generated_Source\PSoC4/CapSense_1_Filter.c **** * \details
 439:Generated_Source\PSoC4/CapSense_1_Filter.c **** *  Initializes (or re-initializes) the baseline for all the sensors of the
 440:Generated_Source\PSoC4/CapSense_1_Filter.c **** *  specified widget.
 441:Generated_Source\PSoC4/CapSense_1_Filter.c **** *
 442:Generated_Source\PSoC4/CapSense_1_Filter.c **** *  If any raw count filter is enabled, make sure the raw count filter history is
 443:Generated_Source\PSoC4/CapSense_1_Filter.c **** *  initialized as well using one of these functions:
 444:Generated_Source\PSoC4/CapSense_1_Filter.c **** *  - CapSense_1_InitializeAllFilters().
 445:Generated_Source\PSoC4/CapSense_1_Filter.c **** *  - CapSense_1_InitializeWidgetFilter().
 446:Generated_Source\PSoC4/CapSense_1_Filter.c **** *
 447:Generated_Source\PSoC4/CapSense_1_Filter.c **** * \param widgetId
 448:Generated_Source\PSoC4/CapSense_1_Filter.c **** *  Specifies the ID number of a widget to initialize the baseline of all the sensors
 449:Generated_Source\PSoC4/CapSense_1_Filter.c **** *  in the widget.
 450:Generated_Source\PSoC4/CapSense_1_Filter.c **** *  A macro for the widget ID can be found in the
 451:Generated_Source\PSoC4/CapSense_1_Filter.c **** *  CapSense_1 Configuration header file defined as
 452:Generated_Source\PSoC4/CapSense_1_Filter.c **** *  CapSense_1_<WidgetName>_WDGT_ID.
 453:Generated_Source\PSoC4/CapSense_1_Filter.c **** *
 454:Generated_Source\PSoC4/CapSense_1_Filter.c **** *******************************************************************************/
 455:Generated_Source\PSoC4/CapSense_1_Filter.c **** void CapSense_1_InitializeWidgetBaseline(uint32 widgetId)
 456:Generated_Source\PSoC4/CapSense_1_Filter.c **** {
 457:Generated_Source\PSoC4/CapSense_1_Filter.c ****     uint32 sensorId;
 458:Generated_Source\PSoC4/CapSense_1_Filter.c ****     uint32 sensorsNumber;
 459:Generated_Source\PSoC4/CapSense_1_Filter.c **** 
 460:Generated_Source\PSoC4/CapSense_1_Filter.c ****     CapSense_1_FLASH_WD_STRUCT const *ptrWidget = &CapSense_1_dsFlash.wdgtArray[widgetId];
 461:Generated_Source\PSoC4/CapSense_1_Filter.c **** 
 462:Generated_Source\PSoC4/CapSense_1_Filter.c ****     /* Find total amount of sensors in specified widget */
 463:Generated_Source\PSoC4/CapSense_1_Filter.c ****     sensorsNumber = CapSense_1_GET_SNS_CNT_BY_PTR(ptrWidget);
 464:Generated_Source\PSoC4/CapSense_1_Filter.c **** 
 465:Generated_Source\PSoC4/CapSense_1_Filter.c ****     for(sensorId = sensorsNumber; sensorId-- > 0u;)
 466:Generated_Source\PSoC4/CapSense_1_Filter.c ****     {
 467:Generated_Source\PSoC4/CapSense_1_Filter.c ****         CapSense_1_InitializeSensorBaseline(widgetId, sensorId);
 468:Generated_Source\PSoC4/CapSense_1_Filter.c ****     }
 469:Generated_Source\PSoC4/CapSense_1_Filter.c **** }
 470:Generated_Source\PSoC4/CapSense_1_Filter.c **** 
 471:Generated_Source\PSoC4/CapSense_1_Filter.c **** 
 472:Generated_Source\PSoC4/CapSense_1_Filter.c **** /*******************************************************************************
 473:Generated_Source\PSoC4/CapSense_1_Filter.c **** * Function Name: CapSense_1_InitializeSensorBaseline
 474:Generated_Source\PSoC4/CapSense_1_Filter.c **** ****************************************************************************//**
 475:Generated_Source\PSoC4/CapSense_1_Filter.c **** *
 476:Generated_Source\PSoC4/CapSense_1_Filter.c **** * \brief
 477:Generated_Source\PSoC4/CapSense_1_Filter.c **** *  Initializes (or re-initializes) the baseline of a sensor in a widget specified
 478:Generated_Source\PSoC4/CapSense_1_Filter.c **** *  by the input parameters.
 479:Generated_Source\PSoC4/CapSense_1_Filter.c **** *
 480:Generated_Source\PSoC4/CapSense_1_Filter.c **** * \details
 481:Generated_Source\PSoC4/CapSense_1_Filter.c **** *  Initializes (or re-initializes) the baseline for a specified sensor within
 482:Generated_Source\PSoC4/CapSense_1_Filter.c **** *  a specified widget.
 483:Generated_Source\PSoC4/CapSense_1_Filter.c **** *
 484:Generated_Source\PSoC4/CapSense_1_Filter.c **** * \param widgetId
 485:Generated_Source\PSoC4/CapSense_1_Filter.c **** *  Specifies the ID number of a widget to initialize the baseline of the sensor
 486:Generated_Source\PSoC4/CapSense_1_Filter.c **** *  in the widget.
ARM GAS  C:\Users\Mayur\AppData\Local\Temp\ccxZLytu.s 			page 10


 487:Generated_Source\PSoC4/CapSense_1_Filter.c **** *  A macro for the widget ID can be found in the
 488:Generated_Source\PSoC4/CapSense_1_Filter.c **** *  CapSense_1 Configuration header file defined as
 489:Generated_Source\PSoC4/CapSense_1_Filter.c **** *  CapSense_1_<WidgetName>_WDGT_ID.
 490:Generated_Source\PSoC4/CapSense_1_Filter.c **** *
 491:Generated_Source\PSoC4/CapSense_1_Filter.c **** * \param sensorId
 492:Generated_Source\PSoC4/CapSense_1_Filter.c **** *  Specifies the ID number of the sensor within the widget to initialize its
 493:Generated_Source\PSoC4/CapSense_1_Filter.c **** *  baseline.
 494:Generated_Source\PSoC4/CapSense_1_Filter.c **** *  A macro for the sensor ID within a specified widget can be found in the
 495:Generated_Source\PSoC4/CapSense_1_Filter.c **** *  CapSense_1 Configuration header file defined as
 496:Generated_Source\PSoC4/CapSense_1_Filter.c **** *  CapSense_1_<WidgetName>_SNS<SensorNumber>_ID.
 497:Generated_Source\PSoC4/CapSense_1_Filter.c **** *
 498:Generated_Source\PSoC4/CapSense_1_Filter.c **** *******************************************************************************/
 499:Generated_Source\PSoC4/CapSense_1_Filter.c **** void CapSense_1_InitializeSensorBaseline(uint32 widgetId, uint32 sensorId)
 500:Generated_Source\PSoC4/CapSense_1_Filter.c **** {
 501:Generated_Source\PSoC4/CapSense_1_Filter.c ****     CapSense_1_RAM_SNS_STRUCT *ptrSensor = NULL;
 502:Generated_Source\PSoC4/CapSense_1_Filter.c ****     CapSense_1_FLASH_WD_STRUCT const *ptrWidget = NULL;
 503:Generated_Source\PSoC4/CapSense_1_Filter.c ****     ptrWidget = &CapSense_1_dsFlash.wdgtArray[widgetId];
 504:Generated_Source\PSoC4/CapSense_1_Filter.c **** 
 505:Generated_Source\PSoC4/CapSense_1_Filter.c ****     /* Find pointer to specified sensor object */
 506:Generated_Source\PSoC4/CapSense_1_Filter.c ****     ptrSensor = ptrWidget->ptr2SnsRam;
 507:Generated_Source\PSoC4/CapSense_1_Filter.c ****     ptrSensor = &ptrSensor[sensorId];
 508:Generated_Source\PSoC4/CapSense_1_Filter.c **** 
 509:Generated_Source\PSoC4/CapSense_1_Filter.c ****     CapSense_1_FtInitializeBaseline(ptrSensor, (uint32)ptrWidget->wdgtType);
 510:Generated_Source\PSoC4/CapSense_1_Filter.c **** }
 511:Generated_Source\PSoC4/CapSense_1_Filter.c **** 
 512:Generated_Source\PSoC4/CapSense_1_Filter.c **** 
 513:Generated_Source\PSoC4/CapSense_1_Filter.c **** /*******************************************************************************
 514:Generated_Source\PSoC4/CapSense_1_Filter.c **** * Function Name: CapSense_1_FtInitializeBaseline
 515:Generated_Source\PSoC4/CapSense_1_Filter.c **** ****************************************************************************//**
 516:Generated_Source\PSoC4/CapSense_1_Filter.c **** *
 517:Generated_Source\PSoC4/CapSense_1_Filter.c **** * \brief
 518:Generated_Source\PSoC4/CapSense_1_Filter.c **** *  Initializes the baseline history for a sensor indicated by an input
 519:Generated_Source\PSoC4/CapSense_1_Filter.c **** *  parameter.
 520:Generated_Source\PSoC4/CapSense_1_Filter.c **** *
 521:Generated_Source\PSoC4/CapSense_1_Filter.c **** * \details
 522:Generated_Source\PSoC4/CapSense_1_Filter.c **** *  Initializes the baseline history for a sensor indicated by an input
 523:Generated_Source\PSoC4/CapSense_1_Filter.c **** *  parameter.
 524:Generated_Source\PSoC4/CapSense_1_Filter.c **** *
 525:Generated_Source\PSoC4/CapSense_1_Filter.c **** * \param *ptrSensor
 526:Generated_Source\PSoC4/CapSense_1_Filter.c **** *  The pointer to the sensor RAM object.
 527:Generated_Source\PSoC4/CapSense_1_Filter.c **** *
 528:Generated_Source\PSoC4/CapSense_1_Filter.c **** * \param wdType
 529:Generated_Source\PSoC4/CapSense_1_Filter.c **** *  Specifies the type of a widget.
 530:Generated_Source\PSoC4/CapSense_1_Filter.c **** *
 531:Generated_Source\PSoC4/CapSense_1_Filter.c **** *******************************************************************************/
 532:Generated_Source\PSoC4/CapSense_1_Filter.c **** void CapSense_1_FtInitializeBaseline(CapSense_1_RAM_SNS_STRUCT *ptrSensor, uint32 wdType)
 533:Generated_Source\PSoC4/CapSense_1_Filter.c **** {
 534:Generated_Source\PSoC4/CapSense_1_Filter.c ****     uint32 freqChannel;
 535:Generated_Source\PSoC4/CapSense_1_Filter.c **** 
 536:Generated_Source\PSoC4/CapSense_1_Filter.c ****     /* Apply baseline initialization to every channel in sensor */
 537:Generated_Source\PSoC4/CapSense_1_Filter.c ****     for(freqChannel = CapSense_1_NUM_SCAN_FREQS; freqChannel-- > 0u;)
 538:Generated_Source\PSoC4/CapSense_1_Filter.c ****     {
 539:Generated_Source\PSoC4/CapSense_1_Filter.c ****         CapSense_1_FtInitializeBaselineChannel(ptrSensor, wdType, freqChannel);
 540:Generated_Source\PSoC4/CapSense_1_Filter.c ****     }
 541:Generated_Source\PSoC4/CapSense_1_Filter.c **** }
 542:Generated_Source\PSoC4/CapSense_1_Filter.c **** 
 543:Generated_Source\PSoC4/CapSense_1_Filter.c **** 
ARM GAS  C:\Users\Mayur\AppData\Local\Temp\ccxZLytu.s 			page 11


 544:Generated_Source\PSoC4/CapSense_1_Filter.c **** /*******************************************************************************
 545:Generated_Source\PSoC4/CapSense_1_Filter.c **** * Function Name: CapSense_1_FtInitializeBaselineChannel
 546:Generated_Source\PSoC4/CapSense_1_Filter.c **** ****************************************************************************//**
 547:Generated_Source\PSoC4/CapSense_1_Filter.c **** *
 548:Generated_Source\PSoC4/CapSense_1_Filter.c **** * \brief
 549:Generated_Source\PSoC4/CapSense_1_Filter.c **** *  Initializes the baseline history for a sensor indicated by an input
 550:Generated_Source\PSoC4/CapSense_1_Filter.c **** *  parameter.
 551:Generated_Source\PSoC4/CapSense_1_Filter.c **** *
 552:Generated_Source\PSoC4/CapSense_1_Filter.c **** * \details
 553:Generated_Source\PSoC4/CapSense_1_Filter.c **** *  Initializes the baseline history for a sensor indicated by an input
 554:Generated_Source\PSoC4/CapSense_1_Filter.c **** *  parameter.
 555:Generated_Source\PSoC4/CapSense_1_Filter.c **** *
 556:Generated_Source\PSoC4/CapSense_1_Filter.c **** * \param *ptrSensor
 557:Generated_Source\PSoC4/CapSense_1_Filter.c **** *  The pointer to the sensor RAM object.
 558:Generated_Source\PSoC4/CapSense_1_Filter.c **** *
 559:Generated_Source\PSoC4/CapSense_1_Filter.c **** * \param wdType
 560:Generated_Source\PSoC4/CapSense_1_Filter.c **** *  Specifies the type of a widget.
 561:Generated_Source\PSoC4/CapSense_1_Filter.c **** *
 562:Generated_Source\PSoC4/CapSense_1_Filter.c **** * \param channel
 563:Generated_Source\PSoC4/CapSense_1_Filter.c **** *  Specifies the number of the channel to be initialized.
 564:Generated_Source\PSoC4/CapSense_1_Filter.c **** *
 565:Generated_Source\PSoC4/CapSense_1_Filter.c **** *******************************************************************************/
 566:Generated_Source\PSoC4/CapSense_1_Filter.c **** void CapSense_1_FtInitializeBaselineChannel(CapSense_1_RAM_SNS_STRUCT *ptrSensor, uint32 wdType, ui
 567:Generated_Source\PSoC4/CapSense_1_Filter.c **** {
  28              		.loc 1 567 0
  29              		.cfi_startproc
  30              		@ args = 0, pretend = 0, frame = 0
  31              		@ frame_needed = 0, uses_anonymous_args = 0
  32              		@ link register save eliminated.
  33              	.LVL0:
 568:Generated_Source\PSoC4/CapSense_1_Filter.c ****     #if (CapSense_1_BASELINE_TYPE == CapSense_1_IIR_BASELINE)
 569:Generated_Source\PSoC4/CapSense_1_Filter.c ****         if ((CapSense_1_WD_TYPE_ENUM)wdType != CapSense_1_WD_PROXIMITY_E)
  34              		.loc 1 569 0
  35 0000 FF23     		movs	r3, #255
  36 0002 1940     		ands	r1, r3
  37              	.LVL1:
  38 0004 0629     		cmp	r1, #6
  39 0006 02D0     		beq	.L2
 570:Generated_Source\PSoC4/CapSense_1_Filter.c ****         {
 571:Generated_Source\PSoC4/CapSense_1_Filter.c ****             #if (CapSense_1_REGULAR_SENSOR_EN)
 572:Generated_Source\PSoC4/CapSense_1_Filter.c ****                 #if (CapSense_1_REGULAR_IIR_BL_TYPE == CapSense_1_IIR_FILTER_PERFORMANCE)
 573:Generated_Source\PSoC4/CapSense_1_Filter.c ****                     ptrSensor->bslnExt[channel] = 0u;
  40              		.loc 1 573 0
  41 0008 8318     		adds	r3, r0, r2
  42 000a 0021     		movs	r1, #0
  43 000c 1971     		strb	r1, [r3, #4]
  44              	.L2:
 574:Generated_Source\PSoC4/CapSense_1_Filter.c ****                 #endif /* (CapSense_1_REGULAR_IIR_BL_TYPE == CapSense_1_IIR_FILTER_PERFORMANCE) */
 575:Generated_Source\PSoC4/CapSense_1_Filter.c ****             #endif /* (CapSense_1_REGULAR_SENSOR_EN) */
 576:Generated_Source\PSoC4/CapSense_1_Filter.c ****         }
 577:Generated_Source\PSoC4/CapSense_1_Filter.c ****         else
 578:Generated_Source\PSoC4/CapSense_1_Filter.c ****         {
 579:Generated_Source\PSoC4/CapSense_1_Filter.c ****             #if (CapSense_1_PROXIMITY_SENSOR_EN)
 580:Generated_Source\PSoC4/CapSense_1_Filter.c ****                 #if (CapSense_1_PROX_IIR_BL_TYPE == CapSense_1_IIR_FILTER_PERFORMANCE)
 581:Generated_Source\PSoC4/CapSense_1_Filter.c ****                     ptrSensor->bslnExt[channel] = 0u;
 582:Generated_Source\PSoC4/CapSense_1_Filter.c ****                 #endif /* (CapSense_1_PROX_IIR_BL_TYPE == CapSense_1_IIR_FILTER_PERFORMANCE) */
 583:Generated_Source\PSoC4/CapSense_1_Filter.c ****             #endif /* (CapSense_1_PROX_SENSOR_EN) */
ARM GAS  C:\Users\Mayur\AppData\Local\Temp\ccxZLytu.s 			page 12


 584:Generated_Source\PSoC4/CapSense_1_Filter.c ****         }
 585:Generated_Source\PSoC4/CapSense_1_Filter.c ****     #else
 586:Generated_Source\PSoC4/CapSense_1_Filter.c ****         /* CapSense_1_BASELINE_TYPE == CapSense_1_BUCKET_BASELINE */
 587:Generated_Source\PSoC4/CapSense_1_Filter.c ****         ptrSensor->bslnExt[channel] = 0u;
 588:Generated_Source\PSoC4/CapSense_1_Filter.c ****     #endif /* (CapSense_1_BASELINE_TYPE == CapSense_1_IIR_BASELINE) */
 589:Generated_Source\PSoC4/CapSense_1_Filter.c **** 
 590:Generated_Source\PSoC4/CapSense_1_Filter.c ****     ptrSensor->bsln[channel] = ptrSensor->raw[channel];
  45              		.loc 1 590 0
  46 000e 5300     		lsls	r3, r2, #1
  47 0010 195A     		ldrh	r1, [r3, r0]
  48 0012 C318     		adds	r3, r0, r3
  49 0014 5980     		strh	r1, [r3, #2]
 591:Generated_Source\PSoC4/CapSense_1_Filter.c **** 
 592:Generated_Source\PSoC4/CapSense_1_Filter.c ****     #if (CapSense_1_ENABLE == CapSense_1_TST_BSLN_DUPLICATION_EN)
 593:Generated_Source\PSoC4/CapSense_1_Filter.c ****     /* Update baseline inversion of the channel in sensor */
 594:Generated_Source\PSoC4/CapSense_1_Filter.c ****         ptrSensor->bslnInv[channel] = ~(ptrSensor->bsln[channel]);
 595:Generated_Source\PSoC4/CapSense_1_Filter.c ****     #endif /* (CapSense_1_ENABLE == CapSense_1_TST_BSLN_DUPLICATION_EN) */
 596:Generated_Source\PSoC4/CapSense_1_Filter.c **** 
 597:Generated_Source\PSoC4/CapSense_1_Filter.c ****     ptrSensor->negBslnRstCnt[channel] = 0u;
  50              		.loc 1 597 0
  51 0016 8218     		adds	r2, r0, r2
  52              	.LVL2:
  53 0018 0023     		movs	r3, #0
  54 001a 1372     		strb	r3, [r2, #8]
 598:Generated_Source\PSoC4/CapSense_1_Filter.c **** }
  55              		.loc 1 598 0
  56              		@ sp needed
  57 001c 7047     		bx	lr
  58              		.cfi_endproc
  59              	.LFE9:
  60              		.size	CapSense_1_FtInitializeBaselineChannel, .-CapSense_1_FtInitializeBaselineChannel
  61 001e C046     		.section	.text.CapSense_1_FtInitializeBaseline,"ax",%progbits
  62              		.align	2
  63              		.global	CapSense_1_FtInitializeBaseline
  64              		.code	16
  65              		.thumb_func
  66              		.type	CapSense_1_FtInitializeBaseline, %function
  67              	CapSense_1_FtInitializeBaseline:
  68              	.LFB8:
 533:Generated_Source\PSoC4/CapSense_1_Filter.c ****     uint32 freqChannel;
  69              		.loc 1 533 0
  70              		.cfi_startproc
  71              		@ args = 0, pretend = 0, frame = 0
  72              		@ frame_needed = 0, uses_anonymous_args = 0
  73              	.LVL3:
  74 0000 70B5     		push	{r4, r5, r6, lr}
  75              		.cfi_def_cfa_offset 16
  76              		.cfi_offset 4, -16
  77              		.cfi_offset 5, -12
  78              		.cfi_offset 6, -8
  79              		.cfi_offset 14, -4
  80 0002 0600     		movs	r6, r0
  81 0004 0D00     		movs	r5, r1
  82              	.LVL4:
 537:Generated_Source\PSoC4/CapSense_1_Filter.c ****     {
  83              		.loc 1 537 0
  84 0006 0123     		movs	r3, #1
ARM GAS  C:\Users\Mayur\AppData\Local\Temp\ccxZLytu.s 			page 13


  85 0008 05E0     		b	.L4
  86              	.LVL5:
  87              	.L5:
 539:Generated_Source\PSoC4/CapSense_1_Filter.c ****     }
  88              		.loc 1 539 0
  89 000a 2200     		movs	r2, r4
  90 000c 2900     		movs	r1, r5
  91 000e 3000     		movs	r0, r6
  92 0010 FFF7FEFF 		bl	CapSense_1_FtInitializeBaselineChannel
  93              	.LVL6:
 537:Generated_Source\PSoC4/CapSense_1_Filter.c ****     {
  94              		.loc 1 537 0
  95 0014 2300     		movs	r3, r4
  96              	.LVL7:
  97              	.L4:
 537:Generated_Source\PSoC4/CapSense_1_Filter.c ****     {
  98              		.loc 1 537 0 is_stmt 0 discriminator 1
  99 0016 5C1E     		subs	r4, r3, #1
 100              	.LVL8:
 101 0018 002B     		cmp	r3, #0
 102 001a F6D1     		bne	.L5
 541:Generated_Source\PSoC4/CapSense_1_Filter.c **** 
 103              		.loc 1 541 0 is_stmt 1
 104              		@ sp needed
 105              	.LVL9:
 106              	.LVL10:
 107              	.LVL11:
 108 001c 70BD     		pop	{r4, r5, r6, pc}
 109              		.cfi_endproc
 110              	.LFE8:
 111              		.size	CapSense_1_FtInitializeBaseline, .-CapSense_1_FtInitializeBaseline
 112 001e C046     		.section	.text.CapSense_1_InitializeSensorBaseline,"ax",%progbits
 113              		.align	2
 114              		.global	CapSense_1_InitializeSensorBaseline
 115              		.code	16
 116              		.thumb_func
 117              		.type	CapSense_1_InitializeSensorBaseline, %function
 118              	CapSense_1_InitializeSensorBaseline:
 119              	.LFB7:
 500:Generated_Source\PSoC4/CapSense_1_Filter.c ****     CapSense_1_RAM_SNS_STRUCT *ptrSensor = NULL;
 120              		.loc 1 500 0
 121              		.cfi_startproc
 122              		@ args = 0, pretend = 0, frame = 0
 123              		@ frame_needed = 0, uses_anonymous_args = 0
 124              	.LVL12:
 125 0000 10B5     		push	{r4, lr}
 126              		.cfi_def_cfa_offset 8
 127              		.cfi_offset 4, -8
 128              		.cfi_offset 14, -4
 129              	.LVL13:
 506:Generated_Source\PSoC4/CapSense_1_Filter.c ****     ptrSensor = &ptrSensor[sensorId];
 130              		.loc 1 506 0
 131 0002 4001     		lsls	r0, r0, #5
 132              	.LVL14:
 133 0004 054B     		ldr	r3, .L7
 134 0006 1B18     		adds	r3, r3, r0
 135              	.LVL15:
ARM GAS  C:\Users\Mayur\AppData\Local\Temp\ccxZLytu.s 			page 14


 507:Generated_Source\PSoC4/CapSense_1_Filter.c **** 
 136              		.loc 1 507 0
 137 0008 8A00     		lsls	r2, r1, #2
 138 000a 5118     		adds	r1, r2, r1
 139              	.LVL16:
 140 000c 4800     		lsls	r0, r1, #1
 141 000e 9A68     		ldr	r2, [r3, #8]
 142 0010 9446     		mov	ip, r2
 143 0012 6044     		add	r0, r0, ip
 144              	.LVL17:
 509:Generated_Source\PSoC4/CapSense_1_Filter.c **** }
 145              		.loc 1 509 0
 146 0014 997E     		ldrb	r1, [r3, #26]
 147 0016 FFF7FEFF 		bl	CapSense_1_FtInitializeBaseline
 148              	.LVL18:
 510:Generated_Source\PSoC4/CapSense_1_Filter.c **** 
 149              		.loc 1 510 0
 150              		@ sp needed
 151 001a 10BD     		pop	{r4, pc}
 152              	.L8:
 153              		.align	2
 154              	.L7:
 155 001c 00000000 		.word	CapSense_1_dsFlash
 156              		.cfi_endproc
 157              	.LFE7:
 158              		.size	CapSense_1_InitializeSensorBaseline, .-CapSense_1_InitializeSensorBaseline
 159              		.section	.text.CapSense_1_InitializeWidgetBaseline,"ax",%progbits
 160              		.align	2
 161              		.global	CapSense_1_InitializeWidgetBaseline
 162              		.code	16
 163              		.thumb_func
 164              		.type	CapSense_1_InitializeWidgetBaseline, %function
 165              	CapSense_1_InitializeWidgetBaseline:
 166              	.LFB6:
 456:Generated_Source\PSoC4/CapSense_1_Filter.c ****     uint32 sensorId;
 167              		.loc 1 456 0
 168              		.cfi_startproc
 169              		@ args = 0, pretend = 0, frame = 0
 170              		@ frame_needed = 0, uses_anonymous_args = 0
 171              	.LVL19:
 172 0000 70B5     		push	{r4, r5, r6, lr}
 173              		.cfi_def_cfa_offset 16
 174              		.cfi_offset 4, -16
 175              		.cfi_offset 5, -12
 176              		.cfi_offset 6, -8
 177              		.cfi_offset 14, -4
 178 0002 0500     		movs	r5, r0
 179              	.LVL20:
 463:Generated_Source\PSoC4/CapSense_1_Filter.c **** 
 180              		.loc 1 463 0
 181 0004 4301     		lsls	r3, r0, #5
 182 0006 064A     		ldr	r2, .L12
 183 0008 D318     		adds	r3, r2, r3
 184              	.LVL21:
 185 000a 1B8B     		ldrh	r3, [r3, #24]
 186              	.LVL22:
 465:Generated_Source\PSoC4/CapSense_1_Filter.c ****     {
ARM GAS  C:\Users\Mayur\AppData\Local\Temp\ccxZLytu.s 			page 15


 187              		.loc 1 465 0
 188 000c 04E0     		b	.L10
 189              	.LVL23:
 190              	.L11:
 467:Generated_Source\PSoC4/CapSense_1_Filter.c ****     }
 191              		.loc 1 467 0
 192 000e 2100     		movs	r1, r4
 193 0010 2800     		movs	r0, r5
 194 0012 FFF7FEFF 		bl	CapSense_1_InitializeSensorBaseline
 195              	.LVL24:
 465:Generated_Source\PSoC4/CapSense_1_Filter.c ****     {
 196              		.loc 1 465 0
 197 0016 2300     		movs	r3, r4
 198              	.LVL25:
 199              	.L10:
 465:Generated_Source\PSoC4/CapSense_1_Filter.c ****     {
 200              		.loc 1 465 0 is_stmt 0 discriminator 1
 201 0018 5C1E     		subs	r4, r3, #1
 202              	.LVL26:
 203 001a 002B     		cmp	r3, #0
 204 001c F7D1     		bne	.L11
 469:Generated_Source\PSoC4/CapSense_1_Filter.c **** 
 205              		.loc 1 469 0 is_stmt 1
 206              		@ sp needed
 207              	.LVL27:
 208              	.LVL28:
 209 001e 70BD     		pop	{r4, r5, r6, pc}
 210              	.L13:
 211              		.align	2
 212              	.L12:
 213 0020 00000000 		.word	CapSense_1_dsFlash
 214              		.cfi_endproc
 215              	.LFE6:
 216              		.size	CapSense_1_InitializeWidgetBaseline, .-CapSense_1_InitializeWidgetBaseline
 217              		.section	.text.CapSense_1_InitializeAllBaselines,"ax",%progbits
 218              		.align	2
 219              		.global	CapSense_1_InitializeAllBaselines
 220              		.code	16
 221              		.thumb_func
 222              		.type	CapSense_1_InitializeAllBaselines, %function
 223              	CapSense_1_InitializeAllBaselines:
 224              	.LFB5:
 420:Generated_Source\PSoC4/CapSense_1_Filter.c ****     uint32 widgetId;
 225              		.loc 1 420 0
 226              		.cfi_startproc
 227              		@ args = 0, pretend = 0, frame = 0
 228              		@ frame_needed = 0, uses_anonymous_args = 0
 229 0000 10B5     		push	{r4, lr}
 230              		.cfi_def_cfa_offset 8
 231              		.cfi_offset 4, -8
 232              		.cfi_offset 14, -4
 233              	.LVL29:
 423:Generated_Source\PSoC4/CapSense_1_Filter.c ****     {
 234              		.loc 1 423 0
 235 0002 0823     		movs	r3, #8
 236 0004 03E0     		b	.L15
 237              	.LVL30:
ARM GAS  C:\Users\Mayur\AppData\Local\Temp\ccxZLytu.s 			page 16


 238              	.L16:
 425:Generated_Source\PSoC4/CapSense_1_Filter.c ****     }
 239              		.loc 1 425 0
 240 0006 2000     		movs	r0, r4
 241 0008 FFF7FEFF 		bl	CapSense_1_InitializeWidgetBaseline
 242              	.LVL31:
 423:Generated_Source\PSoC4/CapSense_1_Filter.c ****     {
 243              		.loc 1 423 0
 244 000c 2300     		movs	r3, r4
 245              	.LVL32:
 246              	.L15:
 423:Generated_Source\PSoC4/CapSense_1_Filter.c ****     {
 247              		.loc 1 423 0 is_stmt 0 discriminator 1
 248 000e 5C1E     		subs	r4, r3, #1
 249              	.LVL33:
 250 0010 002B     		cmp	r3, #0
 251 0012 F8D1     		bne	.L16
 427:Generated_Source\PSoC4/CapSense_1_Filter.c **** 
 252              		.loc 1 427 0 is_stmt 1
 253              		@ sp needed
 254              	.LVL34:
 255 0014 10BD     		pop	{r4, pc}
 256              		.cfi_endproc
 257              	.LFE5:
 258              		.size	CapSense_1_InitializeAllBaselines, .-CapSense_1_InitializeAllBaselines
 259 0016 C046     		.section	.text.CapSense_1_InitializeIIRInternal,"ax",%progbits
 260              		.align	2
 261              		.global	CapSense_1_InitializeIIRInternal
 262              		.code	16
 263              		.thumb_func
 264              		.type	CapSense_1_InitializeIIRInternal, %function
 265              	CapSense_1_InitializeIIRInternal:
 266              	.LFB14:
 599:Generated_Source\PSoC4/CapSense_1_Filter.c **** 
 600:Generated_Source\PSoC4/CapSense_1_Filter.c **** #if ((CapSense_1_ENABLE == CapSense_1_RC_FILTER_EN) || \
 601:Generated_Source\PSoC4/CapSense_1_Filter.c ****      (0u != (CapSense_1_CSD_AUTOTUNE & CapSense_1_CSD_SS_TH_EN)))
 602:Generated_Source\PSoC4/CapSense_1_Filter.c **** /*******************************************************************************
 603:Generated_Source\PSoC4/CapSense_1_Filter.c **** * Function Name: CapSense_1_InitializeAllFilters
 604:Generated_Source\PSoC4/CapSense_1_Filter.c **** ****************************************************************************//**
 605:Generated_Source\PSoC4/CapSense_1_Filter.c **** *
 606:Generated_Source\PSoC4/CapSense_1_Filter.c **** * \brief
 607:Generated_Source\PSoC4/CapSense_1_Filter.c **** *  Initializes (or re-initializes) the raw count filter history of all the
 608:Generated_Source\PSoC4/CapSense_1_Filter.c **** *  sensors of all the widgets.
 609:Generated_Source\PSoC4/CapSense_1_Filter.c **** *
 610:Generated_Source\PSoC4/CapSense_1_Filter.c **** * \details
 611:Generated_Source\PSoC4/CapSense_1_Filter.c **** *  Initializes the raw count filter history for all the sensors of all the
 612:Generated_Source\PSoC4/CapSense_1_Filter.c **** *  widgets. Also, this function can be used to re-initialize baselines.
 613:Generated_Source\PSoC4/CapSense_1_Filter.c **** *  CapSense_1_Start() calls this API as part of CapSense_1
 614:Generated_Source\PSoC4/CapSense_1_Filter.c **** *  operation initialization.
 615:Generated_Source\PSoC4/CapSense_1_Filter.c **** *
 616:Generated_Source\PSoC4/CapSense_1_Filter.c **** *******************************************************************************/
 617:Generated_Source\PSoC4/CapSense_1_Filter.c **** void CapSense_1_InitializeAllFilters(void)
 618:Generated_Source\PSoC4/CapSense_1_Filter.c **** {
 619:Generated_Source\PSoC4/CapSense_1_Filter.c ****     uint32 widgetId;
 620:Generated_Source\PSoC4/CapSense_1_Filter.c **** 
 621:Generated_Source\PSoC4/CapSense_1_Filter.c ****     for(widgetId = CapSense_1_TOTAL_WIDGETS; widgetId-- > 0u;)
 622:Generated_Source\PSoC4/CapSense_1_Filter.c ****     {
ARM GAS  C:\Users\Mayur\AppData\Local\Temp\ccxZLytu.s 			page 17


 623:Generated_Source\PSoC4/CapSense_1_Filter.c ****         CapSense_1_InitializeWidgetFilter(widgetId);
 624:Generated_Source\PSoC4/CapSense_1_Filter.c ****     }
 625:Generated_Source\PSoC4/CapSense_1_Filter.c **** }
 626:Generated_Source\PSoC4/CapSense_1_Filter.c **** 
 627:Generated_Source\PSoC4/CapSense_1_Filter.c **** /*******************************************************************************
 628:Generated_Source\PSoC4/CapSense_1_Filter.c **** * Function Name: CapSense_1_InitializeWidgetFilter
 629:Generated_Source\PSoC4/CapSense_1_Filter.c **** ****************************************************************************//**
 630:Generated_Source\PSoC4/CapSense_1_Filter.c **** *
 631:Generated_Source\PSoC4/CapSense_1_Filter.c **** * \brief
 632:Generated_Source\PSoC4/CapSense_1_Filter.c **** *  Initializes (or re-initializes) the raw count filter history of all the sensors
 633:Generated_Source\PSoC4/CapSense_1_Filter.c **** *  in a widget specified by the input parameter.
 634:Generated_Source\PSoC4/CapSense_1_Filter.c **** *
 635:Generated_Source\PSoC4/CapSense_1_Filter.c **** * \details
 636:Generated_Source\PSoC4/CapSense_1_Filter.c **** *  Initializes (or re-initializes) the raw count filter history of all the sensors
 637:Generated_Source\PSoC4/CapSense_1_Filter.c **** *  in a widget specified by the input parameter.
 638:Generated_Source\PSoC4/CapSense_1_Filter.c **** *
 639:Generated_Source\PSoC4/CapSense_1_Filter.c **** * \param widgetId
 640:Generated_Source\PSoC4/CapSense_1_Filter.c **** *  Specifies the ID number of a widget to initialize the filter history of all
 641:Generated_Source\PSoC4/CapSense_1_Filter.c **** *  the sensors in the widget.
 642:Generated_Source\PSoC4/CapSense_1_Filter.c **** *  A macro for the widget ID can be found in the
 643:Generated_Source\PSoC4/CapSense_1_Filter.c **** *  CapSense_1 Configuration header file defined as
 644:Generated_Source\PSoC4/CapSense_1_Filter.c **** *  CapSense_1_<WidgetName>_WDGT_ID.
 645:Generated_Source\PSoC4/CapSense_1_Filter.c **** *
 646:Generated_Source\PSoC4/CapSense_1_Filter.c **** *******************************************************************************/
 647:Generated_Source\PSoC4/CapSense_1_Filter.c **** void CapSense_1_InitializeWidgetFilter(uint32 widgetId)
 648:Generated_Source\PSoC4/CapSense_1_Filter.c **** {
 649:Generated_Source\PSoC4/CapSense_1_Filter.c ****     uint32 sensorId;
 650:Generated_Source\PSoC4/CapSense_1_Filter.c ****     uint32 sensorsNumber;
 651:Generated_Source\PSoC4/CapSense_1_Filter.c **** 
 652:Generated_Source\PSoC4/CapSense_1_Filter.c ****     CapSense_1_FLASH_WD_STRUCT const *ptrWidget;
 653:Generated_Source\PSoC4/CapSense_1_Filter.c ****     CapSense_1_RAM_SNS_STRUCT *ptrSensor = NULL;
 654:Generated_Source\PSoC4/CapSense_1_Filter.c ****     #if (CapSense_1_ENABLE == CapSense_1_RC_FILTER_EN)
 655:Generated_Source\PSoC4/CapSense_1_Filter.c ****         CapSense_1_PTR_FILTER_VARIANT ptrFilterHistObj;
 656:Generated_Source\PSoC4/CapSense_1_Filter.c ****     #endif
 657:Generated_Source\PSoC4/CapSense_1_Filter.c **** 
 658:Generated_Source\PSoC4/CapSense_1_Filter.c ****     #if (0u != (CapSense_1_CSD_AUTOTUNE & CapSense_1_CSD_SS_TH_EN))
 659:Generated_Source\PSoC4/CapSense_1_Filter.c ****         CapSense_1_RAM_WD_BASE_STRUCT *ptrWidgetRam;
 660:Generated_Source\PSoC4/CapSense_1_Filter.c ****         SMARTSENSE_CSD_NOISE_ENVELOPE_STRUCT *ptrNoiseEnvelope = NULL;
 661:Generated_Source\PSoC4/CapSense_1_Filter.c ****     #endif /* (0u != (CapSense_1_CSD_AUTOTUNE & CapSense_1_CSD_SS_TH_EN)) */
 662:Generated_Source\PSoC4/CapSense_1_Filter.c **** 
 663:Generated_Source\PSoC4/CapSense_1_Filter.c ****     ptrWidget = &CapSense_1_dsFlash.wdgtArray[widgetId];
 664:Generated_Source\PSoC4/CapSense_1_Filter.c **** 
 665:Generated_Source\PSoC4/CapSense_1_Filter.c ****     #if (0u != (CapSense_1_CSD_AUTOTUNE & CapSense_1_CSD_SS_TH_EN))
 666:Generated_Source\PSoC4/CapSense_1_Filter.c ****         ptrWidgetRam = ptrWidget->ptr2WdgtRam;
 667:Generated_Source\PSoC4/CapSense_1_Filter.c ****     #endif /* (0u != (CapSense_1_CSD_AUTOTUNE & CapSense_1_CSD_SS_TH_EN)) */
 668:Generated_Source\PSoC4/CapSense_1_Filter.c **** 
 669:Generated_Source\PSoC4/CapSense_1_Filter.c ****     /* Find total amount of sensors in specified widget */
 670:Generated_Source\PSoC4/CapSense_1_Filter.c ****     sensorsNumber = CapSense_1_GET_SNS_CNT_BY_PTR(ptrWidget);
 671:Generated_Source\PSoC4/CapSense_1_Filter.c **** 
 672:Generated_Source\PSoC4/CapSense_1_Filter.c ****     for (sensorId = sensorsNumber; sensorId-- > 0u;)
 673:Generated_Source\PSoC4/CapSense_1_Filter.c ****     {
 674:Generated_Source\PSoC4/CapSense_1_Filter.c ****         /* Find pointer to specified sensor object */
 675:Generated_Source\PSoC4/CapSense_1_Filter.c ****         ptrSensor = ptrWidget->ptr2SnsRam;
 676:Generated_Source\PSoC4/CapSense_1_Filter.c ****         ptrSensor = &ptrSensor[sensorId];
 677:Generated_Source\PSoC4/CapSense_1_Filter.c **** 
 678:Generated_Source\PSoC4/CapSense_1_Filter.c ****         #if (CapSense_1_ENABLE == CapSense_1_RC_FILTER_EN)
 679:Generated_Source\PSoC4/CapSense_1_Filter.c ****             /* Find pointer to to specified filter sensor object */
ARM GAS  C:\Users\Mayur\AppData\Local\Temp\ccxZLytu.s 			page 18


 680:Generated_Source\PSoC4/CapSense_1_Filter.c ****             ptrFilterHistObj.ptr = ptrWidget->ptr2FltrHistory;
 681:Generated_Source\PSoC4/CapSense_1_Filter.c ****         #endif
 682:Generated_Source\PSoC4/CapSense_1_Filter.c **** 
 683:Generated_Source\PSoC4/CapSense_1_Filter.c ****         #if (0u != (CapSense_1_CSD_AUTOTUNE & CapSense_1_CSD_SS_TH_EN))
 684:Generated_Source\PSoC4/CapSense_1_Filter.c ****             /* Find pointer to specified noise envelope sensor object */
 685:Generated_Source\PSoC4/CapSense_1_Filter.c ****             ptrNoiseEnvelope = ptrWidget->ptr2NoiseEnvlp;
 686:Generated_Source\PSoC4/CapSense_1_Filter.c ****             ptrNoiseEnvelope = &ptrNoiseEnvelope[sensorId];
 687:Generated_Source\PSoC4/CapSense_1_Filter.c ****         #endif /* (0u != (CapSense_1_CSD_AUTOTUNE & CapSense_1_CSD_SS_TH_EN)) */
 688:Generated_Source\PSoC4/CapSense_1_Filter.c **** 
 689:Generated_Source\PSoC4/CapSense_1_Filter.c ****         if ((CapSense_1_WD_TYPE_ENUM)ptrWidget->wdgtType != CapSense_1_WD_PROXIMITY_E)
 690:Generated_Source\PSoC4/CapSense_1_Filter.c ****         {
 691:Generated_Source\PSoC4/CapSense_1_Filter.c ****             #if (0u != CapSense_1_REGULAR_RC_ALP_FILTER_EN)
 692:Generated_Source\PSoC4/CapSense_1_Filter.c ****                 ptrFilterHistObj.ptrAlp = &ptrFilterHistObj.ptrAlp[sensorId];
 693:Generated_Source\PSoC4/CapSense_1_Filter.c ****             #elif (0u != CapSense_1_REGULAR_RC_FILTER_EN)
 694:Generated_Source\PSoC4/CapSense_1_Filter.c ****                 ptrFilterHistObj.ptrRegular = &ptrFilterHistObj.ptrRegular[sensorId];
 695:Generated_Source\PSoC4/CapSense_1_Filter.c ****             #endif
 696:Generated_Source\PSoC4/CapSense_1_Filter.c ****         }
 697:Generated_Source\PSoC4/CapSense_1_Filter.c ****         else
 698:Generated_Source\PSoC4/CapSense_1_Filter.c ****         {
 699:Generated_Source\PSoC4/CapSense_1_Filter.c ****             #if (0u != CapSense_1_PROX_RC_ALP_FILTER_EN)
 700:Generated_Source\PSoC4/CapSense_1_Filter.c ****                 ptrFilterHistObj.ptrAlp = &ptrFilterHistObj.ptrAlp[sensorId];
 701:Generated_Source\PSoC4/CapSense_1_Filter.c ****             #elif (0u != CapSense_1_PROX_RC_FILTER_EN)
 702:Generated_Source\PSoC4/CapSense_1_Filter.c ****                 ptrFilterHistObj.ptrProx = &ptrFilterHistObj.ptrProx[sensorId];
 703:Generated_Source\PSoC4/CapSense_1_Filter.c ****             #endif /* #if (0u != CapSense_1_PROX_RC_FILTER_EN) */
 704:Generated_Source\PSoC4/CapSense_1_Filter.c ****         }
 705:Generated_Source\PSoC4/CapSense_1_Filter.c **** 
 706:Generated_Source\PSoC4/CapSense_1_Filter.c ****         #if (CapSense_1_REGULAR_RC_IIR_FILTER_EN || CapSense_1_PROX_RC_IIR_FILTER_EN)
 707:Generated_Source\PSoC4/CapSense_1_Filter.c ****             CapSense_1_InitializeIIRInternal(ptrFilterHistObj, ptrSensor, (uint32)ptrWidget->wdgtTy
 708:Generated_Source\PSoC4/CapSense_1_Filter.c ****         #endif /* (CapSense_1_REGULAR_RC_IIR_FILTER_EN || CapSense_1_PROX_RC_IIR_FILTER_EN) */
 709:Generated_Source\PSoC4/CapSense_1_Filter.c **** 
 710:Generated_Source\PSoC4/CapSense_1_Filter.c ****         #if (CapSense_1_REGULAR_RC_MEDIAN_FILTER_EN || CapSense_1_PROX_RC_MEDIAN_FILTER_EN)
 711:Generated_Source\PSoC4/CapSense_1_Filter.c ****             CapSense_1_InitializeMedianInternal(ptrFilterHistObj, ptrSensor, (uint32)ptrWidget->wdg
 712:Generated_Source\PSoC4/CapSense_1_Filter.c ****         #endif /* (CapSense_1_REGULAR_RC_MEDIAN_FILTER_EN || CapSense_1_PROX_RC_MEDIAN_FILTER_EN) *
 713:Generated_Source\PSoC4/CapSense_1_Filter.c **** 
 714:Generated_Source\PSoC4/CapSense_1_Filter.c ****         #if (CapSense_1_REGULAR_RC_AVERAGE_FILTER_EN || CapSense_1_PROX_RC_AVERAGE_FILTER_EN)
 715:Generated_Source\PSoC4/CapSense_1_Filter.c ****             CapSense_1_InitializeAverageInternal(ptrFilterHistObj, ptrSensor, (uint32)ptrWidget->wd
 716:Generated_Source\PSoC4/CapSense_1_Filter.c ****         #endif /* (CapSense_1_REGULAR_RC_AVERAGE_FILTER_EN || CapSense_1_PROX_RC_AVERAGE_FILTER_EN)
 717:Generated_Source\PSoC4/CapSense_1_Filter.c **** 
 718:Generated_Source\PSoC4/CapSense_1_Filter.c ****         #if (CapSense_1_ALP_FILTER_EN)
 719:Generated_Source\PSoC4/CapSense_1_Filter.c ****             CapSense_1_InitializeALPInternal(ptrFilterHistObj, ptrSensor, (uint32)ptrWidget->wdgtTy
 720:Generated_Source\PSoC4/CapSense_1_Filter.c ****         #endif
 721:Generated_Source\PSoC4/CapSense_1_Filter.c **** 
 722:Generated_Source\PSoC4/CapSense_1_Filter.c ****         #if (0u != (CapSense_1_CSD_AUTOTUNE & CapSense_1_CSD_SS_TH_EN))
 723:Generated_Source\PSoC4/CapSense_1_Filter.c ****             if (CapSense_1_SENSE_METHOD_CSD_E ==
 724:Generated_Source\PSoC4/CapSense_1_Filter.c ****                 CapSense_1_GET_SENSE_METHOD(&CapSense_1_dsFlash.wdgtArray[widgetId]))
 725:Generated_Source\PSoC4/CapSense_1_Filter.c ****             {
 726:Generated_Source\PSoC4/CapSense_1_Filter.c ****                 SmartSense_InitializeNoiseEnvelope(ptrSensor->raw[0u], ptrWidgetRam->sigPFC, ptrNoi
 727:Generated_Source\PSoC4/CapSense_1_Filter.c ****             }
 728:Generated_Source\PSoC4/CapSense_1_Filter.c ****         #endif /* (0u != (CapSense_1_CSD_AUTOTUNE & CapSense_1_CSD_SS_TH_EN)) */
 729:Generated_Source\PSoC4/CapSense_1_Filter.c ****     }
 730:Generated_Source\PSoC4/CapSense_1_Filter.c **** }
 731:Generated_Source\PSoC4/CapSense_1_Filter.c **** #endif /* ((CapSense_1_ENABLE == CapSense_1_RC_FILTER_EN) || \
 732:Generated_Source\PSoC4/CapSense_1_Filter.c ****            (0u != (CapSense_1_CSD_AUTOTUNE & CapSense_1_CSD_SS_TH_EN))) */
 733:Generated_Source\PSoC4/CapSense_1_Filter.c **** 
 734:Generated_Source\PSoC4/CapSense_1_Filter.c **** #if (CapSense_1_REGULAR_RC_IIR_FILTER_EN || CapSense_1_PROX_RC_IIR_FILTER_EN)
 735:Generated_Source\PSoC4/CapSense_1_Filter.c **** /*******************************************************************************
 736:Generated_Source\PSoC4/CapSense_1_Filter.c **** * Function Name: CapSense_1_InitializeIIR
ARM GAS  C:\Users\Mayur\AppData\Local\Temp\ccxZLytu.s 			page 19


 737:Generated_Source\PSoC4/CapSense_1_Filter.c **** ****************************************************************************//**
 738:Generated_Source\PSoC4/CapSense_1_Filter.c **** *
 739:Generated_Source\PSoC4/CapSense_1_Filter.c **** * \brief
 740:Generated_Source\PSoC4/CapSense_1_Filter.c **** *  Initialize the IIR filter history.
 741:Generated_Source\PSoC4/CapSense_1_Filter.c **** *
 742:Generated_Source\PSoC4/CapSense_1_Filter.c **** * \details
 743:Generated_Source\PSoC4/CapSense_1_Filter.c **** *  Initialize the IIR filter history.
 744:Generated_Source\PSoC4/CapSense_1_Filter.c **** *
 745:Generated_Source\PSoC4/CapSense_1_Filter.c **** * \param widgetId
 746:Generated_Source\PSoC4/CapSense_1_Filter.c **** *  Specifies the ID number of the widget.
 747:Generated_Source\PSoC4/CapSense_1_Filter.c **** *
 748:Generated_Source\PSoC4/CapSense_1_Filter.c **** * \param sensorId
 749:Generated_Source\PSoC4/CapSense_1_Filter.c **** *  Specifies the ID number of the sensor in the widget.
 750:Generated_Source\PSoC4/CapSense_1_Filter.c **** *
 751:Generated_Source\PSoC4/CapSense_1_Filter.c **** *******************************************************************************/
 752:Generated_Source\PSoC4/CapSense_1_Filter.c **** void CapSense_1_InitializeIIR(uint32 widgetId, uint32 sensorId)
 753:Generated_Source\PSoC4/CapSense_1_Filter.c **** {
 754:Generated_Source\PSoC4/CapSense_1_Filter.c ****     CapSense_1_FLASH_WD_STRUCT const *ptrWidget = &CapSense_1_dsFlash.wdgtArray[widgetId];
 755:Generated_Source\PSoC4/CapSense_1_Filter.c ****     CapSense_1_RAM_SNS_STRUCT *ptrSensor = NULL;
 756:Generated_Source\PSoC4/CapSense_1_Filter.c ****     CapSense_1_PTR_FILTER_VARIANT ptrFilterHistObj;
 757:Generated_Source\PSoC4/CapSense_1_Filter.c **** 
 758:Generated_Source\PSoC4/CapSense_1_Filter.c ****     /* Find pointer to specified sensor object */
 759:Generated_Source\PSoC4/CapSense_1_Filter.c ****     ptrSensor = ptrWidget->ptr2SnsRam;
 760:Generated_Source\PSoC4/CapSense_1_Filter.c ****     ptrSensor = &ptrSensor[sensorId];
 761:Generated_Source\PSoC4/CapSense_1_Filter.c **** 
 762:Generated_Source\PSoC4/CapSense_1_Filter.c ****     /* Find pointer to specified filter sensor object */
 763:Generated_Source\PSoC4/CapSense_1_Filter.c ****     ptrFilterHistObj.ptr = ptrWidget->ptr2FltrHistory;
 764:Generated_Source\PSoC4/CapSense_1_Filter.c **** 
 765:Generated_Source\PSoC4/CapSense_1_Filter.c ****     if ((CapSense_1_WD_TYPE_ENUM)ptrWidget->wdgtType != CapSense_1_WD_PROXIMITY_E)
 766:Generated_Source\PSoC4/CapSense_1_Filter.c ****     {
 767:Generated_Source\PSoC4/CapSense_1_Filter.c ****         #if (CapSense_1_REGULAR_SENSOR_EN)
 768:Generated_Source\PSoC4/CapSense_1_Filter.c ****             ptrFilterHistObj.ptrRegular = &ptrFilterHistObj.ptrRegular[sensorId];
 769:Generated_Source\PSoC4/CapSense_1_Filter.c ****         #endif /* (CapSense_1_REGULAR_SENSOR_EN) */
 770:Generated_Source\PSoC4/CapSense_1_Filter.c ****     }
 771:Generated_Source\PSoC4/CapSense_1_Filter.c ****     else
 772:Generated_Source\PSoC4/CapSense_1_Filter.c ****     {
 773:Generated_Source\PSoC4/CapSense_1_Filter.c ****         #if (CapSense_1_PROXIMITY_SENSOR_EN)
 774:Generated_Source\PSoC4/CapSense_1_Filter.c ****             ptrFilterHistObj.ptrProx = &ptrFilterHistObj.ptrProx[sensorId];
 775:Generated_Source\PSoC4/CapSense_1_Filter.c ****         #endif /* (CapSense_1_PROXIMITY_SENSOR_EN) */
 776:Generated_Source\PSoC4/CapSense_1_Filter.c ****     }
 777:Generated_Source\PSoC4/CapSense_1_Filter.c **** 
 778:Generated_Source\PSoC4/CapSense_1_Filter.c ****     CapSense_1_InitializeIIRInternal(ptrFilterHistObj, ptrSensor, (uint32)ptrWidget->wdgtType);
 779:Generated_Source\PSoC4/CapSense_1_Filter.c **** }
 780:Generated_Source\PSoC4/CapSense_1_Filter.c **** 
 781:Generated_Source\PSoC4/CapSense_1_Filter.c **** 
 782:Generated_Source\PSoC4/CapSense_1_Filter.c **** /*******************************************************************************
 783:Generated_Source\PSoC4/CapSense_1_Filter.c **** * Function Name: CapSense_1_RunIIR
 784:Generated_Source\PSoC4/CapSense_1_Filter.c **** ****************************************************************************//**
 785:Generated_Source\PSoC4/CapSense_1_Filter.c **** *
 786:Generated_Source\PSoC4/CapSense_1_Filter.c **** * \brief
 787:Generated_Source\PSoC4/CapSense_1_Filter.c **** *  Executes the IIR filter algorithm on a sensor indicated by an input
 788:Generated_Source\PSoC4/CapSense_1_Filter.c **** *  parameter.
 789:Generated_Source\PSoC4/CapSense_1_Filter.c **** *
 790:Generated_Source\PSoC4/CapSense_1_Filter.c **** * \details
 791:Generated_Source\PSoC4/CapSense_1_Filter.c **** *  Executes the IIR filter algorithm on a sensor indicated by an input
 792:Generated_Source\PSoC4/CapSense_1_Filter.c **** *  parameter.
 793:Generated_Source\PSoC4/CapSense_1_Filter.c **** *
ARM GAS  C:\Users\Mayur\AppData\Local\Temp\ccxZLytu.s 			page 20


 794:Generated_Source\PSoC4/CapSense_1_Filter.c **** * \param widgetId
 795:Generated_Source\PSoC4/CapSense_1_Filter.c **** *  Specifies the ID number of the widget.
 796:Generated_Source\PSoC4/CapSense_1_Filter.c **** *
 797:Generated_Source\PSoC4/CapSense_1_Filter.c **** * \param sensorId
 798:Generated_Source\PSoC4/CapSense_1_Filter.c **** *  Specifies the ID number of the sensor in the widget.
 799:Generated_Source\PSoC4/CapSense_1_Filter.c **** *
 800:Generated_Source\PSoC4/CapSense_1_Filter.c **** *******************************************************************************/
 801:Generated_Source\PSoC4/CapSense_1_Filter.c **** void CapSense_1_RunIIR(uint32 widgetId, uint32 sensorId)
 802:Generated_Source\PSoC4/CapSense_1_Filter.c **** {
 803:Generated_Source\PSoC4/CapSense_1_Filter.c ****     CapSense_1_FLASH_WD_STRUCT const *ptrWidget = &CapSense_1_dsFlash.wdgtArray[widgetId];
 804:Generated_Source\PSoC4/CapSense_1_Filter.c ****     CapSense_1_RAM_SNS_STRUCT *ptrSensor = NULL;
 805:Generated_Source\PSoC4/CapSense_1_Filter.c ****     CapSense_1_PTR_FILTER_VARIANT ptrFilterHistObj;
 806:Generated_Source\PSoC4/CapSense_1_Filter.c **** 
 807:Generated_Source\PSoC4/CapSense_1_Filter.c ****     /* Find pointer to specified sensor object */
 808:Generated_Source\PSoC4/CapSense_1_Filter.c ****     ptrSensor = ptrWidget->ptr2SnsRam;
 809:Generated_Source\PSoC4/CapSense_1_Filter.c ****     ptrSensor = &ptrSensor[sensorId];
 810:Generated_Source\PSoC4/CapSense_1_Filter.c **** 
 811:Generated_Source\PSoC4/CapSense_1_Filter.c ****     /* Find pointer to specified filter sensor object */
 812:Generated_Source\PSoC4/CapSense_1_Filter.c ****     ptrFilterHistObj.ptr = ptrWidget->ptr2FltrHistory;
 813:Generated_Source\PSoC4/CapSense_1_Filter.c **** 
 814:Generated_Source\PSoC4/CapSense_1_Filter.c ****     if ((CapSense_1_WD_TYPE_ENUM)ptrWidget->wdgtType != CapSense_1_WD_PROXIMITY_E)
 815:Generated_Source\PSoC4/CapSense_1_Filter.c ****     {
 816:Generated_Source\PSoC4/CapSense_1_Filter.c ****         #if (CapSense_1_REGULAR_SENSOR_EN)
 817:Generated_Source\PSoC4/CapSense_1_Filter.c ****             ptrFilterHistObj.ptrRegular = &ptrFilterHistObj.ptrRegular[sensorId];
 818:Generated_Source\PSoC4/CapSense_1_Filter.c ****         #endif /* (CapSense_1_REGULAR_SENSOR_EN) */
 819:Generated_Source\PSoC4/CapSense_1_Filter.c ****     }
 820:Generated_Source\PSoC4/CapSense_1_Filter.c ****     else
 821:Generated_Source\PSoC4/CapSense_1_Filter.c ****     {
 822:Generated_Source\PSoC4/CapSense_1_Filter.c ****         #if (CapSense_1_PROXIMITY_SENSOR_EN)
 823:Generated_Source\PSoC4/CapSense_1_Filter.c ****             ptrFilterHistObj.ptrProx = &ptrFilterHistObj.ptrProx[sensorId];
 824:Generated_Source\PSoC4/CapSense_1_Filter.c ****         #endif /* (CapSense_1_PROXIMITY_SENSOR_EN) */
 825:Generated_Source\PSoC4/CapSense_1_Filter.c ****     }
 826:Generated_Source\PSoC4/CapSense_1_Filter.c **** 
 827:Generated_Source\PSoC4/CapSense_1_Filter.c ****     CapSense_1_RunIIRInternal(ptrFilterHistObj, ptrSensor, (uint32)ptrWidget->wdgtType);
 828:Generated_Source\PSoC4/CapSense_1_Filter.c **** }
 829:Generated_Source\PSoC4/CapSense_1_Filter.c **** 
 830:Generated_Source\PSoC4/CapSense_1_Filter.c **** /*******************************************************************************
 831:Generated_Source\PSoC4/CapSense_1_Filter.c **** * Function Name: CapSense_1_InitializeIIRInternal
 832:Generated_Source\PSoC4/CapSense_1_Filter.c **** ****************************************************************************//**
 833:Generated_Source\PSoC4/CapSense_1_Filter.c **** *
 834:Generated_Source\PSoC4/CapSense_1_Filter.c **** * \brief
 835:Generated_Source\PSoC4/CapSense_1_Filter.c **** *  Initializes the IIR filter history.
 836:Generated_Source\PSoC4/CapSense_1_Filter.c **** *
 837:Generated_Source\PSoC4/CapSense_1_Filter.c **** * \details
 838:Generated_Source\PSoC4/CapSense_1_Filter.c **** *  Initializes the IIR filter history.
 839:Generated_Source\PSoC4/CapSense_1_Filter.c **** *
 840:Generated_Source\PSoC4/CapSense_1_Filter.c **** * \param ptrFilterHistObj
 841:Generated_Source\PSoC4/CapSense_1_Filter.c **** *  The pointer to the filter RAM object of the sensor.
 842:Generated_Source\PSoC4/CapSense_1_Filter.c **** *
 843:Generated_Source\PSoC4/CapSense_1_Filter.c **** * \param ptrSensorObj
 844:Generated_Source\PSoC4/CapSense_1_Filter.c **** *  The pointer to the sensor RAM object of the sensor.
 845:Generated_Source\PSoC4/CapSense_1_Filter.c **** *
 846:Generated_Source\PSoC4/CapSense_1_Filter.c **** * \param wdType
 847:Generated_Source\PSoC4/CapSense_1_Filter.c **** *  Specifies the type of a widget.
 848:Generated_Source\PSoC4/CapSense_1_Filter.c **** *
 849:Generated_Source\PSoC4/CapSense_1_Filter.c **** *******************************************************************************/
 850:Generated_Source\PSoC4/CapSense_1_Filter.c **** void CapSense_1_InitializeIIRInternal(CapSense_1_PTR_FILTER_VARIANT ptrFilterHistObj,
ARM GAS  C:\Users\Mayur\AppData\Local\Temp\ccxZLytu.s 			page 21


 851:Generated_Source\PSoC4/CapSense_1_Filter.c ****                                             CapSense_1_RAM_SNS_STRUCT *ptrSensorObj, uint32 wdType)
 852:Generated_Source\PSoC4/CapSense_1_Filter.c **** {
 267              		.loc 1 852 0
 268              		.cfi_startproc
 269              		@ args = 0, pretend = 0, frame = 0
 270              		@ frame_needed = 0, uses_anonymous_args = 0
 271              	.LVL35:
 272 0000 70B5     		push	{r4, r5, r6, lr}
 273              		.cfi_def_cfa_offset 16
 274              		.cfi_offset 4, -16
 275              		.cfi_offset 5, -12
 276              		.cfi_offset 6, -8
 277              		.cfi_offset 14, -4
 278              	.LVL36:
 853:Generated_Source\PSoC4/CapSense_1_Filter.c ****     uint32 freqChannel;
 854:Generated_Source\PSoC4/CapSense_1_Filter.c **** 
 855:Generated_Source\PSoC4/CapSense_1_Filter.c ****     for(freqChannel = CapSense_1_NUM_SCAN_FREQS; freqChannel-- > 0u;)
 279              		.loc 1 855 0
 280 0002 0123     		movs	r3, #1
 281 0004 09E0     		b	.L18
 282              	.LVL37:
 283              	.L20:
 856:Generated_Source\PSoC4/CapSense_1_Filter.c ****     {
 857:Generated_Source\PSoC4/CapSense_1_Filter.c ****         if ((CapSense_1_WD_TYPE_ENUM)wdType != CapSense_1_WD_PROXIMITY_E)
 284              		.loc 1 857 0
 285 0006 FF23     		movs	r3, #255
 286 0008 1340     		ands	r3, r2
 287 000a 062B     		cmp	r3, #6
 288 000c 04D0     		beq	.L19
 858:Generated_Source\PSoC4/CapSense_1_Filter.c ****         {
 859:Generated_Source\PSoC4/CapSense_1_Filter.c ****             #if (CapSense_1_REGULAR_SENSOR_EN && CapSense_1_REGULAR_RC_IIR_FILTER_EN)
 860:Generated_Source\PSoC4/CapSense_1_Filter.c ****                 #if (CapSense_1_REGULAR_IIR_RC_TYPE == CapSense_1_IIR_FILTER_PERFORMANCE)
 861:Generated_Source\PSoC4/CapSense_1_Filter.c ****                     ptrFilterHistObj.ptrRegular->regularChannel[freqChannel].iirHistory = ptrSensor
 862:Generated_Source\PSoC4/CapSense_1_Filter.c ****                     ptrFilterHistObj.ptrRegular->regularChannel[freqChannel].iirHistoryLow = 0u;
 863:Generated_Source\PSoC4/CapSense_1_Filter.c ****                 #else
 864:Generated_Source\PSoC4/CapSense_1_Filter.c ****                     ptrFilterHistObj.ptrRegular->regularChannel[freqChannel].iirHistory = ptrSensor
 289              		.loc 1 864 0
 290 000e 6300     		lsls	r3, r4, #1
 291 0010 5E5A     		ldrh	r6, [r3, r1]
 292 0012 1B19     		adds	r3, r3, r4
 293 0014 9D00     		lsls	r5, r3, #2
 294 0016 2E52     		strh	r6, [r5, r0]
 295              	.L19:
 852:Generated_Source\PSoC4/CapSense_1_Filter.c ****     uint32 freqChannel;
 296              		.loc 1 852 0 discriminator 1
 297 0018 2300     		movs	r3, r4
 298              	.LVL38:
 299              	.L18:
 855:Generated_Source\PSoC4/CapSense_1_Filter.c ****     {
 300              		.loc 1 855 0 discriminator 1
 301 001a 5C1E     		subs	r4, r3, #1
 302              	.LVL39:
 303 001c 002B     		cmp	r3, #0
 304 001e F2D1     		bne	.L20
 865:Generated_Source\PSoC4/CapSense_1_Filter.c ****                 #endif /* (CapSense_1_REGULAR_IIR_RC_TYPE == CapSense_1_IIR_FILTER_PERFORMANCE) */
 866:Generated_Source\PSoC4/CapSense_1_Filter.c ****             #endif /* (CapSense_1_REGULAR_SENSOR_EN) */
 867:Generated_Source\PSoC4/CapSense_1_Filter.c ****         }
ARM GAS  C:\Users\Mayur\AppData\Local\Temp\ccxZLytu.s 			page 22


 868:Generated_Source\PSoC4/CapSense_1_Filter.c ****         else
 869:Generated_Source\PSoC4/CapSense_1_Filter.c ****         {
 870:Generated_Source\PSoC4/CapSense_1_Filter.c ****             #if (CapSense_1_PROXIMITY_SENSOR_EN && CapSense_1_PROX_RC_IIR_FILTER_EN)
 871:Generated_Source\PSoC4/CapSense_1_Filter.c ****                 #if (CapSense_1_PROX_IIR_RC_TYPE == CapSense_1_IIR_FILTER_PERFORMANCE)
 872:Generated_Source\PSoC4/CapSense_1_Filter.c ****                     ptrFilterHistObj.ptrProx->proxChannel[freqChannel].iirHistory = ptrSensorObj->r
 873:Generated_Source\PSoC4/CapSense_1_Filter.c ****                     ptrFilterHistObj.ptrProx->proxChannel[freqChannel].iirHistoryLow = 0u;
 874:Generated_Source\PSoC4/CapSense_1_Filter.c ****                 #else
 875:Generated_Source\PSoC4/CapSense_1_Filter.c ****                     ptrFilterHistObj.ptrProx->proxChannel[freqChannel].iirHistory = ptrSensorObj->r
 876:Generated_Source\PSoC4/CapSense_1_Filter.c ****                 #endif /* (CapSense_1_PROX_IIR_RC_TYPE == CapSense_1_IIR_FILTER_PERFORMANCE) */
 877:Generated_Source\PSoC4/CapSense_1_Filter.c ****             #endif /* (CapSense_1_PROX_SENSOR_EN) */
 878:Generated_Source\PSoC4/CapSense_1_Filter.c ****         }
 879:Generated_Source\PSoC4/CapSense_1_Filter.c ****     }
 880:Generated_Source\PSoC4/CapSense_1_Filter.c **** }
 305              		.loc 1 880 0
 306              		@ sp needed
 307              	.LVL40:
 308 0020 70BD     		pop	{r4, r5, r6, pc}
 309              		.cfi_endproc
 310              	.LFE14:
 311              		.size	CapSense_1_InitializeIIRInternal, .-CapSense_1_InitializeIIRInternal
 312 0022 C046     		.section	.text.CapSense_1_InitializeIIR,"ax",%progbits
 313              		.align	2
 314              		.global	CapSense_1_InitializeIIR
 315              		.code	16
 316              		.thumb_func
 317              		.type	CapSense_1_InitializeIIR, %function
 318              	CapSense_1_InitializeIIR:
 319              	.LFB12:
 753:Generated_Source\PSoC4/CapSense_1_Filter.c ****     CapSense_1_FLASH_WD_STRUCT const *ptrWidget = &CapSense_1_dsFlash.wdgtArray[widgetId];
 320              		.loc 1 753 0
 321              		.cfi_startproc
 322              		@ args = 0, pretend = 0, frame = 0
 323              		@ frame_needed = 0, uses_anonymous_args = 0
 324              	.LVL41:
 325 0000 70B5     		push	{r4, r5, r6, lr}
 326              		.cfi_def_cfa_offset 16
 327              		.cfi_offset 4, -16
 328              		.cfi_offset 5, -12
 329              		.cfi_offset 6, -8
 330              		.cfi_offset 14, -4
 331 0002 0C00     		movs	r4, r1
 332              	.LVL42:
 759:Generated_Source\PSoC4/CapSense_1_Filter.c ****     ptrSensor = &ptrSensor[sensorId];
 333              		.loc 1 759 0
 334 0004 4001     		lsls	r0, r0, #5
 335              	.LVL43:
 336 0006 0A4B     		ldr	r3, .L23
 337 0008 1B18     		adds	r3, r3, r0
 338              	.LVL44:
 760:Generated_Source\PSoC4/CapSense_1_Filter.c **** 
 339              		.loc 1 760 0
 340 000a 8A00     		lsls	r2, r1, #2
 341 000c 5218     		adds	r2, r2, r1
 342 000e 5100     		lsls	r1, r2, #1
 343              	.LVL45:
 344 0010 9A68     		ldr	r2, [r3, #8]
 345 0012 9446     		mov	ip, r2
ARM GAS  C:\Users\Mayur\AppData\Local\Temp\ccxZLytu.s 			page 23


 346 0014 6144     		add	r1, r1, ip
 347              	.LVL46:
 763:Generated_Source\PSoC4/CapSense_1_Filter.c **** 
 348              		.loc 1 763 0
 349 0016 DD68     		ldr	r5, [r3, #12]
 350 0018 2800     		movs	r0, r5
 351              	.LVL47:
 765:Generated_Source\PSoC4/CapSense_1_Filter.c ****     {
 352              		.loc 1 765 0
 353 001a 9A7E     		ldrb	r2, [r3, #26]
 354 001c 062A     		cmp	r2, #6
 355 001e 03D0     		beq	.L22
 768:Generated_Source\PSoC4/CapSense_1_Filter.c ****         #endif /* (CapSense_1_REGULAR_SENSOR_EN) */
 356              		.loc 1 768 0
 357 0020 6300     		lsls	r3, r4, #1
 358              	.LVL48:
 359 0022 1C19     		adds	r4, r3, r4
 360              	.LVL49:
 361 0024 A000     		lsls	r0, r4, #2
 362 0026 2818     		adds	r0, r5, r0
 363              	.L22:
 778:Generated_Source\PSoC4/CapSense_1_Filter.c **** }
 364              		.loc 1 778 0
 365 0028 FFF7FEFF 		bl	CapSense_1_InitializeIIRInternal
 366              	.LVL50:
 779:Generated_Source\PSoC4/CapSense_1_Filter.c **** 
 367              		.loc 1 779 0
 368              		@ sp needed
 369 002c 70BD     		pop	{r4, r5, r6, pc}
 370              	.L24:
 371 002e C046     		.align	2
 372              	.L23:
 373 0030 00000000 		.word	CapSense_1_dsFlash
 374              		.cfi_endproc
 375              	.LFE12:
 376              		.size	CapSense_1_InitializeIIR, .-CapSense_1_InitializeIIR
 377              		.section	.text.CapSense_1_InitializeMedianInternal,"ax",%progbits
 378              		.align	2
 379              		.global	CapSense_1_InitializeMedianInternal
 380              		.code	16
 381              		.thumb_func
 382              		.type	CapSense_1_InitializeMedianInternal, %function
 383              	CapSense_1_InitializeMedianInternal:
 384              	.LFB18:
 881:Generated_Source\PSoC4/CapSense_1_Filter.c **** 
 882:Generated_Source\PSoC4/CapSense_1_Filter.c **** 
 883:Generated_Source\PSoC4/CapSense_1_Filter.c **** /*******************************************************************************
 884:Generated_Source\PSoC4/CapSense_1_Filter.c **** * Function Name: CapSense_1_RunIIRInternal
 885:Generated_Source\PSoC4/CapSense_1_Filter.c **** ****************************************************************************//**
 886:Generated_Source\PSoC4/CapSense_1_Filter.c **** *
 887:Generated_Source\PSoC4/CapSense_1_Filter.c **** * \brief
 888:Generated_Source\PSoC4/CapSense_1_Filter.c **** *  Run the IIR filter.
 889:Generated_Source\PSoC4/CapSense_1_Filter.c **** *
 890:Generated_Source\PSoC4/CapSense_1_Filter.c **** * \details
 891:Generated_Source\PSoC4/CapSense_1_Filter.c **** *  Run the IIR filter.
 892:Generated_Source\PSoC4/CapSense_1_Filter.c **** *
 893:Generated_Source\PSoC4/CapSense_1_Filter.c **** * \param ptrFilterHistObj
ARM GAS  C:\Users\Mayur\AppData\Local\Temp\ccxZLytu.s 			page 24


 894:Generated_Source\PSoC4/CapSense_1_Filter.c **** *  The pointer to the filter RAM object of the sensor.
 895:Generated_Source\PSoC4/CapSense_1_Filter.c **** *
 896:Generated_Source\PSoC4/CapSense_1_Filter.c **** * \param ptrSensorObj
 897:Generated_Source\PSoC4/CapSense_1_Filter.c **** *  The pointer to the sensor RAM object of the sensor.
 898:Generated_Source\PSoC4/CapSense_1_Filter.c **** *
 899:Generated_Source\PSoC4/CapSense_1_Filter.c **** * \param wdType
 900:Generated_Source\PSoC4/CapSense_1_Filter.c **** *  Specifies the type of a widget.
 901:Generated_Source\PSoC4/CapSense_1_Filter.c **** *
 902:Generated_Source\PSoC4/CapSense_1_Filter.c **** *******************************************************************************/
 903:Generated_Source\PSoC4/CapSense_1_Filter.c **** void CapSense_1_RunIIRInternal(CapSense_1_PTR_FILTER_VARIANT ptrFilterHistObj,
 904:Generated_Source\PSoC4/CapSense_1_Filter.c ****                                      CapSense_1_RAM_SNS_STRUCT *ptrSensorObj, uint32 wdType)
 905:Generated_Source\PSoC4/CapSense_1_Filter.c **** {
 906:Generated_Source\PSoC4/CapSense_1_Filter.c ****     uint32 freqChannel;
 907:Generated_Source\PSoC4/CapSense_1_Filter.c ****     uint32 temp;
 908:Generated_Source\PSoC4/CapSense_1_Filter.c **** 
 909:Generated_Source\PSoC4/CapSense_1_Filter.c ****     for(freqChannel = CapSense_1_NUM_SCAN_FREQS; freqChannel-- > 0u;)
 910:Generated_Source\PSoC4/CapSense_1_Filter.c ****     {
 911:Generated_Source\PSoC4/CapSense_1_Filter.c ****         if ((CapSense_1_WD_TYPE_ENUM)wdType != CapSense_1_WD_PROXIMITY_E)
 912:Generated_Source\PSoC4/CapSense_1_Filter.c ****         {
 913:Generated_Source\PSoC4/CapSense_1_Filter.c ****             #if (CapSense_1_REGULAR_SENSOR_EN && CapSense_1_REGULAR_RC_IIR_FILTER_EN)
 914:Generated_Source\PSoC4/CapSense_1_Filter.c ****                 #if (CapSense_1_REGULAR_IIR_RC_TYPE == CapSense_1_IIR_FILTER_PERFORMANCE)
 915:Generated_Source\PSoC4/CapSense_1_Filter.c ****                     temp = ((uint32)ptrFilterHistObj.ptrRegular->regularChannel[freqChannel].iirHis
 916:Generated_Source\PSoC4/CapSense_1_Filter.c ****                     temp |= ptrFilterHistObj.ptrRegular->regularChannel[freqChannel].iirHistoryLow;
 917:Generated_Source\PSoC4/CapSense_1_Filter.c ****                     temp = CapSense_1_FtIIR1stOrder((uint32)ptrSensorObj->raw[freqChannel],
 918:Generated_Source\PSoC4/CapSense_1_Filter.c ****                                                         temp,
 919:Generated_Source\PSoC4/CapSense_1_Filter.c ****                                                         CapSense_1_REGULAR_IIR_RC_N,
 920:Generated_Source\PSoC4/CapSense_1_Filter.c ****                                                         CapSense_1_REGULAR_IIR_RC_SHIFT);
 921:Generated_Source\PSoC4/CapSense_1_Filter.c ****                     ptrFilterHistObj.ptrRegular->regularChannel[freqChannel].iirHistory = LO16(temp
 922:Generated_Source\PSoC4/CapSense_1_Filter.c ****                     ptrFilterHistObj.ptrRegular->regularChannel[freqChannel].iirHistoryLow = LO8(te
 923:Generated_Source\PSoC4/CapSense_1_Filter.c ****                     ptrSensorObj->raw[freqChannel] = LO16(temp >>CapSense_1_REGULAR_IIR_RC_SHIFT);
 924:Generated_Source\PSoC4/CapSense_1_Filter.c ****                 #else
 925:Generated_Source\PSoC4/CapSense_1_Filter.c ****                     temp =CapSense_1_FtIIR1stOrder((uint32)ptrSensorObj->raw[freqChannel],
 926:Generated_Source\PSoC4/CapSense_1_Filter.c ****                                                         (uint32)ptrFilterHistObj.ptrRegular->regula
 927:Generated_Source\PSoC4/CapSense_1_Filter.c ****                                                         CapSense_1_REGULAR_IIR_RC_N,
 928:Generated_Source\PSoC4/CapSense_1_Filter.c ****                                                         CapSense_1_REGULAR_IIR_RC_SHIFT);
 929:Generated_Source\PSoC4/CapSense_1_Filter.c ****                     ptrFilterHistObj.ptrRegular->regularChannel[freqChannel].iirHistory = LO16(temp
 930:Generated_Source\PSoC4/CapSense_1_Filter.c ****                     ptrSensorObj->raw[freqChannel] = LO16(temp >>CapSense_1_REGULAR_IIR_RC_SHIFT);
 931:Generated_Source\PSoC4/CapSense_1_Filter.c ****                 #endif /* (CapSense_1_REGULAR_IIR_RC_TYPE == CapSense_1_IIR_FILTER_PERFORMANCE) */
 932:Generated_Source\PSoC4/CapSense_1_Filter.c ****             #endif /* (CapSense_1_REGULAR_SENSOR_EN) */
 933:Generated_Source\PSoC4/CapSense_1_Filter.c ****         }
 934:Generated_Source\PSoC4/CapSense_1_Filter.c ****         else
 935:Generated_Source\PSoC4/CapSense_1_Filter.c ****         {
 936:Generated_Source\PSoC4/CapSense_1_Filter.c ****             #if (CapSense_1_PROXIMITY_SENSOR_EN && CapSense_1_PROX_RC_IIR_FILTER_EN)
 937:Generated_Source\PSoC4/CapSense_1_Filter.c ****                 #if (CapSense_1_PROX_IIR_RC_TYPE == CapSense_1_IIR_FILTER_PERFORMANCE)
 938:Generated_Source\PSoC4/CapSense_1_Filter.c ****                     temp =  ptrFilterHistObj.ptrProx->proxChannel[freqChannel].iirHistory << CapSen
 939:Generated_Source\PSoC4/CapSense_1_Filter.c ****                     temp |= ptrFilterHistObj.ptrProx->proxChannel[freqChannel].iirHistoryLow;
 940:Generated_Source\PSoC4/CapSense_1_Filter.c ****                     temp =CapSense_1_FtIIR1stOrder((uint32)ptrSensorObj->raw[freqChannel],
 941:Generated_Source\PSoC4/CapSense_1_Filter.c ****                                                         temp,
 942:Generated_Source\PSoC4/CapSense_1_Filter.c ****                                                         CapSense_1_PROX_IIR_RC_N,
 943:Generated_Source\PSoC4/CapSense_1_Filter.c ****                                                         CapSense_1_PROX_IIR_RC_SHIFT);
 944:Generated_Source\PSoC4/CapSense_1_Filter.c ****                     ptrFilterHistObj.ptrProx->proxChannel[freqChannel].iirHistory = LO16(temp >>Cap
 945:Generated_Source\PSoC4/CapSense_1_Filter.c ****                     ptrFilterHistObj.ptrProx->proxChannel[freqChannel].iirHistoryLow = LO8(temp);
 946:Generated_Source\PSoC4/CapSense_1_Filter.c ****                     ptrSensorObj->raw[freqChannel] = LO16(temp >>CapSense_1_PROX_IIR_RC_SHIFT);
 947:Generated_Source\PSoC4/CapSense_1_Filter.c ****                 #else
 948:Generated_Source\PSoC4/CapSense_1_Filter.c ****                     temp =CapSense_1_FtIIR1stOrder((uint32)ptrSensorObj->raw[freqChannel],
 949:Generated_Source\PSoC4/CapSense_1_Filter.c ****                                                         (uint32)ptrFilterHistObj.ptrProx->proxChann
 950:Generated_Source\PSoC4/CapSense_1_Filter.c ****                                                         CapSense_1_PROX_IIR_RC_N,
ARM GAS  C:\Users\Mayur\AppData\Local\Temp\ccxZLytu.s 			page 25


 951:Generated_Source\PSoC4/CapSense_1_Filter.c ****                                                         CapSense_1_PROX_IIR_RC_SHIFT);
 952:Generated_Source\PSoC4/CapSense_1_Filter.c ****                     ptrFilterHistObj.ptrProx->proxChannel[freqChannel].iirHistory = LO16(temp);
 953:Generated_Source\PSoC4/CapSense_1_Filter.c ****                     ptrSensorObj->raw[freqChannel] = LO16(temp >>CapSense_1_PROX_IIR_RC_SHIFT);
 954:Generated_Source\PSoC4/CapSense_1_Filter.c ****                 #endif /* (CapSense_1_PROX_IIR_RC_TYPE == CapSense_1_IIR_FILTER_PERFORMANCE) */
 955:Generated_Source\PSoC4/CapSense_1_Filter.c ****             #endif /* (CapSense_1_PROX_SENSOR_EN) */
 956:Generated_Source\PSoC4/CapSense_1_Filter.c ****         }
 957:Generated_Source\PSoC4/CapSense_1_Filter.c ****     }
 958:Generated_Source\PSoC4/CapSense_1_Filter.c **** }
 959:Generated_Source\PSoC4/CapSense_1_Filter.c **** #endif /* #if (CapSense_1_REGULAR_RC_IIR_FILTER_EN || CapSense_1_PROX_RC_IIR_FILTER_EN) */
 960:Generated_Source\PSoC4/CapSense_1_Filter.c **** 
 961:Generated_Source\PSoC4/CapSense_1_Filter.c **** 
 962:Generated_Source\PSoC4/CapSense_1_Filter.c **** #if (CapSense_1_REGULAR_RC_MEDIAN_FILTER_EN || CapSense_1_PROX_RC_MEDIAN_FILTER_EN)
 963:Generated_Source\PSoC4/CapSense_1_Filter.c **** 
 964:Generated_Source\PSoC4/CapSense_1_Filter.c **** /*******************************************************************************
 965:Generated_Source\PSoC4/CapSense_1_Filter.c **** * Function Name: CapSense_1_InitializeMedian
 966:Generated_Source\PSoC4/CapSense_1_Filter.c **** ****************************************************************************//**
 967:Generated_Source\PSoC4/CapSense_1_Filter.c **** *
 968:Generated_Source\PSoC4/CapSense_1_Filter.c **** * \brief
 969:Generated_Source\PSoC4/CapSense_1_Filter.c **** *  Initializes the Median filter history.
 970:Generated_Source\PSoC4/CapSense_1_Filter.c **** *
 971:Generated_Source\PSoC4/CapSense_1_Filter.c **** * \details
 972:Generated_Source\PSoC4/CapSense_1_Filter.c **** *  Initializes the Median filter history.
 973:Generated_Source\PSoC4/CapSense_1_Filter.c **** *
 974:Generated_Source\PSoC4/CapSense_1_Filter.c **** * \param widgetId
 975:Generated_Source\PSoC4/CapSense_1_Filter.c **** *  Specifies the ID number of the widget.
 976:Generated_Source\PSoC4/CapSense_1_Filter.c **** *
 977:Generated_Source\PSoC4/CapSense_1_Filter.c **** * \param sensorId
 978:Generated_Source\PSoC4/CapSense_1_Filter.c **** *  Specifies the ID number of the sensor in the widget.
 979:Generated_Source\PSoC4/CapSense_1_Filter.c **** *
 980:Generated_Source\PSoC4/CapSense_1_Filter.c **** *******************************************************************************/
 981:Generated_Source\PSoC4/CapSense_1_Filter.c **** void CapSense_1_InitializeMedian(uint32 widgetId, uint32 sensorId)
 982:Generated_Source\PSoC4/CapSense_1_Filter.c **** {
 983:Generated_Source\PSoC4/CapSense_1_Filter.c ****     CapSense_1_FLASH_WD_STRUCT const *ptrWidget = &CapSense_1_dsFlash.wdgtArray[widgetId];
 984:Generated_Source\PSoC4/CapSense_1_Filter.c ****     CapSense_1_RAM_SNS_STRUCT *ptrSensor = NULL;
 985:Generated_Source\PSoC4/CapSense_1_Filter.c ****     CapSense_1_PTR_FILTER_VARIANT ptrFilterHistObj;
 986:Generated_Source\PSoC4/CapSense_1_Filter.c **** 
 987:Generated_Source\PSoC4/CapSense_1_Filter.c ****     /* Find pointer to specified sensor object */
 988:Generated_Source\PSoC4/CapSense_1_Filter.c ****     ptrSensor = ptrWidget->ptr2SnsRam;
 989:Generated_Source\PSoC4/CapSense_1_Filter.c ****     ptrSensor = &ptrSensor[sensorId];
 990:Generated_Source\PSoC4/CapSense_1_Filter.c **** 
 991:Generated_Source\PSoC4/CapSense_1_Filter.c ****     /* Find pointer to specified filter sensor object */
 992:Generated_Source\PSoC4/CapSense_1_Filter.c ****     ptrFilterHistObj.ptr = ptrWidget->ptr2FltrHistory;
 993:Generated_Source\PSoC4/CapSense_1_Filter.c **** 
 994:Generated_Source\PSoC4/CapSense_1_Filter.c ****     if ((CapSense_1_WD_TYPE_ENUM)ptrWidget->wdgtType != CapSense_1_WD_PROXIMITY_E)
 995:Generated_Source\PSoC4/CapSense_1_Filter.c ****     {
 996:Generated_Source\PSoC4/CapSense_1_Filter.c ****         #if (CapSense_1_REGULAR_SENSOR_EN)
 997:Generated_Source\PSoC4/CapSense_1_Filter.c ****             ptrFilterHistObj.ptrRegular = &ptrFilterHistObj.ptrRegular[sensorId];
 998:Generated_Source\PSoC4/CapSense_1_Filter.c ****         #endif /* (CapSense_1_REGULAR_SENSOR_EN) */
 999:Generated_Source\PSoC4/CapSense_1_Filter.c ****     }
1000:Generated_Source\PSoC4/CapSense_1_Filter.c ****     else
1001:Generated_Source\PSoC4/CapSense_1_Filter.c ****     {
1002:Generated_Source\PSoC4/CapSense_1_Filter.c ****         #if (CapSense_1_PROXIMITY_SENSOR_EN)
1003:Generated_Source\PSoC4/CapSense_1_Filter.c ****             ptrFilterHistObj.ptrProx = &ptrFilterHistObj.ptrProx[sensorId];
1004:Generated_Source\PSoC4/CapSense_1_Filter.c ****         #endif /* (CapSense_1_PROXIMITY_SENSOR_EN) */
1005:Generated_Source\PSoC4/CapSense_1_Filter.c ****     }
1006:Generated_Source\PSoC4/CapSense_1_Filter.c **** 
1007:Generated_Source\PSoC4/CapSense_1_Filter.c ****     CapSense_1_InitializeMedianInternal(ptrFilterHistObj, ptrSensor, (uint32)ptrWidget->wdgtType);
ARM GAS  C:\Users\Mayur\AppData\Local\Temp\ccxZLytu.s 			page 26


1008:Generated_Source\PSoC4/CapSense_1_Filter.c **** }
1009:Generated_Source\PSoC4/CapSense_1_Filter.c **** 
1010:Generated_Source\PSoC4/CapSense_1_Filter.c **** 
1011:Generated_Source\PSoC4/CapSense_1_Filter.c **** /*******************************************************************************
1012:Generated_Source\PSoC4/CapSense_1_Filter.c **** * Function Name: CapSense_1_RunMedian
1013:Generated_Source\PSoC4/CapSense_1_Filter.c **** ****************************************************************************//**
1014:Generated_Source\PSoC4/CapSense_1_Filter.c **** *
1015:Generated_Source\PSoC4/CapSense_1_Filter.c **** * \brief
1016:Generated_Source\PSoC4/CapSense_1_Filter.c **** *  Executes the Median filter algorithm on a sensor indicated by an input
1017:Generated_Source\PSoC4/CapSense_1_Filter.c **** *  parameter.
1018:Generated_Source\PSoC4/CapSense_1_Filter.c **** *
1019:Generated_Source\PSoC4/CapSense_1_Filter.c **** * \details
1020:Generated_Source\PSoC4/CapSense_1_Filter.c **** *  Executes the Median filter algorithm on a sensor indicated by an input
1021:Generated_Source\PSoC4/CapSense_1_Filter.c **** *  parameter.
1022:Generated_Source\PSoC4/CapSense_1_Filter.c **** *
1023:Generated_Source\PSoC4/CapSense_1_Filter.c **** * \param widgetId
1024:Generated_Source\PSoC4/CapSense_1_Filter.c **** *  Specifies the ID number of the widget.
1025:Generated_Source\PSoC4/CapSense_1_Filter.c **** *
1026:Generated_Source\PSoC4/CapSense_1_Filter.c **** * \param sensorId
1027:Generated_Source\PSoC4/CapSense_1_Filter.c **** *  Specifies the ID number of the sensor in the widget.
1028:Generated_Source\PSoC4/CapSense_1_Filter.c **** *
1029:Generated_Source\PSoC4/CapSense_1_Filter.c **** *******************************************************************************/
1030:Generated_Source\PSoC4/CapSense_1_Filter.c **** void CapSense_1_RunMedian(uint32 widgetId, uint32 sensorId)
1031:Generated_Source\PSoC4/CapSense_1_Filter.c **** {
1032:Generated_Source\PSoC4/CapSense_1_Filter.c ****     CapSense_1_FLASH_WD_STRUCT const *ptrWidget = &CapSense_1_dsFlash.wdgtArray[widgetId];
1033:Generated_Source\PSoC4/CapSense_1_Filter.c ****     CapSense_1_RAM_SNS_STRUCT *ptrSensor = NULL;
1034:Generated_Source\PSoC4/CapSense_1_Filter.c ****     CapSense_1_PTR_FILTER_VARIANT ptrFilterHistObj;
1035:Generated_Source\PSoC4/CapSense_1_Filter.c **** 
1036:Generated_Source\PSoC4/CapSense_1_Filter.c ****     /* Find pointer to specified sensor object */
1037:Generated_Source\PSoC4/CapSense_1_Filter.c ****     ptrSensor = ptrWidget->ptr2SnsRam;
1038:Generated_Source\PSoC4/CapSense_1_Filter.c ****     ptrSensor = &ptrSensor[sensorId];
1039:Generated_Source\PSoC4/CapSense_1_Filter.c **** 
1040:Generated_Source\PSoC4/CapSense_1_Filter.c ****     /* Find pointer to specified filter sensor object */
1041:Generated_Source\PSoC4/CapSense_1_Filter.c ****     ptrFilterHistObj.ptr = ptrWidget->ptr2FltrHistory;
1042:Generated_Source\PSoC4/CapSense_1_Filter.c **** 
1043:Generated_Source\PSoC4/CapSense_1_Filter.c ****     if ((CapSense_1_WD_TYPE_ENUM)ptrWidget->wdgtType != CapSense_1_WD_PROXIMITY_E)
1044:Generated_Source\PSoC4/CapSense_1_Filter.c ****     {
1045:Generated_Source\PSoC4/CapSense_1_Filter.c ****         #if (CapSense_1_REGULAR_SENSOR_EN)
1046:Generated_Source\PSoC4/CapSense_1_Filter.c ****             ptrFilterHistObj.ptrRegular = &ptrFilterHistObj.ptrRegular[sensorId];
1047:Generated_Source\PSoC4/CapSense_1_Filter.c ****         #endif /* (CapSense_1_REGULAR_SENSOR_EN) */
1048:Generated_Source\PSoC4/CapSense_1_Filter.c ****     }
1049:Generated_Source\PSoC4/CapSense_1_Filter.c ****     else
1050:Generated_Source\PSoC4/CapSense_1_Filter.c ****     {
1051:Generated_Source\PSoC4/CapSense_1_Filter.c ****         #if (CapSense_1_PROXIMITY_SENSOR_EN)
1052:Generated_Source\PSoC4/CapSense_1_Filter.c ****             ptrFilterHistObj.ptrProx = &ptrFilterHistObj.ptrProx[sensorId];
1053:Generated_Source\PSoC4/CapSense_1_Filter.c ****         #endif /* (CapSense_1_PROXIMITY_SENSOR_EN) */
1054:Generated_Source\PSoC4/CapSense_1_Filter.c ****     }
1055:Generated_Source\PSoC4/CapSense_1_Filter.c **** 
1056:Generated_Source\PSoC4/CapSense_1_Filter.c ****     CapSense_1_RunMedianInternal(ptrFilterHistObj, ptrSensor, (uint32)ptrWidget->wdgtType);
1057:Generated_Source\PSoC4/CapSense_1_Filter.c **** }
1058:Generated_Source\PSoC4/CapSense_1_Filter.c **** 
1059:Generated_Source\PSoC4/CapSense_1_Filter.c **** 
1060:Generated_Source\PSoC4/CapSense_1_Filter.c **** /*******************************************************************************
1061:Generated_Source\PSoC4/CapSense_1_Filter.c **** * Function Name: CapSense_1_InitializeMedianInternal
1062:Generated_Source\PSoC4/CapSense_1_Filter.c **** ****************************************************************************//**
1063:Generated_Source\PSoC4/CapSense_1_Filter.c **** *
1064:Generated_Source\PSoC4/CapSense_1_Filter.c **** * \brief
ARM GAS  C:\Users\Mayur\AppData\Local\Temp\ccxZLytu.s 			page 27


1065:Generated_Source\PSoC4/CapSense_1_Filter.c **** *  Initializes the Median filter.
1066:Generated_Source\PSoC4/CapSense_1_Filter.c **** *
1067:Generated_Source\PSoC4/CapSense_1_Filter.c **** * \details
1068:Generated_Source\PSoC4/CapSense_1_Filter.c **** *  Initializes the Median filter.
1069:Generated_Source\PSoC4/CapSense_1_Filter.c **** *
1070:Generated_Source\PSoC4/CapSense_1_Filter.c **** * \param ptrFilterHistObj
1071:Generated_Source\PSoC4/CapSense_1_Filter.c **** *  The pointer to the filter RAM object of the sensor.
1072:Generated_Source\PSoC4/CapSense_1_Filter.c **** *
1073:Generated_Source\PSoC4/CapSense_1_Filter.c **** * \param ptrSensorObj
1074:Generated_Source\PSoC4/CapSense_1_Filter.c **** *  The pointer to the sensor RAM object of the sensor.
1075:Generated_Source\PSoC4/CapSense_1_Filter.c **** *
1076:Generated_Source\PSoC4/CapSense_1_Filter.c **** * \param wdType
1077:Generated_Source\PSoC4/CapSense_1_Filter.c **** *  Specifies the type of a widget.
1078:Generated_Source\PSoC4/CapSense_1_Filter.c **** *
1079:Generated_Source\PSoC4/CapSense_1_Filter.c **** *******************************************************************************/
1080:Generated_Source\PSoC4/CapSense_1_Filter.c **** void CapSense_1_InitializeMedianInternal(CapSense_1_PTR_FILTER_VARIANT ptrFilterHistObj,
1081:Generated_Source\PSoC4/CapSense_1_Filter.c ****                                                CapSense_1_RAM_SNS_STRUCT *ptrSensorObj, uint32 wdTy
1082:Generated_Source\PSoC4/CapSense_1_Filter.c **** {
 385              		.loc 1 1082 0
 386              		.cfi_startproc
 387              		@ args = 0, pretend = 0, frame = 0
 388              		@ frame_needed = 0, uses_anonymous_args = 0
 389              	.LVL51:
 390 0000 F0B5     		push	{r4, r5, r6, r7, lr}
 391              		.cfi_def_cfa_offset 20
 392              		.cfi_offset 4, -20
 393              		.cfi_offset 5, -16
 394              		.cfi_offset 6, -12
 395              		.cfi_offset 7, -8
 396              		.cfi_offset 14, -4
 397              	.LVL52:
1083:Generated_Source\PSoC4/CapSense_1_Filter.c ****     uint32 freqChannel;
1084:Generated_Source\PSoC4/CapSense_1_Filter.c **** 
1085:Generated_Source\PSoC4/CapSense_1_Filter.c ****     for(freqChannel = CapSense_1_NUM_SCAN_FREQS; freqChannel-- > 0u;)
 398              		.loc 1 1085 0
 399 0002 0123     		movs	r3, #1
 400 0004 0CE0     		b	.L26
 401              	.LVL53:
 402              	.L28:
1086:Generated_Source\PSoC4/CapSense_1_Filter.c ****     {
1087:Generated_Source\PSoC4/CapSense_1_Filter.c ****         if ((CapSense_1_WD_TYPE_ENUM)wdType != CapSense_1_WD_PROXIMITY_E)
 403              		.loc 1 1087 0
 404 0006 FF23     		movs	r3, #255
 405 0008 1340     		ands	r3, r2
 406 000a 062B     		cmp	r3, #6
 407 000c 07D0     		beq	.L27
1088:Generated_Source\PSoC4/CapSense_1_Filter.c ****         {
1089:Generated_Source\PSoC4/CapSense_1_Filter.c ****             #if (CapSense_1_REGULAR_SENSOR_EN && CapSense_1_REGULAR_RC_MEDIAN_FILTER_EN)
1090:Generated_Source\PSoC4/CapSense_1_Filter.c ****                 ptrFilterHistObj.ptrRegular->regularChannel[freqChannel].medHistory[0u] = ptrSensor
 408              		.loc 1 1090 0
 409 000e 6500     		lsls	r5, r4, #1
 410 0010 6F5A     		ldrh	r7, [r5, r1]
 411 0012 2E19     		adds	r6, r5, r4
 412 0014 B300     		lsls	r3, r6, #2
 413 0016 C318     		adds	r3, r0, r3
 414 0018 5F80     		strh	r7, [r3, #2]
1091:Generated_Source\PSoC4/CapSense_1_Filter.c ****                 ptrFilterHistObj.ptrRegular->regularChannel[freqChannel].medHistory[1u] = ptrSensor
ARM GAS  C:\Users\Mayur\AppData\Local\Temp\ccxZLytu.s 			page 28


 415              		.loc 1 1091 0
 416 001a 6D5A     		ldrh	r5, [r5, r1]
 417 001c 9D80     		strh	r5, [r3, #4]
 418              	.L27:
1082:Generated_Source\PSoC4/CapSense_1_Filter.c ****     uint32 freqChannel;
 419              		.loc 1 1082 0 discriminator 1
 420 001e 2300     		movs	r3, r4
 421              	.LVL54:
 422              	.L26:
1085:Generated_Source\PSoC4/CapSense_1_Filter.c ****     {
 423              		.loc 1 1085 0 discriminator 1
 424 0020 5C1E     		subs	r4, r3, #1
 425              	.LVL55:
 426 0022 002B     		cmp	r3, #0
 427 0024 EFD1     		bne	.L28
1092:Generated_Source\PSoC4/CapSense_1_Filter.c ****             #endif /* (CapSense_1_REGULAR_SENSOR_EN) */
1093:Generated_Source\PSoC4/CapSense_1_Filter.c ****         }
1094:Generated_Source\PSoC4/CapSense_1_Filter.c ****         else
1095:Generated_Source\PSoC4/CapSense_1_Filter.c ****         {
1096:Generated_Source\PSoC4/CapSense_1_Filter.c ****             #if (CapSense_1_PROXIMITY_SENSOR_EN && CapSense_1_PROX_RC_MEDIAN_FILTER_EN)
1097:Generated_Source\PSoC4/CapSense_1_Filter.c ****                 ptrFilterHistObj.ptrProx->proxChannel[freqChannel].medHistory[0u] = ptrSensorObj->r
1098:Generated_Source\PSoC4/CapSense_1_Filter.c ****                 ptrFilterHistObj.ptrProx->proxChannel[freqChannel].medHistory[1u] = ptrSensorObj->r
1099:Generated_Source\PSoC4/CapSense_1_Filter.c ****             #endif /* (CapSense_1_PROXIMITY_SENSOR_EN) */
1100:Generated_Source\PSoC4/CapSense_1_Filter.c ****         }
1101:Generated_Source\PSoC4/CapSense_1_Filter.c ****     }
1102:Generated_Source\PSoC4/CapSense_1_Filter.c **** }
 428              		.loc 1 1102 0
 429              		@ sp needed
 430              	.LVL56:
 431 0026 F0BD     		pop	{r4, r5, r6, r7, pc}
 432              		.cfi_endproc
 433              	.LFE18:
 434              		.size	CapSense_1_InitializeMedianInternal, .-CapSense_1_InitializeMedianInternal
 435              		.section	.text.CapSense_1_InitializeMedian,"ax",%progbits
 436              		.align	2
 437              		.global	CapSense_1_InitializeMedian
 438              		.code	16
 439              		.thumb_func
 440              		.type	CapSense_1_InitializeMedian, %function
 441              	CapSense_1_InitializeMedian:
 442              	.LFB16:
 982:Generated_Source\PSoC4/CapSense_1_Filter.c ****     CapSense_1_FLASH_WD_STRUCT const *ptrWidget = &CapSense_1_dsFlash.wdgtArray[widgetId];
 443              		.loc 1 982 0
 444              		.cfi_startproc
 445              		@ args = 0, pretend = 0, frame = 0
 446              		@ frame_needed = 0, uses_anonymous_args = 0
 447              	.LVL57:
 448 0000 70B5     		push	{r4, r5, r6, lr}
 449              		.cfi_def_cfa_offset 16
 450              		.cfi_offset 4, -16
 451              		.cfi_offset 5, -12
 452              		.cfi_offset 6, -8
 453              		.cfi_offset 14, -4
 454 0002 0C00     		movs	r4, r1
 455              	.LVL58:
 988:Generated_Source\PSoC4/CapSense_1_Filter.c ****     ptrSensor = &ptrSensor[sensorId];
 456              		.loc 1 988 0
ARM GAS  C:\Users\Mayur\AppData\Local\Temp\ccxZLytu.s 			page 29


 457 0004 4001     		lsls	r0, r0, #5
 458              	.LVL59:
 459 0006 0A4B     		ldr	r3, .L31
 460 0008 1B18     		adds	r3, r3, r0
 461              	.LVL60:
 989:Generated_Source\PSoC4/CapSense_1_Filter.c **** 
 462              		.loc 1 989 0
 463 000a 8A00     		lsls	r2, r1, #2
 464 000c 5218     		adds	r2, r2, r1
 465 000e 5100     		lsls	r1, r2, #1
 466              	.LVL61:
 467 0010 9A68     		ldr	r2, [r3, #8]
 468 0012 9446     		mov	ip, r2
 469 0014 6144     		add	r1, r1, ip
 470              	.LVL62:
 992:Generated_Source\PSoC4/CapSense_1_Filter.c **** 
 471              		.loc 1 992 0
 472 0016 DD68     		ldr	r5, [r3, #12]
 473 0018 2800     		movs	r0, r5
 474              	.LVL63:
 994:Generated_Source\PSoC4/CapSense_1_Filter.c ****     {
 475              		.loc 1 994 0
 476 001a 9A7E     		ldrb	r2, [r3, #26]
 477 001c 062A     		cmp	r2, #6
 478 001e 03D0     		beq	.L30
 997:Generated_Source\PSoC4/CapSense_1_Filter.c ****         #endif /* (CapSense_1_REGULAR_SENSOR_EN) */
 479              		.loc 1 997 0
 480 0020 6300     		lsls	r3, r4, #1
 481              	.LVL64:
 482 0022 1C19     		adds	r4, r3, r4
 483              	.LVL65:
 484 0024 A000     		lsls	r0, r4, #2
 485 0026 2818     		adds	r0, r5, r0
 486              	.L30:
1007:Generated_Source\PSoC4/CapSense_1_Filter.c **** }
 487              		.loc 1 1007 0
 488 0028 FFF7FEFF 		bl	CapSense_1_InitializeMedianInternal
 489              	.LVL66:
1008:Generated_Source\PSoC4/CapSense_1_Filter.c **** 
 490              		.loc 1 1008 0
 491              		@ sp needed
 492 002c 70BD     		pop	{r4, r5, r6, pc}
 493              	.L32:
 494 002e C046     		.align	2
 495              	.L31:
 496 0030 00000000 		.word	CapSense_1_dsFlash
 497              		.cfi_endproc
 498              	.LFE16:
 499              		.size	CapSense_1_InitializeMedian, .-CapSense_1_InitializeMedian
 500              		.section	.text.CapSense_1_InitializeAverageInternal,"ax",%progbits
 501              		.align	2
 502              		.global	CapSense_1_InitializeAverageInternal
 503              		.code	16
 504              		.thumb_func
 505              		.type	CapSense_1_InitializeAverageInternal, %function
 506              	CapSense_1_InitializeAverageInternal:
 507              	.LFB22:
ARM GAS  C:\Users\Mayur\AppData\Local\Temp\ccxZLytu.s 			page 30


1103:Generated_Source\PSoC4/CapSense_1_Filter.c **** 
1104:Generated_Source\PSoC4/CapSense_1_Filter.c **** 
1105:Generated_Source\PSoC4/CapSense_1_Filter.c **** /*******************************************************************************
1106:Generated_Source\PSoC4/CapSense_1_Filter.c **** * Function Name: CapSense_1_RunMedianInternal
1107:Generated_Source\PSoC4/CapSense_1_Filter.c **** ****************************************************************************//**
1108:Generated_Source\PSoC4/CapSense_1_Filter.c **** *
1109:Generated_Source\PSoC4/CapSense_1_Filter.c **** * \brief
1110:Generated_Source\PSoC4/CapSense_1_Filter.c **** *  Runs the Median filter.
1111:Generated_Source\PSoC4/CapSense_1_Filter.c **** *
1112:Generated_Source\PSoC4/CapSense_1_Filter.c **** * \details
1113:Generated_Source\PSoC4/CapSense_1_Filter.c **** *  Runs the Median filter.
1114:Generated_Source\PSoC4/CapSense_1_Filter.c **** *
1115:Generated_Source\PSoC4/CapSense_1_Filter.c **** * \param ptrFilterHistObj
1116:Generated_Source\PSoC4/CapSense_1_Filter.c **** *  The pointer to the filter RAM object of the sensor.
1117:Generated_Source\PSoC4/CapSense_1_Filter.c **** *
1118:Generated_Source\PSoC4/CapSense_1_Filter.c **** * \param ptrSensorObj
1119:Generated_Source\PSoC4/CapSense_1_Filter.c **** *  The pointer to the sensor RAM object of the sensor.
1120:Generated_Source\PSoC4/CapSense_1_Filter.c **** *
1121:Generated_Source\PSoC4/CapSense_1_Filter.c **** * \param wdType
1122:Generated_Source\PSoC4/CapSense_1_Filter.c **** *  Specifies the type of a widget.
1123:Generated_Source\PSoC4/CapSense_1_Filter.c **** *
1124:Generated_Source\PSoC4/CapSense_1_Filter.c **** *******************************************************************************/
1125:Generated_Source\PSoC4/CapSense_1_Filter.c **** void CapSense_1_RunMedianInternal(CapSense_1_PTR_FILTER_VARIANT ptrFilterHistObj,
1126:Generated_Source\PSoC4/CapSense_1_Filter.c ****                                         CapSense_1_RAM_SNS_STRUCT *ptrSensorObj, uint32 wdType)
1127:Generated_Source\PSoC4/CapSense_1_Filter.c **** {
1128:Generated_Source\PSoC4/CapSense_1_Filter.c ****     uint32 freqChannel;
1129:Generated_Source\PSoC4/CapSense_1_Filter.c **** 
1130:Generated_Source\PSoC4/CapSense_1_Filter.c ****     #if ((CapSense_1_REGULAR_SENSOR_EN && CapSense_1_REGULAR_RC_MEDIAN_FILTER_EN) || \
1131:Generated_Source\PSoC4/CapSense_1_Filter.c ****          (CapSense_1_PROXIMITY_SENSOR_EN && CapSense_1_PROX_RC_MEDIAN_FILTER_EN))
1132:Generated_Source\PSoC4/CapSense_1_Filter.c ****         uint32 temp;
1133:Generated_Source\PSoC4/CapSense_1_Filter.c ****     #endif
1134:Generated_Source\PSoC4/CapSense_1_Filter.c **** 
1135:Generated_Source\PSoC4/CapSense_1_Filter.c ****     for(freqChannel = CapSense_1_NUM_SCAN_FREQS; freqChannel-- > 0u;)
1136:Generated_Source\PSoC4/CapSense_1_Filter.c ****     {
1137:Generated_Source\PSoC4/CapSense_1_Filter.c ****         if ((CapSense_1_WD_TYPE_ENUM)wdType != CapSense_1_WD_PROXIMITY_E)
1138:Generated_Source\PSoC4/CapSense_1_Filter.c ****         {
1139:Generated_Source\PSoC4/CapSense_1_Filter.c ****             #if (CapSense_1_REGULAR_SENSOR_EN && CapSense_1_REGULAR_RC_MEDIAN_FILTER_EN)
1140:Generated_Source\PSoC4/CapSense_1_Filter.c ****                 temp = CapSense_1_FtMedian((uint32)ptrSensorObj->raw[freqChannel],\
1141:Generated_Source\PSoC4/CapSense_1_Filter.c ****                                                  (uint32)ptrFilterHistObj.ptrRegular->regularChanne
1142:Generated_Source\PSoC4/CapSense_1_Filter.c ****                                                  (uint32)ptrFilterHistObj.ptrRegular->regularChanne
1143:Generated_Source\PSoC4/CapSense_1_Filter.c ****                 ptrFilterHistObj.ptrRegular->regularChannel[freqChannel].medHistory[1u] = \
1144:Generated_Source\PSoC4/CapSense_1_Filter.c ****                 ptrFilterHistObj.ptrRegular->regularChannel[freqChannel].medHistory[0u];
1145:Generated_Source\PSoC4/CapSense_1_Filter.c ****                 ptrFilterHistObj.ptrRegular->regularChannel[freqChannel].medHistory[0u] = ptrSensor
1146:Generated_Source\PSoC4/CapSense_1_Filter.c ****                 ptrSensorObj->raw[freqChannel] = LO16(temp);
1147:Generated_Source\PSoC4/CapSense_1_Filter.c ****             #endif /* (CapSense_1_REGULAR_SENSOR_EN) */
1148:Generated_Source\PSoC4/CapSense_1_Filter.c ****         }
1149:Generated_Source\PSoC4/CapSense_1_Filter.c ****         else
1150:Generated_Source\PSoC4/CapSense_1_Filter.c ****         {
1151:Generated_Source\PSoC4/CapSense_1_Filter.c ****             #if (CapSense_1_PROXIMITY_SENSOR_EN && CapSense_1_PROX_RC_MEDIAN_FILTER_EN)
1152:Generated_Source\PSoC4/CapSense_1_Filter.c ****                 temp = CapSense_1_FtMedian((uint32)ptrSensorObj->raw[freqChannel],\
1153:Generated_Source\PSoC4/CapSense_1_Filter.c ****                                                  (uint32)ptrFilterHistObj.ptrProx->proxChannel[freq
1154:Generated_Source\PSoC4/CapSense_1_Filter.c ****                                                  (uint32)ptrFilterHistObj.ptrProx->proxChannel[freq
1155:Generated_Source\PSoC4/CapSense_1_Filter.c ****                 ptrFilterHistObj.ptrProx->proxChannel[freqChannel].medHistory[1u] = \
1156:Generated_Source\PSoC4/CapSense_1_Filter.c ****                 ptrFilterHistObj.ptrProx->proxChannel[freqChannel].medHistory[0u];
1157:Generated_Source\PSoC4/CapSense_1_Filter.c ****                 ptrFilterHistObj.ptrProx->proxChannel[freqChannel].medHistory[0u] = ptrSensorObj->r
1158:Generated_Source\PSoC4/CapSense_1_Filter.c ****                 ptrSensorObj->raw[freqChannel] = LO16(temp);
1159:Generated_Source\PSoC4/CapSense_1_Filter.c ****             #endif /* (CapSense_1_PROXIMITY_SENSOR_EN) */
ARM GAS  C:\Users\Mayur\AppData\Local\Temp\ccxZLytu.s 			page 31


1160:Generated_Source\PSoC4/CapSense_1_Filter.c ****         }
1161:Generated_Source\PSoC4/CapSense_1_Filter.c ****     }
1162:Generated_Source\PSoC4/CapSense_1_Filter.c **** }
1163:Generated_Source\PSoC4/CapSense_1_Filter.c **** #endif /* (CapSense_1_REGULAR_RC_MEDIAN_FILTER_EN || CapSense_1_PROX_RC_MEDIAN_FILTER_EN) */
1164:Generated_Source\PSoC4/CapSense_1_Filter.c **** 
1165:Generated_Source\PSoC4/CapSense_1_Filter.c **** 
1166:Generated_Source\PSoC4/CapSense_1_Filter.c **** #if (CapSense_1_REGULAR_RC_AVERAGE_FILTER_EN || CapSense_1_PROX_RC_AVERAGE_FILTER_EN)
1167:Generated_Source\PSoC4/CapSense_1_Filter.c **** 
1168:Generated_Source\PSoC4/CapSense_1_Filter.c **** /*******************************************************************************
1169:Generated_Source\PSoC4/CapSense_1_Filter.c **** * Function Name: CapSense_1_InitializeAverage
1170:Generated_Source\PSoC4/CapSense_1_Filter.c **** ****************************************************************************//**
1171:Generated_Source\PSoC4/CapSense_1_Filter.c **** *
1172:Generated_Source\PSoC4/CapSense_1_Filter.c **** * \brief
1173:Generated_Source\PSoC4/CapSense_1_Filter.c **** *  Initializes the average filter history.
1174:Generated_Source\PSoC4/CapSense_1_Filter.c **** *
1175:Generated_Source\PSoC4/CapSense_1_Filter.c **** * \details
1176:Generated_Source\PSoC4/CapSense_1_Filter.c **** *  Initializes the average filter history.
1177:Generated_Source\PSoC4/CapSense_1_Filter.c **** *
1178:Generated_Source\PSoC4/CapSense_1_Filter.c **** * \param widgetId
1179:Generated_Source\PSoC4/CapSense_1_Filter.c **** *  Specifies the ID number of the widget.
1180:Generated_Source\PSoC4/CapSense_1_Filter.c **** *
1181:Generated_Source\PSoC4/CapSense_1_Filter.c **** * \param sensorId
1182:Generated_Source\PSoC4/CapSense_1_Filter.c **** *  Specifies the ID number of the sensor in the widget.
1183:Generated_Source\PSoC4/CapSense_1_Filter.c **** *
1184:Generated_Source\PSoC4/CapSense_1_Filter.c **** *******************************************************************************/
1185:Generated_Source\PSoC4/CapSense_1_Filter.c **** void CapSense_1_InitializeAverage(uint32 widgetId, uint32 sensorId)
1186:Generated_Source\PSoC4/CapSense_1_Filter.c **** {
1187:Generated_Source\PSoC4/CapSense_1_Filter.c ****     CapSense_1_FLASH_WD_STRUCT const *ptrWidget = &CapSense_1_dsFlash.wdgtArray[widgetId];
1188:Generated_Source\PSoC4/CapSense_1_Filter.c ****     CapSense_1_RAM_SNS_STRUCT *ptrSensor = NULL;
1189:Generated_Source\PSoC4/CapSense_1_Filter.c ****     CapSense_1_PTR_FILTER_VARIANT ptrFilterHistObj;
1190:Generated_Source\PSoC4/CapSense_1_Filter.c **** 
1191:Generated_Source\PSoC4/CapSense_1_Filter.c ****     /* Find pointer to specified sensor object */
1192:Generated_Source\PSoC4/CapSense_1_Filter.c ****     ptrSensor = ptrWidget->ptr2SnsRam;
1193:Generated_Source\PSoC4/CapSense_1_Filter.c ****     ptrSensor = &ptrSensor[sensorId];
1194:Generated_Source\PSoC4/CapSense_1_Filter.c **** 
1195:Generated_Source\PSoC4/CapSense_1_Filter.c ****     /* Find pointer to specified filter sensor object */
1196:Generated_Source\PSoC4/CapSense_1_Filter.c ****     ptrFilterHistObj.ptr = ptrWidget->ptr2FltrHistory;
1197:Generated_Source\PSoC4/CapSense_1_Filter.c **** 
1198:Generated_Source\PSoC4/CapSense_1_Filter.c ****     if ((CapSense_1_WD_TYPE_ENUM)ptrWidget->wdgtType != CapSense_1_WD_PROXIMITY_E)
1199:Generated_Source\PSoC4/CapSense_1_Filter.c ****     {
1200:Generated_Source\PSoC4/CapSense_1_Filter.c ****         #if (CapSense_1_REGULAR_SENSOR_EN)
1201:Generated_Source\PSoC4/CapSense_1_Filter.c ****             ptrFilterHistObj.ptrRegular = &ptrFilterHistObj.ptrRegular[sensorId];
1202:Generated_Source\PSoC4/CapSense_1_Filter.c ****         #endif /* (CapSense_1_REGULAR_SENSOR_EN) */
1203:Generated_Source\PSoC4/CapSense_1_Filter.c ****     }
1204:Generated_Source\PSoC4/CapSense_1_Filter.c ****     else
1205:Generated_Source\PSoC4/CapSense_1_Filter.c ****     {
1206:Generated_Source\PSoC4/CapSense_1_Filter.c ****         #if (CapSense_1_PROXIMITY_SENSOR_EN)
1207:Generated_Source\PSoC4/CapSense_1_Filter.c ****             ptrFilterHistObj.ptrProx = &ptrFilterHistObj.ptrProx[sensorId];
1208:Generated_Source\PSoC4/CapSense_1_Filter.c ****         #endif /* (CapSense_1_PROXIMITY_SENSOR_EN) */
1209:Generated_Source\PSoC4/CapSense_1_Filter.c ****     }
1210:Generated_Source\PSoC4/CapSense_1_Filter.c **** 
1211:Generated_Source\PSoC4/CapSense_1_Filter.c ****     CapSense_1_InitializeAverageInternal(ptrFilterHistObj, ptrSensor, (uint32)ptrWidget->wdgtType);
1212:Generated_Source\PSoC4/CapSense_1_Filter.c **** }
1213:Generated_Source\PSoC4/CapSense_1_Filter.c **** 
1214:Generated_Source\PSoC4/CapSense_1_Filter.c **** 
1215:Generated_Source\PSoC4/CapSense_1_Filter.c **** /*******************************************************************************
1216:Generated_Source\PSoC4/CapSense_1_Filter.c **** * Function Name: CapSense_1_RunAverage
ARM GAS  C:\Users\Mayur\AppData\Local\Temp\ccxZLytu.s 			page 32


1217:Generated_Source\PSoC4/CapSense_1_Filter.c **** ****************************************************************************//**
1218:Generated_Source\PSoC4/CapSense_1_Filter.c **** *
1219:Generated_Source\PSoC4/CapSense_1_Filter.c **** * \brief
1220:Generated_Source\PSoC4/CapSense_1_Filter.c **** *  Executes the average filter algorithm on a sensor indicated by an input
1221:Generated_Source\PSoC4/CapSense_1_Filter.c **** *  parameter.
1222:Generated_Source\PSoC4/CapSense_1_Filter.c **** *
1223:Generated_Source\PSoC4/CapSense_1_Filter.c **** * \details
1224:Generated_Source\PSoC4/CapSense_1_Filter.c **** *  Executes the average filter algorithm on a sensor indicated by an input
1225:Generated_Source\PSoC4/CapSense_1_Filter.c **** *  parameter.
1226:Generated_Source\PSoC4/CapSense_1_Filter.c **** *
1227:Generated_Source\PSoC4/CapSense_1_Filter.c **** * \param widgetId
1228:Generated_Source\PSoC4/CapSense_1_Filter.c **** *  Specifies the ID number of the widget.
1229:Generated_Source\PSoC4/CapSense_1_Filter.c **** *
1230:Generated_Source\PSoC4/CapSense_1_Filter.c **** * \param sensorId
1231:Generated_Source\PSoC4/CapSense_1_Filter.c **** *  Specifies the ID number of the sensor in the widget.
1232:Generated_Source\PSoC4/CapSense_1_Filter.c **** *
1233:Generated_Source\PSoC4/CapSense_1_Filter.c **** *******************************************************************************/
1234:Generated_Source\PSoC4/CapSense_1_Filter.c **** void CapSense_1_RunAverage(uint32 widgetId, uint32 sensorId)
1235:Generated_Source\PSoC4/CapSense_1_Filter.c **** {
1236:Generated_Source\PSoC4/CapSense_1_Filter.c ****     CapSense_1_FLASH_WD_STRUCT const *ptrWidget = &CapSense_1_dsFlash.wdgtArray[widgetId];
1237:Generated_Source\PSoC4/CapSense_1_Filter.c ****     CapSense_1_RAM_SNS_STRUCT *ptrSensor = NULL;
1238:Generated_Source\PSoC4/CapSense_1_Filter.c ****     CapSense_1_PTR_FILTER_VARIANT ptrFilterHistObj;
1239:Generated_Source\PSoC4/CapSense_1_Filter.c **** 
1240:Generated_Source\PSoC4/CapSense_1_Filter.c ****     /* Find pointer to specified sensor object */
1241:Generated_Source\PSoC4/CapSense_1_Filter.c ****     ptrSensor = ptrWidget->ptr2SnsRam;
1242:Generated_Source\PSoC4/CapSense_1_Filter.c ****     ptrSensor = &ptrSensor[sensorId];
1243:Generated_Source\PSoC4/CapSense_1_Filter.c **** 
1244:Generated_Source\PSoC4/CapSense_1_Filter.c ****     /* Find pointer to specified filter sensor object */
1245:Generated_Source\PSoC4/CapSense_1_Filter.c ****     ptrFilterHistObj.ptr = ptrWidget->ptr2FltrHistory;
1246:Generated_Source\PSoC4/CapSense_1_Filter.c **** 
1247:Generated_Source\PSoC4/CapSense_1_Filter.c ****     if ((CapSense_1_WD_TYPE_ENUM)ptrWidget->wdgtType != CapSense_1_WD_PROXIMITY_E)
1248:Generated_Source\PSoC4/CapSense_1_Filter.c ****     {
1249:Generated_Source\PSoC4/CapSense_1_Filter.c ****         #if (CapSense_1_REGULAR_SENSOR_EN)
1250:Generated_Source\PSoC4/CapSense_1_Filter.c ****             ptrFilterHistObj.ptrRegular = &ptrFilterHistObj.ptrRegular[sensorId];
1251:Generated_Source\PSoC4/CapSense_1_Filter.c ****         #endif /* (CapSense_1_REGULAR_SENSOR_EN) */
1252:Generated_Source\PSoC4/CapSense_1_Filter.c ****     }
1253:Generated_Source\PSoC4/CapSense_1_Filter.c ****     else
1254:Generated_Source\PSoC4/CapSense_1_Filter.c ****     {
1255:Generated_Source\PSoC4/CapSense_1_Filter.c ****         #if (CapSense_1_PROXIMITY_SENSOR_EN)
1256:Generated_Source\PSoC4/CapSense_1_Filter.c ****             ptrFilterHistObj.ptrProx = &ptrFilterHistObj.ptrProx[sensorId];
1257:Generated_Source\PSoC4/CapSense_1_Filter.c ****         #endif /* (CapSense_1_PROXIMITY_SENSOR_EN) */
1258:Generated_Source\PSoC4/CapSense_1_Filter.c ****     }
1259:Generated_Source\PSoC4/CapSense_1_Filter.c **** 
1260:Generated_Source\PSoC4/CapSense_1_Filter.c ****     CapSense_1_RunAverageInternal(ptrFilterHistObj, ptrSensor, (uint32)ptrWidget->wdgtType);
1261:Generated_Source\PSoC4/CapSense_1_Filter.c **** }
1262:Generated_Source\PSoC4/CapSense_1_Filter.c **** 
1263:Generated_Source\PSoC4/CapSense_1_Filter.c **** 
1264:Generated_Source\PSoC4/CapSense_1_Filter.c **** /*******************************************************************************
1265:Generated_Source\PSoC4/CapSense_1_Filter.c **** * Function Name: CapSense_1_InitializeAverageInternal
1266:Generated_Source\PSoC4/CapSense_1_Filter.c **** ****************************************************************************//**
1267:Generated_Source\PSoC4/CapSense_1_Filter.c **** *
1268:Generated_Source\PSoC4/CapSense_1_Filter.c **** * \brief
1269:Generated_Source\PSoC4/CapSense_1_Filter.c **** *  Initializes the average filter.
1270:Generated_Source\PSoC4/CapSense_1_Filter.c **** *
1271:Generated_Source\PSoC4/CapSense_1_Filter.c **** * \details
1272:Generated_Source\PSoC4/CapSense_1_Filter.c **** *  Initializes the average filter.
1273:Generated_Source\PSoC4/CapSense_1_Filter.c **** *
ARM GAS  C:\Users\Mayur\AppData\Local\Temp\ccxZLytu.s 			page 33


1274:Generated_Source\PSoC4/CapSense_1_Filter.c **** * \param ptrFilterHistObj
1275:Generated_Source\PSoC4/CapSense_1_Filter.c **** *  The pointer to the filter RAM object of the sensor.
1276:Generated_Source\PSoC4/CapSense_1_Filter.c **** *
1277:Generated_Source\PSoC4/CapSense_1_Filter.c **** * \param ptrSensorObj
1278:Generated_Source\PSoC4/CapSense_1_Filter.c **** *  The pointer to the sensor RAM object of the sensor.
1279:Generated_Source\PSoC4/CapSense_1_Filter.c **** *
1280:Generated_Source\PSoC4/CapSense_1_Filter.c **** * \param wdType
1281:Generated_Source\PSoC4/CapSense_1_Filter.c **** *  Specifies the type of a widget.
1282:Generated_Source\PSoC4/CapSense_1_Filter.c **** *
1283:Generated_Source\PSoC4/CapSense_1_Filter.c **** *******************************************************************************/
1284:Generated_Source\PSoC4/CapSense_1_Filter.c **** void CapSense_1_InitializeAverageInternal(CapSense_1_PTR_FILTER_VARIANT ptrFilterHistObj,\
1285:Generated_Source\PSoC4/CapSense_1_Filter.c ****                                                   CapSense_1_RAM_SNS_STRUCT *ptrSensorObj, uint32 w
1286:Generated_Source\PSoC4/CapSense_1_Filter.c **** {
 508              		.loc 1 1286 0
 509              		.cfi_startproc
 510              		@ args = 0, pretend = 0, frame = 0
 511              		@ frame_needed = 0, uses_anonymous_args = 0
 512              	.LVL67:
 513 0000 F0B5     		push	{r4, r5, r6, r7, lr}
 514              		.cfi_def_cfa_offset 20
 515              		.cfi_offset 4, -20
 516              		.cfi_offset 5, -16
 517              		.cfi_offset 6, -12
 518              		.cfi_offset 7, -8
 519              		.cfi_offset 14, -4
 520              	.LVL68:
1287:Generated_Source\PSoC4/CapSense_1_Filter.c ****     uint32 freqChannel;
1288:Generated_Source\PSoC4/CapSense_1_Filter.c **** 
1289:Generated_Source\PSoC4/CapSense_1_Filter.c ****     for(freqChannel = CapSense_1_NUM_SCAN_FREQS; freqChannel-- > 0u;)
 521              		.loc 1 1289 0
 522 0002 0123     		movs	r3, #1
 523 0004 0EE0     		b	.L34
 524              	.LVL69:
 525              	.L36:
1290:Generated_Source\PSoC4/CapSense_1_Filter.c ****     {
1291:Generated_Source\PSoC4/CapSense_1_Filter.c ****         if ((CapSense_1_WD_TYPE_ENUM)wdType != CapSense_1_WD_PROXIMITY_E)
 526              		.loc 1 1291 0
 527 0006 FF23     		movs	r3, #255
 528 0008 1340     		ands	r3, r2
 529 000a 062B     		cmp	r3, #6
 530 000c 09D0     		beq	.L35
1292:Generated_Source\PSoC4/CapSense_1_Filter.c ****         {
1293:Generated_Source\PSoC4/CapSense_1_Filter.c ****             #if (CapSense_1_REGULAR_SENSOR_EN && CapSense_1_REGULAR_RC_AVERAGE_FILTER_EN)
1294:Generated_Source\PSoC4/CapSense_1_Filter.c ****                 ptrFilterHistObj.ptrRegular->regularChannel[freqChannel].avgHistory[0] = ptrSensorO
 531              		.loc 1 1294 0
 532 000e 6500     		lsls	r5, r4, #1
 533 0010 6F5A     		ldrh	r7, [r5, r1]
 534 0012 2E19     		adds	r6, r5, r4
 535 0014 B300     		lsls	r3, r6, #2
 536 0016 C318     		adds	r3, r0, r3
 537 0018 DF80     		strh	r7, [r3, #6]
1295:Generated_Source\PSoC4/CapSense_1_Filter.c ****                 #if (CapSense_1_REGULAR_AVERAGE_LEN == CapSense_1_AVERAGE_FILTER_LEN_4)
1296:Generated_Source\PSoC4/CapSense_1_Filter.c ****                     ptrFilterHistObj.ptrRegular->regularChannel[freqChannel].avgHistory[1u] = ptrSe
 538              		.loc 1 1296 0
 539 001a 6E5A     		ldrh	r6, [r5, r1]
 540 001c 1E81     		strh	r6, [r3, #8]
1297:Generated_Source\PSoC4/CapSense_1_Filter.c ****                     ptrFilterHistObj.ptrRegular->regularChannel[freqChannel].avgHistory[2u] = ptrSe
ARM GAS  C:\Users\Mayur\AppData\Local\Temp\ccxZLytu.s 			page 34


 541              		.loc 1 1297 0
 542 001e 6D5A     		ldrh	r5, [r5, r1]
 543 0020 5D81     		strh	r5, [r3, #10]
 544              	.L35:
1286:Generated_Source\PSoC4/CapSense_1_Filter.c ****     uint32 freqChannel;
 545              		.loc 1 1286 0 discriminator 1
 546 0022 2300     		movs	r3, r4
 547              	.LVL70:
 548              	.L34:
1289:Generated_Source\PSoC4/CapSense_1_Filter.c ****     {
 549              		.loc 1 1289 0 discriminator 1
 550 0024 5C1E     		subs	r4, r3, #1
 551              	.LVL71:
 552 0026 002B     		cmp	r3, #0
 553 0028 EDD1     		bne	.L36
1298:Generated_Source\PSoC4/CapSense_1_Filter.c ****                 #endif /* CapSense_1_REGULAR_AVERAGE_LEN == CapSense_1_AVERAGE_FILTER_LEN_4 */
1299:Generated_Source\PSoC4/CapSense_1_Filter.c ****             #endif /* (CapSense_1_REGULAR_SENSOR_EN) */
1300:Generated_Source\PSoC4/CapSense_1_Filter.c ****         }
1301:Generated_Source\PSoC4/CapSense_1_Filter.c ****         else
1302:Generated_Source\PSoC4/CapSense_1_Filter.c ****         {
1303:Generated_Source\PSoC4/CapSense_1_Filter.c ****             #if (CapSense_1_PROXIMITY_SENSOR_EN && CapSense_1_PROX_RC_AVERAGE_FILTER_EN)
1304:Generated_Source\PSoC4/CapSense_1_Filter.c ****                 ptrFilterHistObj.ptrProx->proxChannel[freqChannel].avgHistory[0] = ptrSensorObj->ra
1305:Generated_Source\PSoC4/CapSense_1_Filter.c ****                     #if (CapSense_1_PROX_AVERAGE_LEN == CapSense_1_AVERAGE_FILTER_LEN_4)
1306:Generated_Source\PSoC4/CapSense_1_Filter.c ****                         ptrFilterHistObj.ptrProx->proxChannel[freqChannel].avgHistory[1u] = ptrSens
1307:Generated_Source\PSoC4/CapSense_1_Filter.c ****                         ptrFilterHistObj.ptrProx->proxChannel[freqChannel].avgHistory[2u] = ptrSens
1308:Generated_Source\PSoC4/CapSense_1_Filter.c ****                     #endif /* CapSense_1_REGULAR_AVERAGE_LEN == CapSense_1_AVERAGE_FILTER_LEN_4 */
1309:Generated_Source\PSoC4/CapSense_1_Filter.c ****             #endif /* (CapSense_1_PROXIMITY_SENSOR_EN) */
1310:Generated_Source\PSoC4/CapSense_1_Filter.c ****         }
1311:Generated_Source\PSoC4/CapSense_1_Filter.c ****     }
1312:Generated_Source\PSoC4/CapSense_1_Filter.c **** }
 554              		.loc 1 1312 0
 555              		@ sp needed
 556              	.LVL72:
 557 002a F0BD     		pop	{r4, r5, r6, r7, pc}
 558              		.cfi_endproc
 559              	.LFE22:
 560              		.size	CapSense_1_InitializeAverageInternal, .-CapSense_1_InitializeAverageInternal
 561              		.section	.text.CapSense_1_InitializeWidgetFilter,"ax",%progbits
 562              		.align	2
 563              		.global	CapSense_1_InitializeWidgetFilter
 564              		.code	16
 565              		.thumb_func
 566              		.type	CapSense_1_InitializeWidgetFilter, %function
 567              	CapSense_1_InitializeWidgetFilter:
 568              	.LFB11:
 648:Generated_Source\PSoC4/CapSense_1_Filter.c ****     uint32 sensorId;
 569              		.loc 1 648 0
 570              		.cfi_startproc
 571              		@ args = 0, pretend = 0, frame = 0
 572              		@ frame_needed = 0, uses_anonymous_args = 0
 573              	.LVL73:
 574 0000 F0B5     		push	{r4, r5, r6, r7, lr}
 575              		.cfi_def_cfa_offset 20
 576              		.cfi_offset 4, -20
 577              		.cfi_offset 5, -16
 578              		.cfi_offset 6, -12
 579              		.cfi_offset 7, -8
ARM GAS  C:\Users\Mayur\AppData\Local\Temp\ccxZLytu.s 			page 35


 580              		.cfi_offset 14, -4
 581 0002 5746     		mov	r7, r10
 582 0004 4E46     		mov	r6, r9
 583 0006 4546     		mov	r5, r8
 584 0008 E0B4     		push	{r5, r6, r7}
 585              		.cfi_def_cfa_offset 32
 586              		.cfi_offset 8, -32
 587              		.cfi_offset 9, -28
 588              		.cfi_offset 10, -24
 589 000a 8046     		mov	r8, r0
 590              	.LVL74:
 666:Generated_Source\PSoC4/CapSense_1_Filter.c ****     #endif /* (0u != (CapSense_1_CSD_AUTOTUNE & CapSense_1_CSD_SS_TH_EN)) */
 591              		.loc 1 666 0
 592 000c 4301     		lsls	r3, r0, #5
 593 000e 1D4A     		ldr	r2, .L41
 594 0010 D318     		adds	r3, r2, r3
 595              	.LVL75:
 596 0012 5A68     		ldr	r2, [r3, #4]
 597 0014 9146     		mov	r9, r2
 598              	.LVL76:
 670:Generated_Source\PSoC4/CapSense_1_Filter.c **** 
 599              		.loc 1 670 0
 600 0016 1B8B     		ldrh	r3, [r3, #24]
 601              	.LVL77:
 672:Generated_Source\PSoC4/CapSense_1_Filter.c ****     {
 602              		.loc 1 672 0
 603 0018 2BE0     		b	.L38
 604              	.LVL78:
 605              	.L40:
 675:Generated_Source\PSoC4/CapSense_1_Filter.c ****         ptrSensor = &ptrSensor[sensorId];
 606              		.loc 1 675 0
 607 001a 4346     		mov	r3, r8
 608 001c 5A01     		lsls	r2, r3, #5
 609 001e 194B     		ldr	r3, .L41
 610 0020 9B18     		adds	r3, r3, r2
 611              	.LVL79:
 676:Generated_Source\PSoC4/CapSense_1_Filter.c **** 
 612              		.loc 1 676 0
 613 0022 AA00     		lsls	r2, r5, #2
 614 0024 5219     		adds	r2, r2, r5
 615 0026 5400     		lsls	r4, r2, #1
 616 0028 9A68     		ldr	r2, [r3, #8]
 617 002a 9446     		mov	ip, r2
 618 002c 6444     		add	r4, r4, ip
 619              	.LVL80:
 680:Generated_Source\PSoC4/CapSense_1_Filter.c ****         #endif
 620              		.loc 1 680 0
 621 002e D868     		ldr	r0, [r3, #12]
 622 0030 0600     		movs	r6, r0
 623              	.LVL81:
 686:Generated_Source\PSoC4/CapSense_1_Filter.c ****         #endif /* (0u != (CapSense_1_CSD_AUTOTUNE & CapSense_1_CSD_SS_TH_EN)) */
 624              		.loc 1 686 0
 625 0032 6A00     		lsls	r2, r5, #1
 626 0034 5219     		adds	r2, r2, r5
 627 0036 9100     		lsls	r1, r2, #2
 628 0038 DA69     		ldr	r2, [r3, #28]
 629 003a 9246     		mov	r10, r2
ARM GAS  C:\Users\Mayur\AppData\Local\Temp\ccxZLytu.s 			page 36


 630 003c 8A44     		add	r10, r10, r1
 631              	.LVL82:
 689:Generated_Source\PSoC4/CapSense_1_Filter.c ****         {
 632              		.loc 1 689 0
 633 003e 9F7E     		ldrb	r7, [r3, #26]
 634 0040 062F     		cmp	r7, #6
 635 0042 00D0     		beq	.L39
 694:Generated_Source\PSoC4/CapSense_1_Filter.c ****             #endif
 636              		.loc 1 694 0
 637 0044 4618     		adds	r6, r0, r1
 638              	.L39:
 707:Generated_Source\PSoC4/CapSense_1_Filter.c ****         #endif /* (CapSense_1_REGULAR_RC_IIR_FILTER_EN || CapSense_1_PROX_RC_IIR_FILTER_EN) */
 639              		.loc 1 707 0
 640 0046 3A00     		movs	r2, r7
 641 0048 2100     		movs	r1, r4
 642              	.LVL83:
 643 004a 3000     		movs	r0, r6
 644 004c FFF7FEFF 		bl	CapSense_1_InitializeIIRInternal
 645              	.LVL84:
 711:Generated_Source\PSoC4/CapSense_1_Filter.c ****         #endif /* (CapSense_1_REGULAR_RC_MEDIAN_FILTER_EN || CapSense_1_PROX_RC_MEDIAN_FILTER_EN) *
 646              		.loc 1 711 0
 647 0050 3A00     		movs	r2, r7
 648 0052 2100     		movs	r1, r4
 649 0054 3000     		movs	r0, r6
 650 0056 FFF7FEFF 		bl	CapSense_1_InitializeMedianInternal
 651              	.LVL85:
 715:Generated_Source\PSoC4/CapSense_1_Filter.c ****         #endif /* (CapSense_1_REGULAR_RC_AVERAGE_FILTER_EN || CapSense_1_PROX_RC_AVERAGE_FILTER_EN)
 652              		.loc 1 715 0
 653 005a 3A00     		movs	r2, r7
 654 005c 2100     		movs	r1, r4
 655 005e 3000     		movs	r0, r6
 656 0060 FFF7FEFF 		bl	CapSense_1_InitializeAverageInternal
 657              	.LVL86:
 726:Generated_Source\PSoC4/CapSense_1_Filter.c ****             }
 658              		.loc 1 726 0
 659 0064 4B46     		mov	r3, r9
 660 0066 198A     		ldrh	r1, [r3, #16]
 661 0068 2088     		ldrh	r0, [r4]
 662 006a 5246     		mov	r2, r10
 663 006c FFF7FEFF 		bl	SmartSense_InitializeNoiseEnvelope
 664              	.LVL87:
 672:Generated_Source\PSoC4/CapSense_1_Filter.c ****     {
 665              		.loc 1 672 0
 666 0070 2B00     		movs	r3, r5
 667              	.LVL88:
 668              	.L38:
 672:Generated_Source\PSoC4/CapSense_1_Filter.c ****     {
 669              		.loc 1 672 0 is_stmt 0 discriminator 1
 670 0072 5D1E     		subs	r5, r3, #1
 671              	.LVL89:
 672 0074 002B     		cmp	r3, #0
 673 0076 D0D1     		bne	.L40
 730:Generated_Source\PSoC4/CapSense_1_Filter.c **** #endif /* ((CapSense_1_ENABLE == CapSense_1_RC_FILTER_EN) || \
 674              		.loc 1 730 0 is_stmt 1
 675              		@ sp needed
 676              	.LVL90:
 677              	.LVL91:
ARM GAS  C:\Users\Mayur\AppData\Local\Temp\ccxZLytu.s 			page 37


 678              	.LVL92:
 679              	.LVL93:
 680 0078 1CBC     		pop	{r2, r3, r4}
 681 007a 9046     		mov	r8, r2
 682 007c 9946     		mov	r9, r3
 683 007e A246     		mov	r10, r4
 684 0080 F0BD     		pop	{r4, r5, r6, r7, pc}
 685              	.L42:
 686 0082 C046     		.align	2
 687              	.L41:
 688 0084 00000000 		.word	CapSense_1_dsFlash
 689              		.cfi_endproc
 690              	.LFE11:
 691              		.size	CapSense_1_InitializeWidgetFilter, .-CapSense_1_InitializeWidgetFilter
 692              		.section	.text.CapSense_1_InitializeAllFilters,"ax",%progbits
 693              		.align	2
 694              		.global	CapSense_1_InitializeAllFilters
 695              		.code	16
 696              		.thumb_func
 697              		.type	CapSense_1_InitializeAllFilters, %function
 698              	CapSense_1_InitializeAllFilters:
 699              	.LFB10:
 618:Generated_Source\PSoC4/CapSense_1_Filter.c ****     uint32 widgetId;
 700              		.loc 1 618 0
 701              		.cfi_startproc
 702              		@ args = 0, pretend = 0, frame = 0
 703              		@ frame_needed = 0, uses_anonymous_args = 0
 704 0000 10B5     		push	{r4, lr}
 705              		.cfi_def_cfa_offset 8
 706              		.cfi_offset 4, -8
 707              		.cfi_offset 14, -4
 708              	.LVL94:
 621:Generated_Source\PSoC4/CapSense_1_Filter.c ****     {
 709              		.loc 1 621 0
 710 0002 0823     		movs	r3, #8
 711 0004 03E0     		b	.L44
 712              	.LVL95:
 713              	.L45:
 623:Generated_Source\PSoC4/CapSense_1_Filter.c ****     }
 714              		.loc 1 623 0
 715 0006 2000     		movs	r0, r4
 716 0008 FFF7FEFF 		bl	CapSense_1_InitializeWidgetFilter
 717              	.LVL96:
 621:Generated_Source\PSoC4/CapSense_1_Filter.c ****     {
 718              		.loc 1 621 0
 719 000c 2300     		movs	r3, r4
 720              	.LVL97:
 721              	.L44:
 621:Generated_Source\PSoC4/CapSense_1_Filter.c ****     {
 722              		.loc 1 621 0 is_stmt 0 discriminator 1
 723 000e 5C1E     		subs	r4, r3, #1
 724              	.LVL98:
 725 0010 002B     		cmp	r3, #0
 726 0012 F8D1     		bne	.L45
 625:Generated_Source\PSoC4/CapSense_1_Filter.c **** 
 727              		.loc 1 625 0 is_stmt 1
 728              		@ sp needed
ARM GAS  C:\Users\Mayur\AppData\Local\Temp\ccxZLytu.s 			page 38


 729              	.LVL99:
 730 0014 10BD     		pop	{r4, pc}
 731              		.cfi_endproc
 732              	.LFE10:
 733              		.size	CapSense_1_InitializeAllFilters, .-CapSense_1_InitializeAllFilters
 734 0016 C046     		.section	.text.CapSense_1_FtInitialize,"ax",%progbits
 735              		.align	2
 736              		.global	CapSense_1_FtInitialize
 737              		.code	16
 738              		.thumb_func
 739              		.type	CapSense_1_FtInitialize, %function
 740              	CapSense_1_FtInitialize:
 741              	.LFB0:
  63:Generated_Source\PSoC4/CapSense_1_Filter.c ****     #if ((CapSense_1_ENABLE == CapSense_1_RC_FILTER_EN) || \
 742              		.loc 1 63 0
 743              		.cfi_startproc
 744              		@ args = 0, pretend = 0, frame = 0
 745              		@ frame_needed = 0, uses_anonymous_args = 0
 746 0000 10B5     		push	{r4, lr}
 747              		.cfi_def_cfa_offset 8
 748              		.cfi_offset 4, -8
 749              		.cfi_offset 14, -4
  66:Generated_Source\PSoC4/CapSense_1_Filter.c ****     #endif /* ((CapSense_1_ENABLE == CapSense_1_RC_FILTER_EN) || \
 750              		.loc 1 66 0
 751 0002 FFF7FEFF 		bl	CapSense_1_InitializeAllFilters
 752              	.LVL100:
  69:Generated_Source\PSoC4/CapSense_1_Filter.c **** 
 753              		.loc 1 69 0
 754              		@ sp needed
 755 0006 10BD     		pop	{r4, pc}
 756              		.cfi_endproc
 757              	.LFE0:
 758              		.size	CapSense_1_FtInitialize, .-CapSense_1_FtInitialize
 759              		.section	.text.CapSense_1_InitializeAverage,"ax",%progbits
 760              		.align	2
 761              		.global	CapSense_1_InitializeAverage
 762              		.code	16
 763              		.thumb_func
 764              		.type	CapSense_1_InitializeAverage, %function
 765              	CapSense_1_InitializeAverage:
 766              	.LFB20:
1186:Generated_Source\PSoC4/CapSense_1_Filter.c ****     CapSense_1_FLASH_WD_STRUCT const *ptrWidget = &CapSense_1_dsFlash.wdgtArray[widgetId];
 767              		.loc 1 1186 0
 768              		.cfi_startproc
 769              		@ args = 0, pretend = 0, frame = 0
 770              		@ frame_needed = 0, uses_anonymous_args = 0
 771              	.LVL101:
 772 0000 70B5     		push	{r4, r5, r6, lr}
 773              		.cfi_def_cfa_offset 16
 774              		.cfi_offset 4, -16
 775              		.cfi_offset 5, -12
 776              		.cfi_offset 6, -8
 777              		.cfi_offset 14, -4
 778 0002 0C00     		movs	r4, r1
 779              	.LVL102:
1192:Generated_Source\PSoC4/CapSense_1_Filter.c ****     ptrSensor = &ptrSensor[sensorId];
 780              		.loc 1 1192 0
ARM GAS  C:\Users\Mayur\AppData\Local\Temp\ccxZLytu.s 			page 39


 781 0004 4001     		lsls	r0, r0, #5
 782              	.LVL103:
 783 0006 0A4B     		ldr	r3, .L49
 784 0008 1B18     		adds	r3, r3, r0
 785              	.LVL104:
1193:Generated_Source\PSoC4/CapSense_1_Filter.c **** 
 786              		.loc 1 1193 0
 787 000a 8A00     		lsls	r2, r1, #2
 788 000c 5218     		adds	r2, r2, r1
 789 000e 5100     		lsls	r1, r2, #1
 790              	.LVL105:
 791 0010 9A68     		ldr	r2, [r3, #8]
 792 0012 9446     		mov	ip, r2
 793 0014 6144     		add	r1, r1, ip
 794              	.LVL106:
1196:Generated_Source\PSoC4/CapSense_1_Filter.c **** 
 795              		.loc 1 1196 0
 796 0016 DD68     		ldr	r5, [r3, #12]
 797 0018 2800     		movs	r0, r5
 798              	.LVL107:
1198:Generated_Source\PSoC4/CapSense_1_Filter.c ****     {
 799              		.loc 1 1198 0
 800 001a 9A7E     		ldrb	r2, [r3, #26]
 801 001c 062A     		cmp	r2, #6
 802 001e 03D0     		beq	.L48
1201:Generated_Source\PSoC4/CapSense_1_Filter.c ****         #endif /* (CapSense_1_REGULAR_SENSOR_EN) */
 803              		.loc 1 1201 0
 804 0020 6300     		lsls	r3, r4, #1
 805              	.LVL108:
 806 0022 1C19     		adds	r4, r3, r4
 807              	.LVL109:
 808 0024 A000     		lsls	r0, r4, #2
 809 0026 2818     		adds	r0, r5, r0
 810              	.L48:
1211:Generated_Source\PSoC4/CapSense_1_Filter.c **** }
 811              		.loc 1 1211 0
 812 0028 FFF7FEFF 		bl	CapSense_1_InitializeAverageInternal
 813              	.LVL110:
1212:Generated_Source\PSoC4/CapSense_1_Filter.c **** 
 814              		.loc 1 1212 0
 815              		@ sp needed
 816 002c 70BD     		pop	{r4, r5, r6, pc}
 817              	.L50:
 818 002e C046     		.align	2
 819              	.L49:
 820 0030 00000000 		.word	CapSense_1_dsFlash
 821              		.cfi_endproc
 822              	.LFE20:
 823              		.size	CapSense_1_InitializeAverage, .-CapSense_1_InitializeAverage
 824              		.section	.text.CapSense_1_RunAverageInternal,"ax",%progbits
 825              		.align	2
 826              		.global	CapSense_1_RunAverageInternal
 827              		.code	16
 828              		.thumb_func
 829              		.type	CapSense_1_RunAverageInternal, %function
 830              	CapSense_1_RunAverageInternal:
 831              	.LFB23:
ARM GAS  C:\Users\Mayur\AppData\Local\Temp\ccxZLytu.s 			page 40


1313:Generated_Source\PSoC4/CapSense_1_Filter.c **** 
1314:Generated_Source\PSoC4/CapSense_1_Filter.c **** 
1315:Generated_Source\PSoC4/CapSense_1_Filter.c **** /*******************************************************************************
1316:Generated_Source\PSoC4/CapSense_1_Filter.c **** * Function Name: CapSense_1_RunAverageInternal
1317:Generated_Source\PSoC4/CapSense_1_Filter.c **** ****************************************************************************//**
1318:Generated_Source\PSoC4/CapSense_1_Filter.c **** *
1319:Generated_Source\PSoC4/CapSense_1_Filter.c **** * \brief
1320:Generated_Source\PSoC4/CapSense_1_Filter.c **** *  Runs the average filter.
1321:Generated_Source\PSoC4/CapSense_1_Filter.c **** *
1322:Generated_Source\PSoC4/CapSense_1_Filter.c **** * \details
1323:Generated_Source\PSoC4/CapSense_1_Filter.c **** *  Runs the average filter.
1324:Generated_Source\PSoC4/CapSense_1_Filter.c **** *
1325:Generated_Source\PSoC4/CapSense_1_Filter.c **** * \param ptrFilterHistObj
1326:Generated_Source\PSoC4/CapSense_1_Filter.c **** *  The pointer to the filter RAM object of the sensor.
1327:Generated_Source\PSoC4/CapSense_1_Filter.c **** *
1328:Generated_Source\PSoC4/CapSense_1_Filter.c **** * \param ptrSensorObj
1329:Generated_Source\PSoC4/CapSense_1_Filter.c **** *  The pointer to the sensor RAM object of the sensor.
1330:Generated_Source\PSoC4/CapSense_1_Filter.c **** *
1331:Generated_Source\PSoC4/CapSense_1_Filter.c **** * \param wdType
1332:Generated_Source\PSoC4/CapSense_1_Filter.c **** *  Specifies the type of a widget.
1333:Generated_Source\PSoC4/CapSense_1_Filter.c **** *
1334:Generated_Source\PSoC4/CapSense_1_Filter.c **** *******************************************************************************/
1335:Generated_Source\PSoC4/CapSense_1_Filter.c **** void CapSense_1_RunAverageInternal(CapSense_1_PTR_FILTER_VARIANT ptrFilterHistObj,\
1336:Generated_Source\PSoC4/CapSense_1_Filter.c ****                                            CapSense_1_RAM_SNS_STRUCT *ptrSensorObj, uint32 wdType)
1337:Generated_Source\PSoC4/CapSense_1_Filter.c **** {
 832              		.loc 1 1337 0
 833              		.cfi_startproc
 834              		@ args = 0, pretend = 0, frame = 0
 835              		@ frame_needed = 0, uses_anonymous_args = 0
 836              	.LVL111:
 837 0000 F0B5     		push	{r4, r5, r6, r7, lr}
 838              		.cfi_def_cfa_offset 20
 839              		.cfi_offset 4, -20
 840              		.cfi_offset 5, -16
 841              		.cfi_offset 6, -12
 842              		.cfi_offset 7, -8
 843              		.cfi_offset 14, -4
 844              	.LVL112:
1338:Generated_Source\PSoC4/CapSense_1_Filter.c ****     uint32 freqChannel;
1339:Generated_Source\PSoC4/CapSense_1_Filter.c ****     uint32 temp;
1340:Generated_Source\PSoC4/CapSense_1_Filter.c **** 
1341:Generated_Source\PSoC4/CapSense_1_Filter.c ****     for(freqChannel = CapSense_1_NUM_SCAN_FREQS; freqChannel-- > 0u;)
 845              		.loc 1 1341 0
 846 0002 0123     		movs	r3, #1
 847 0004 19E0     		b	.L52
 848              	.LVL113:
 849              	.L54:
1342:Generated_Source\PSoC4/CapSense_1_Filter.c ****     {
1343:Generated_Source\PSoC4/CapSense_1_Filter.c ****         if ((CapSense_1_WD_TYPE_ENUM)wdType != CapSense_1_WD_PROXIMITY_E)
 850              		.loc 1 1343 0
 851 0006 FF23     		movs	r3, #255
 852 0008 1340     		ands	r3, r2
 853 000a 062B     		cmp	r3, #6
 854 000c 14D0     		beq	.L53
1344:Generated_Source\PSoC4/CapSense_1_Filter.c ****         {
1345:Generated_Source\PSoC4/CapSense_1_Filter.c ****             #if (CapSense_1_REGULAR_SENSOR_EN && CapSense_1_REGULAR_RC_AVERAGE_FILTER_EN)
1346:Generated_Source\PSoC4/CapSense_1_Filter.c ****                 #if (CapSense_1_REGULAR_AVERAGE_LEN == CapSense_1_AVERAGE_FILTER_LEN_2)
ARM GAS  C:\Users\Mayur\AppData\Local\Temp\ccxZLytu.s 			page 41


1347:Generated_Source\PSoC4/CapSense_1_Filter.c ****                     temp = ((uint32)ptrSensorObj->raw[freqChannel] +
1348:Generated_Source\PSoC4/CapSense_1_Filter.c ****                             (uint32)ptrFilterHistObj.ptrRegular->regularChannel[freqChannel].avgHis
1349:Generated_Source\PSoC4/CapSense_1_Filter.c ****                     ptrFilterHistObj.ptrRegular->regularChannel[freqChannel].avgHistory[0] = ptrSen
1350:Generated_Source\PSoC4/CapSense_1_Filter.c ****                     ptrSensorObj->raw[freqChannel] = LO16(temp);
1351:Generated_Source\PSoC4/CapSense_1_Filter.c ****                 #else
1352:Generated_Source\PSoC4/CapSense_1_Filter.c ****                     temp = ((uint32)ptrSensorObj->raw[freqChannel] +
 855              		.loc 1 1352 0
 856 000e 6700     		lsls	r7, r4, #1
 857 0010 7B5A     		ldrh	r3, [r7, r1]
 858 0012 9C46     		mov	ip, r3
1353:Generated_Source\PSoC4/CapSense_1_Filter.c ****                             (uint32)ptrFilterHistObj.ptrRegular->regularChannel[freqChannel].avgHis
 859              		.loc 1 1353 0
 860 0014 3E19     		adds	r6, r7, r4
 861 0016 B300     		lsls	r3, r6, #2
 862 0018 C318     		adds	r3, r0, r3
 863 001a DD88     		ldrh	r5, [r3, #6]
1352:Generated_Source\PSoC4/CapSense_1_Filter.c ****                             (uint32)ptrFilterHistObj.ptrRegular->regularChannel[freqChannel].avgHis
 864              		.loc 1 1352 0
 865 001c 6544     		add	r5, r5, ip
1354:Generated_Source\PSoC4/CapSense_1_Filter.c ****                             (uint32)ptrFilterHistObj.ptrRegular->regularChannel[freqChannel].avgHis
 866              		.loc 1 1354 0
 867 001e 1E89     		ldrh	r6, [r3, #8]
 868 0020 B446     		mov	ip, r6
1353:Generated_Source\PSoC4/CapSense_1_Filter.c ****                             (uint32)ptrFilterHistObj.ptrRegular->regularChannel[freqChannel].avgHis
 869              		.loc 1 1353 0
 870 0022 6544     		add	r5, r5, ip
1355:Generated_Source\PSoC4/CapSense_1_Filter.c ****                             (uint32)ptrFilterHistObj.ptrRegular->regularChannel[freqChannel].avgHis
 871              		.loc 1 1355 0
 872 0024 5E89     		ldrh	r6, [r3, #10]
1354:Generated_Source\PSoC4/CapSense_1_Filter.c ****                             (uint32)ptrFilterHistObj.ptrRegular->regularChannel[freqChannel].avgHis
 873              		.loc 1 1354 0
 874 0026 AD19     		adds	r5, r5, r6
1352:Generated_Source\PSoC4/CapSense_1_Filter.c ****                             (uint32)ptrFilterHistObj.ptrRegular->regularChannel[freqChannel].avgHis
 875              		.loc 1 1352 0
 876 0028 AD08     		lsrs	r5, r5, #2
 877              	.LVL114:
1356:Generated_Source\PSoC4/CapSense_1_Filter.c **** 
1357:Generated_Source\PSoC4/CapSense_1_Filter.c ****                     ptrFilterHistObj.ptrRegular->regularChannel[freqChannel].avgHistory[2u] =
 878              		.loc 1 1357 0
 879 002a 6646     		mov	r6, ip
 880 002c 5E81     		strh	r6, [r3, #10]
1358:Generated_Source\PSoC4/CapSense_1_Filter.c ****                     ptrFilterHistObj.ptrRegular->regularChannel[freqChannel].avgHistory[1u];
1359:Generated_Source\PSoC4/CapSense_1_Filter.c ****                     ptrFilterHistObj.ptrRegular->regularChannel[freqChannel].avgHistory[1u] =
1360:Generated_Source\PSoC4/CapSense_1_Filter.c ****                     ptrFilterHistObj.ptrRegular->regularChannel[freqChannel].avgHistory[0];
 881              		.loc 1 1360 0
 882 002e DE88     		ldrh	r6, [r3, #6]
1359:Generated_Source\PSoC4/CapSense_1_Filter.c ****                     ptrFilterHistObj.ptrRegular->regularChannel[freqChannel].avgHistory[0];
 883              		.loc 1 1359 0
 884 0030 1E81     		strh	r6, [r3, #8]
1361:Generated_Source\PSoC4/CapSense_1_Filter.c ****                     ptrFilterHistObj.ptrRegular->regularChannel[freqChannel].avgHistory[0] = ptrSen
 885              		.loc 1 1361 0
 886 0032 7E5A     		ldrh	r6, [r7, r1]
 887 0034 DE80     		strh	r6, [r3, #6]
1362:Generated_Source\PSoC4/CapSense_1_Filter.c ****                     ptrSensorObj->raw[freqChannel] = LO16(temp);
 888              		.loc 1 1362 0
 889 0036 CD53     		strh	r5, [r1, r7]
 890              	.LVL115:
ARM GAS  C:\Users\Mayur\AppData\Local\Temp\ccxZLytu.s 			page 42


 891              	.L53:
1337:Generated_Source\PSoC4/CapSense_1_Filter.c ****     uint32 freqChannel;
 892              		.loc 1 1337 0 discriminator 1
 893 0038 2300     		movs	r3, r4
 894              	.LVL116:
 895              	.L52:
1341:Generated_Source\PSoC4/CapSense_1_Filter.c ****     {
 896              		.loc 1 1341 0 discriminator 1
 897 003a 5C1E     		subs	r4, r3, #1
 898              	.LVL117:
 899 003c 002B     		cmp	r3, #0
 900 003e E2D1     		bne	.L54
1363:Generated_Source\PSoC4/CapSense_1_Filter.c ****                 #endif /* CapSense_1_REGULAR_AVERAGE_LEN == CapSense_1_AVERAGE_FILTER_LEN_4 */
1364:Generated_Source\PSoC4/CapSense_1_Filter.c ****             #endif /* (CapSense_1_REGULAR_SENSOR_EN) */
1365:Generated_Source\PSoC4/CapSense_1_Filter.c ****         }
1366:Generated_Source\PSoC4/CapSense_1_Filter.c ****         else
1367:Generated_Source\PSoC4/CapSense_1_Filter.c ****         {
1368:Generated_Source\PSoC4/CapSense_1_Filter.c ****             #if (CapSense_1_PROXIMITY_SENSOR_EN && CapSense_1_PROX_RC_AVERAGE_FILTER_EN)
1369:Generated_Source\PSoC4/CapSense_1_Filter.c ****                 #if (CapSense_1_PROX_AVERAGE_LEN == CapSense_1_AVERAGE_FILTER_LEN_2)
1370:Generated_Source\PSoC4/CapSense_1_Filter.c ****                     temp = ((uint32)ptrSensorObj->raw[freqChannel] +
1371:Generated_Source\PSoC4/CapSense_1_Filter.c ****                             (uint32)ptrFilterHistObj.ptrProx->proxChannel[freqChannel].avgHistory[0
1372:Generated_Source\PSoC4/CapSense_1_Filter.c ****                     ptrFilterHistObj.ptrProx->proxChannel[freqChannel].avgHistory[0] = ptrSensorObj
1373:Generated_Source\PSoC4/CapSense_1_Filter.c ****                     ptrSensorObj->raw[freqChannel] = LO16(temp);
1374:Generated_Source\PSoC4/CapSense_1_Filter.c ****                 #else
1375:Generated_Source\PSoC4/CapSense_1_Filter.c ****                     temp = ((uint32)ptrSensorObj->raw[freqChannel] +
1376:Generated_Source\PSoC4/CapSense_1_Filter.c ****                             (uint32)ptrFilterHistObj.ptrProx->proxChannel[freqChannel].avgHistory[0
1377:Generated_Source\PSoC4/CapSense_1_Filter.c ****                             (uint32)ptrFilterHistObj.ptrProx->proxChannel[freqChannel].avgHistory[1
1378:Generated_Source\PSoC4/CapSense_1_Filter.c ****                             (uint32)ptrFilterHistObj.ptrProx->proxChannel[freqChannel].avgHistory[2
1379:Generated_Source\PSoC4/CapSense_1_Filter.c **** 
1380:Generated_Source\PSoC4/CapSense_1_Filter.c ****                     ptrFilterHistObj.ptrProx->proxChannel[freqChannel].avgHistory[2u] =
1381:Generated_Source\PSoC4/CapSense_1_Filter.c ****                     ptrFilterHistObj.ptrProx->proxChannel[freqChannel].avgHistory[1u];
1382:Generated_Source\PSoC4/CapSense_1_Filter.c ****                     ptrFilterHistObj.ptrProx->proxChannel[freqChannel].avgHistory[1u] =
1383:Generated_Source\PSoC4/CapSense_1_Filter.c ****                     ptrFilterHistObj.ptrProx->proxChannel[freqChannel].avgHistory[0];
1384:Generated_Source\PSoC4/CapSense_1_Filter.c ****                     ptrFilterHistObj.ptrProx->proxChannel[freqChannel].avgHistory[0] = ptrSensorObj
1385:Generated_Source\PSoC4/CapSense_1_Filter.c ****                     ptrSensorObj->raw[freqChannel] = LO16(temp);
1386:Generated_Source\PSoC4/CapSense_1_Filter.c ****                 #endif /* CapSense_1_PROX_AVERAGE_LEN == CapSense_1_AVERAGE_FILTER_LEN_4 */
1387:Generated_Source\PSoC4/CapSense_1_Filter.c ****             #endif /* (CapSense_1_PROXIMITY_SENSOR_EN) */
1388:Generated_Source\PSoC4/CapSense_1_Filter.c ****         }
1389:Generated_Source\PSoC4/CapSense_1_Filter.c ****     }
1390:Generated_Source\PSoC4/CapSense_1_Filter.c **** }
 901              		.loc 1 1390 0
 902              		@ sp needed
 903              	.LVL118:
 904 0040 F0BD     		pop	{r4, r5, r6, r7, pc}
 905              		.cfi_endproc
 906              	.LFE23:
 907              		.size	CapSense_1_RunAverageInternal, .-CapSense_1_RunAverageInternal
 908 0042 C046     		.section	.text.CapSense_1_RunAverage,"ax",%progbits
 909              		.align	2
 910              		.global	CapSense_1_RunAverage
 911              		.code	16
 912              		.thumb_func
 913              		.type	CapSense_1_RunAverage, %function
 914              	CapSense_1_RunAverage:
 915              	.LFB21:
1235:Generated_Source\PSoC4/CapSense_1_Filter.c ****     CapSense_1_FLASH_WD_STRUCT const *ptrWidget = &CapSense_1_dsFlash.wdgtArray[widgetId];
 916              		.loc 1 1235 0
ARM GAS  C:\Users\Mayur\AppData\Local\Temp\ccxZLytu.s 			page 43


 917              		.cfi_startproc
 918              		@ args = 0, pretend = 0, frame = 0
 919              		@ frame_needed = 0, uses_anonymous_args = 0
 920              	.LVL119:
 921 0000 70B5     		push	{r4, r5, r6, lr}
 922              		.cfi_def_cfa_offset 16
 923              		.cfi_offset 4, -16
 924              		.cfi_offset 5, -12
 925              		.cfi_offset 6, -8
 926              		.cfi_offset 14, -4
 927 0002 0C00     		movs	r4, r1
 928              	.LVL120:
1241:Generated_Source\PSoC4/CapSense_1_Filter.c ****     ptrSensor = &ptrSensor[sensorId];
 929              		.loc 1 1241 0
 930 0004 4001     		lsls	r0, r0, #5
 931              	.LVL121:
 932 0006 0A4B     		ldr	r3, .L57
 933 0008 1B18     		adds	r3, r3, r0
 934              	.LVL122:
1242:Generated_Source\PSoC4/CapSense_1_Filter.c **** 
 935              		.loc 1 1242 0
 936 000a 8A00     		lsls	r2, r1, #2
 937 000c 5218     		adds	r2, r2, r1
 938 000e 5100     		lsls	r1, r2, #1
 939              	.LVL123:
 940 0010 9A68     		ldr	r2, [r3, #8]
 941 0012 9446     		mov	ip, r2
 942 0014 6144     		add	r1, r1, ip
 943              	.LVL124:
1245:Generated_Source\PSoC4/CapSense_1_Filter.c **** 
 944              		.loc 1 1245 0
 945 0016 DD68     		ldr	r5, [r3, #12]
 946 0018 2800     		movs	r0, r5
 947              	.LVL125:
1247:Generated_Source\PSoC4/CapSense_1_Filter.c ****     {
 948              		.loc 1 1247 0
 949 001a 9A7E     		ldrb	r2, [r3, #26]
 950 001c 062A     		cmp	r2, #6
 951 001e 03D0     		beq	.L56
1250:Generated_Source\PSoC4/CapSense_1_Filter.c ****         #endif /* (CapSense_1_REGULAR_SENSOR_EN) */
 952              		.loc 1 1250 0
 953 0020 6300     		lsls	r3, r4, #1
 954              	.LVL126:
 955 0022 1C19     		adds	r4, r3, r4
 956              	.LVL127:
 957 0024 A000     		lsls	r0, r4, #2
 958 0026 2818     		adds	r0, r5, r0
 959              	.L56:
1260:Generated_Source\PSoC4/CapSense_1_Filter.c **** }
 960              		.loc 1 1260 0
 961 0028 FFF7FEFF 		bl	CapSense_1_RunAverageInternal
 962              	.LVL128:
1261:Generated_Source\PSoC4/CapSense_1_Filter.c **** 
 963              		.loc 1 1261 0
 964              		@ sp needed
 965 002c 70BD     		pop	{r4, r5, r6, pc}
 966              	.L58:
ARM GAS  C:\Users\Mayur\AppData\Local\Temp\ccxZLytu.s 			page 44


 967 002e C046     		.align	2
 968              	.L57:
 969 0030 00000000 		.word	CapSense_1_dsFlash
 970              		.cfi_endproc
 971              	.LFE21:
 972              		.size	CapSense_1_RunAverage, .-CapSense_1_RunAverage
 973              		.section	.text.CapSense_1_RunNoiseEnvelope,"ax",%progbits
 974              		.align	2
 975              		.global	CapSense_1_RunNoiseEnvelope
 976              		.code	16
 977              		.thumb_func
 978              		.type	CapSense_1_RunNoiseEnvelope, %function
 979              	CapSense_1_RunNoiseEnvelope:
 980              	.LFB26:
1391:Generated_Source\PSoC4/CapSense_1_Filter.c **** #endif /* (CapSense_1_REGULAR_RC_AVERAGE_FILTER_EN || CapSense_1_PROX_RC_AVERAGE_FILTER_EN) */
1392:Generated_Source\PSoC4/CapSense_1_Filter.c **** 
1393:Generated_Source\PSoC4/CapSense_1_Filter.c **** #if (CapSense_1_ENABLE == CapSense_1_ALP_FILTER_EN)
1394:Generated_Source\PSoC4/CapSense_1_Filter.c **** /*******************************************************************************
1395:Generated_Source\PSoC4/CapSense_1_Filter.c **** * Function Name: CapSense_1_InitializeALP
1396:Generated_Source\PSoC4/CapSense_1_Filter.c **** ****************************************************************************//**
1397:Generated_Source\PSoC4/CapSense_1_Filter.c **** *
1398:Generated_Source\PSoC4/CapSense_1_Filter.c **** * \brief
1399:Generated_Source\PSoC4/CapSense_1_Filter.c **** *  Initializes the ALP filter history.
1400:Generated_Source\PSoC4/CapSense_1_Filter.c **** *
1401:Generated_Source\PSoC4/CapSense_1_Filter.c **** * \details
1402:Generated_Source\PSoC4/CapSense_1_Filter.c **** *  Initializes the ALP filter history.
1403:Generated_Source\PSoC4/CapSense_1_Filter.c **** *
1404:Generated_Source\PSoC4/CapSense_1_Filter.c **** * \param widgetId
1405:Generated_Source\PSoC4/CapSense_1_Filter.c **** *  Specifies the ID number of the widget.
1406:Generated_Source\PSoC4/CapSense_1_Filter.c **** *
1407:Generated_Source\PSoC4/CapSense_1_Filter.c **** * \param sensorId
1408:Generated_Source\PSoC4/CapSense_1_Filter.c **** *  Specifies the ID number of the sensor in the widget.
1409:Generated_Source\PSoC4/CapSense_1_Filter.c **** *
1410:Generated_Source\PSoC4/CapSense_1_Filter.c **** *******************************************************************************/
1411:Generated_Source\PSoC4/CapSense_1_Filter.c **** void CapSense_1_InitializeALP(uint32 widgetId, uint32 sensorId)
1412:Generated_Source\PSoC4/CapSense_1_Filter.c **** {
1413:Generated_Source\PSoC4/CapSense_1_Filter.c ****     CapSense_1_FLASH_WD_STRUCT const *ptrWidget = &CapSense_1_dsFlash.wdgtArray[widgetId];
1414:Generated_Source\PSoC4/CapSense_1_Filter.c ****     CapSense_1_RAM_SNS_STRUCT *ptrSensor = NULL;
1415:Generated_Source\PSoC4/CapSense_1_Filter.c ****     CapSense_1_PTR_FILTER_VARIANT ptrFilterHistObj;
1416:Generated_Source\PSoC4/CapSense_1_Filter.c **** 
1417:Generated_Source\PSoC4/CapSense_1_Filter.c ****     /* Find pointer to specified sensor object */
1418:Generated_Source\PSoC4/CapSense_1_Filter.c ****     ptrSensor = ptrWidget->ptr2SnsRam;
1419:Generated_Source\PSoC4/CapSense_1_Filter.c ****     ptrSensor = &ptrSensor[sensorId];
1420:Generated_Source\PSoC4/CapSense_1_Filter.c **** 
1421:Generated_Source\PSoC4/CapSense_1_Filter.c ****     /* Find pointer to specified filter sensor object */
1422:Generated_Source\PSoC4/CapSense_1_Filter.c ****     ptrFilterHistObj.ptr = ptrWidget->ptr2FltrHistory;
1423:Generated_Source\PSoC4/CapSense_1_Filter.c ****     ptrFilterHistObj.ptrAlp = &ptrFilterHistObj.ptrAlp[sensorId];
1424:Generated_Source\PSoC4/CapSense_1_Filter.c ****     CapSense_1_InitializeALPInternal(ptrFilterHistObj, ptrSensor, (uint32)ptrWidget->wdgtType);
1425:Generated_Source\PSoC4/CapSense_1_Filter.c **** }
1426:Generated_Source\PSoC4/CapSense_1_Filter.c **** 
1427:Generated_Source\PSoC4/CapSense_1_Filter.c **** 
1428:Generated_Source\PSoC4/CapSense_1_Filter.c **** /*******************************************************************************
1429:Generated_Source\PSoC4/CapSense_1_Filter.c **** * Function Name: CapSense_1_RunALP
1430:Generated_Source\PSoC4/CapSense_1_Filter.c **** ****************************************************************************//**
1431:Generated_Source\PSoC4/CapSense_1_Filter.c **** *
1432:Generated_Source\PSoC4/CapSense_1_Filter.c **** * \brief
1433:Generated_Source\PSoC4/CapSense_1_Filter.c **** *  Executes the ALP filter algorithm on a sensor indicated by an input
ARM GAS  C:\Users\Mayur\AppData\Local\Temp\ccxZLytu.s 			page 45


1434:Generated_Source\PSoC4/CapSense_1_Filter.c **** *  parameter.
1435:Generated_Source\PSoC4/CapSense_1_Filter.c **** *
1436:Generated_Source\PSoC4/CapSense_1_Filter.c **** * \details
1437:Generated_Source\PSoC4/CapSense_1_Filter.c **** *  Executes the ALP filter algorithm on a sensor indicated by an input
1438:Generated_Source\PSoC4/CapSense_1_Filter.c **** *  parameter.
1439:Generated_Source\PSoC4/CapSense_1_Filter.c **** *
1440:Generated_Source\PSoC4/CapSense_1_Filter.c **** * \param widgetId
1441:Generated_Source\PSoC4/CapSense_1_Filter.c **** *  Specifies the ID number of the widget.
1442:Generated_Source\PSoC4/CapSense_1_Filter.c **** *
1443:Generated_Source\PSoC4/CapSense_1_Filter.c **** * \param sensorId
1444:Generated_Source\PSoC4/CapSense_1_Filter.c **** *  Specifies the ID number of the sensor in the widget.
1445:Generated_Source\PSoC4/CapSense_1_Filter.c **** *
1446:Generated_Source\PSoC4/CapSense_1_Filter.c **** *******************************************************************************/
1447:Generated_Source\PSoC4/CapSense_1_Filter.c **** void CapSense_1_RunALP(uint32 widgetId, uint32 sensorId)
1448:Generated_Source\PSoC4/CapSense_1_Filter.c **** {
1449:Generated_Source\PSoC4/CapSense_1_Filter.c ****     CapSense_1_FLASH_WD_STRUCT const *ptrWidget = &CapSense_1_dsFlash.wdgtArray[widgetId];
1450:Generated_Source\PSoC4/CapSense_1_Filter.c ****     CapSense_1_RAM_SNS_STRUCT *ptrSensor = NULL;
1451:Generated_Source\PSoC4/CapSense_1_Filter.c ****     CapSense_1_PTR_FILTER_VARIANT ptrFilterHistObj;
1452:Generated_Source\PSoC4/CapSense_1_Filter.c ****     ALP_FLTR_CONFIG_STRUCT alpFilterConfig;
1453:Generated_Source\PSoC4/CapSense_1_Filter.c ****     ALP_FLTR_CONFIG_STRUCT *ptrAlpFilterConfig = &alpFilterConfig;
1454:Generated_Source\PSoC4/CapSense_1_Filter.c ****     CapSense_1_RAM_WD_BASE_STRUCT *ptrRamWidget = ptrWidget->ptr2WdgtRam;
1455:Generated_Source\PSoC4/CapSense_1_Filter.c **** 
1456:Generated_Source\PSoC4/CapSense_1_Filter.c ****     /* Find pointer to specified sensor object */
1457:Generated_Source\PSoC4/CapSense_1_Filter.c ****     ptrSensor = ptrWidget->ptr2SnsRam;
1458:Generated_Source\PSoC4/CapSense_1_Filter.c ****     ptrSensor = &ptrSensor[sensorId];
1459:Generated_Source\PSoC4/CapSense_1_Filter.c **** 
1460:Generated_Source\PSoC4/CapSense_1_Filter.c ****     ptrAlpFilterConfig->configParam0 = ptrRamWidget->alpOnTh;
1461:Generated_Source\PSoC4/CapSense_1_Filter.c ****     ptrAlpFilterConfig->configParam1 = ptrRamWidget->alpOffTh;
1462:Generated_Source\PSoC4/CapSense_1_Filter.c ****     ptrAlpFilterConfig->configParam2 = ptrRamWidget->fingerTh;
1463:Generated_Source\PSoC4/CapSense_1_Filter.c ****     ptrAlpFilterConfig->configParam3 = ptrRamWidget->noiseTh;
1464:Generated_Source\PSoC4/CapSense_1_Filter.c ****     ptrAlpFilterConfig->configParam4 = ptrRamWidget->hysteresis;
1465:Generated_Source\PSoC4/CapSense_1_Filter.c **** 
1466:Generated_Source\PSoC4/CapSense_1_Filter.c ****     /* Find pointer to specified filter sensor object */
1467:Generated_Source\PSoC4/CapSense_1_Filter.c ****     ptrFilterHistObj.ptr = ptrWidget->ptr2FltrHistory;
1468:Generated_Source\PSoC4/CapSense_1_Filter.c ****     ptrFilterHistObj.ptrAlp = &ptrFilterHistObj.ptrAlp[sensorId];
1469:Generated_Source\PSoC4/CapSense_1_Filter.c **** 
1470:Generated_Source\PSoC4/CapSense_1_Filter.c ****     if ((CapSense_1_WD_TYPE_ENUM)ptrWidget->wdgtType != CapSense_1_WD_PROXIMITY_E)
1471:Generated_Source\PSoC4/CapSense_1_Filter.c ****     {
1472:Generated_Source\PSoC4/CapSense_1_Filter.c ****         #if (CapSense_1_REGULAR_SENSOR_EN)
1473:Generated_Source\PSoC4/CapSense_1_Filter.c ****             ptrAlpFilterConfig->configParam5 = CapSense_1_REGULAR_RC_ALP_FILTER_COEFF;
1474:Generated_Source\PSoC4/CapSense_1_Filter.c ****         #endif /* (CapSense_1_REGULAR_SENSOR_EN) */
1475:Generated_Source\PSoC4/CapSense_1_Filter.c ****     }
1476:Generated_Source\PSoC4/CapSense_1_Filter.c ****     else
1477:Generated_Source\PSoC4/CapSense_1_Filter.c ****     {
1478:Generated_Source\PSoC4/CapSense_1_Filter.c ****         #if (CapSense_1_PROXIMITY_SENSOR_EN)
1479:Generated_Source\PSoC4/CapSense_1_Filter.c ****             ptrAlpFilterConfig->configParam5 = CapSense_1_PROX_RC_ALP_FILTER_COEFF;
1480:Generated_Source\PSoC4/CapSense_1_Filter.c ****         #endif /* (CapSense_1_PROXIMITY_SENSOR_EN) */
1481:Generated_Source\PSoC4/CapSense_1_Filter.c ****     }
1482:Generated_Source\PSoC4/CapSense_1_Filter.c ****     CapSense_1_RunALPInternal(ptrFilterHistObj, ptrAlpFilterConfig, ptrSensor, (uint32)ptrWidget->w
1483:Generated_Source\PSoC4/CapSense_1_Filter.c **** }
1484:Generated_Source\PSoC4/CapSense_1_Filter.c **** 
1485:Generated_Source\PSoC4/CapSense_1_Filter.c **** 
1486:Generated_Source\PSoC4/CapSense_1_Filter.c **** /*******************************************************************************
1487:Generated_Source\PSoC4/CapSense_1_Filter.c **** * Function Name: CapSense_1_InitializeALPInternal
1488:Generated_Source\PSoC4/CapSense_1_Filter.c **** ****************************************************************************//**
1489:Generated_Source\PSoC4/CapSense_1_Filter.c **** *
1490:Generated_Source\PSoC4/CapSense_1_Filter.c **** * \brief
ARM GAS  C:\Users\Mayur\AppData\Local\Temp\ccxZLytu.s 			page 46


1491:Generated_Source\PSoC4/CapSense_1_Filter.c **** *  Initializes the ALP filter.
1492:Generated_Source\PSoC4/CapSense_1_Filter.c **** *
1493:Generated_Source\PSoC4/CapSense_1_Filter.c **** * \details
1494:Generated_Source\PSoC4/CapSense_1_Filter.c **** *  Initializes the ALP filter.
1495:Generated_Source\PSoC4/CapSense_1_Filter.c **** *
1496:Generated_Source\PSoC4/CapSense_1_Filter.c **** * \param ptrFilterHistObj
1497:Generated_Source\PSoC4/CapSense_1_Filter.c **** *  The pointer to the filter RAM object of the sensor.
1498:Generated_Source\PSoC4/CapSense_1_Filter.c **** *
1499:Generated_Source\PSoC4/CapSense_1_Filter.c **** * \param ptrSensorObj
1500:Generated_Source\PSoC4/CapSense_1_Filter.c **** *  The pointer to the sensor RAM object of the sensor.
1501:Generated_Source\PSoC4/CapSense_1_Filter.c **** *
1502:Generated_Source\PSoC4/CapSense_1_Filter.c **** * \param wdType
1503:Generated_Source\PSoC4/CapSense_1_Filter.c **** *  Specifies the type of a widget.
1504:Generated_Source\PSoC4/CapSense_1_Filter.c **** *
1505:Generated_Source\PSoC4/CapSense_1_Filter.c **** *
1506:Generated_Source\PSoC4/CapSense_1_Filter.c **** *******************************************************************************/
1507:Generated_Source\PSoC4/CapSense_1_Filter.c **** void CapSense_1_InitializeALPInternal(CapSense_1_PTR_FILTER_VARIANT ptrFilterHistObj,
1508:Generated_Source\PSoC4/CapSense_1_Filter.c ****                                             CapSense_1_RAM_SNS_STRUCT *ptrSensorObj,
1509:Generated_Source\PSoC4/CapSense_1_Filter.c ****                                             uint32 wdType)
1510:Generated_Source\PSoC4/CapSense_1_Filter.c **** {
1511:Generated_Source\PSoC4/CapSense_1_Filter.c ****     uint32 freqChannel;
1512:Generated_Source\PSoC4/CapSense_1_Filter.c **** 
1513:Generated_Source\PSoC4/CapSense_1_Filter.c ****     for(freqChannel = CapSense_1_NUM_SCAN_FREQS; freqChannel-- > 0u;)
1514:Generated_Source\PSoC4/CapSense_1_Filter.c ****     {
1515:Generated_Source\PSoC4/CapSense_1_Filter.c ****         if ((CapSense_1_WD_TYPE_ENUM)wdType != CapSense_1_WD_PROXIMITY_E)
1516:Generated_Source\PSoC4/CapSense_1_Filter.c ****         {
1517:Generated_Source\PSoC4/CapSense_1_Filter.c ****             #if (CapSense_1_REGULAR_SENSOR_EN && CapSense_1_REGULAR_RC_ALP_FILTER_EN)
1518:Generated_Source\PSoC4/CapSense_1_Filter.c ****                 ALP_Initialize(&ptrFilterHistObj.ptrAlp->channel[freqChannel], &ptrSensorObj->raw[f
1519:Generated_Source\PSoC4/CapSense_1_Filter.c ****             #endif
1520:Generated_Source\PSoC4/CapSense_1_Filter.c ****         }
1521:Generated_Source\PSoC4/CapSense_1_Filter.c ****         else
1522:Generated_Source\PSoC4/CapSense_1_Filter.c ****         {
1523:Generated_Source\PSoC4/CapSense_1_Filter.c ****             #if (CapSense_1_PROXIMITY_SENSOR_EN && CapSense_1_PROX_RC_ALP_FILTER_EN)
1524:Generated_Source\PSoC4/CapSense_1_Filter.c ****                 ALP_Initialize(&ptrFilterHistObj.ptrAlp->channel[freqChannel], &ptrSensorObj->raw[f
1525:Generated_Source\PSoC4/CapSense_1_Filter.c ****             #endif
1526:Generated_Source\PSoC4/CapSense_1_Filter.c ****         }
1527:Generated_Source\PSoC4/CapSense_1_Filter.c ****     }
1528:Generated_Source\PSoC4/CapSense_1_Filter.c **** }
1529:Generated_Source\PSoC4/CapSense_1_Filter.c **** 
1530:Generated_Source\PSoC4/CapSense_1_Filter.c **** /*******************************************************************************
1531:Generated_Source\PSoC4/CapSense_1_Filter.c **** * Function Name: CapSense_1_ConfigRunALPInternal
1532:Generated_Source\PSoC4/CapSense_1_Filter.c **** ****************************************************************************//**
1533:Generated_Source\PSoC4/CapSense_1_Filter.c **** *
1534:Generated_Source\PSoC4/CapSense_1_Filter.c **** * \brief
1535:Generated_Source\PSoC4/CapSense_1_Filter.c **** *  Prepares ALP configuration structure and runs the filter.
1536:Generated_Source\PSoC4/CapSense_1_Filter.c **** *
1537:Generated_Source\PSoC4/CapSense_1_Filter.c **** * \details
1538:Generated_Source\PSoC4/CapSense_1_Filter.c **** *  Prepares ALP configuration structure and runs the filter.
1539:Generated_Source\PSoC4/CapSense_1_Filter.c **** *
1540:Generated_Source\PSoC4/CapSense_1_Filter.c **** * \param ptrFilterHistObj
1541:Generated_Source\PSoC4/CapSense_1_Filter.c **** *  The pointer to the filter RAM object of the sensor.
1542:Generated_Source\PSoC4/CapSense_1_Filter.c **** *
1543:Generated_Source\PSoC4/CapSense_1_Filter.c **** * \param ptrRamWdgt
1544:Generated_Source\PSoC4/CapSense_1_Filter.c **** *  The pointer to the RAM widget object.
1545:Generated_Source\PSoC4/CapSense_1_Filter.c **** *
1546:Generated_Source\PSoC4/CapSense_1_Filter.c **** * \param ptrSensorObj
1547:Generated_Source\PSoC4/CapSense_1_Filter.c **** *  The pointer to the sensor RAM object of the sensor.
ARM GAS  C:\Users\Mayur\AppData\Local\Temp\ccxZLytu.s 			page 47


1548:Generated_Source\PSoC4/CapSense_1_Filter.c **** *
1549:Generated_Source\PSoC4/CapSense_1_Filter.c **** * \param wdType
1550:Generated_Source\PSoC4/CapSense_1_Filter.c **** *  Specifies the type of a widget.
1551:Generated_Source\PSoC4/CapSense_1_Filter.c **** *
1552:Generated_Source\PSoC4/CapSense_1_Filter.c **** *******************************************************************************/
1553:Generated_Source\PSoC4/CapSense_1_Filter.c **** void CapSense_1_ConfigRunALPInternal(CapSense_1_PTR_FILTER_VARIANT ptrFilterHistObj,
1554:Generated_Source\PSoC4/CapSense_1_Filter.c ****                                     CapSense_1_RAM_WD_BASE_STRUCT *ptrRamWdgt,
1555:Generated_Source\PSoC4/CapSense_1_Filter.c ****                                     CapSense_1_RAM_SNS_STRUCT *ptrSensorObj,
1556:Generated_Source\PSoC4/CapSense_1_Filter.c ****                                     uint32 wdType)
1557:Generated_Source\PSoC4/CapSense_1_Filter.c **** {
1558:Generated_Source\PSoC4/CapSense_1_Filter.c ****     ALP_FLTR_CONFIG_STRUCT alpFilterConfig;
1559:Generated_Source\PSoC4/CapSense_1_Filter.c **** 
1560:Generated_Source\PSoC4/CapSense_1_Filter.c ****     alpFilterConfig.configParam0 = ptrRamWdgt->alpOnTh;
1561:Generated_Source\PSoC4/CapSense_1_Filter.c ****     alpFilterConfig.configParam1 = ptrRamWdgt->alpOffTh;
1562:Generated_Source\PSoC4/CapSense_1_Filter.c ****     alpFilterConfig.configParam2 = ptrRamWdgt->fingerTh;
1563:Generated_Source\PSoC4/CapSense_1_Filter.c ****     alpFilterConfig.configParam3 = ptrRamWdgt->noiseTh;
1564:Generated_Source\PSoC4/CapSense_1_Filter.c ****     alpFilterConfig.configParam4 = ptrRamWdgt->hysteresis;
1565:Generated_Source\PSoC4/CapSense_1_Filter.c **** 
1566:Generated_Source\PSoC4/CapSense_1_Filter.c ****     CapSense_1_RunALPInternal(ptrFilterHistObj, &alpFilterConfig, ptrSensorObj, wdType);
1567:Generated_Source\PSoC4/CapSense_1_Filter.c **** }
1568:Generated_Source\PSoC4/CapSense_1_Filter.c **** 
1569:Generated_Source\PSoC4/CapSense_1_Filter.c **** /*******************************************************************************
1570:Generated_Source\PSoC4/CapSense_1_Filter.c **** * Function Name: CapSense_1_RunALPInternal
1571:Generated_Source\PSoC4/CapSense_1_Filter.c **** ****************************************************************************//**
1572:Generated_Source\PSoC4/CapSense_1_Filter.c **** *
1573:Generated_Source\PSoC4/CapSense_1_Filter.c **** * \brief
1574:Generated_Source\PSoC4/CapSense_1_Filter.c **** *  Runs the ALP filter.
1575:Generated_Source\PSoC4/CapSense_1_Filter.c **** *
1576:Generated_Source\PSoC4/CapSense_1_Filter.c **** * \details
1577:Generated_Source\PSoC4/CapSense_1_Filter.c **** *  Runs the ALP filter.
1578:Generated_Source\PSoC4/CapSense_1_Filter.c **** *
1579:Generated_Source\PSoC4/CapSense_1_Filter.c **** * \param ptrFilterHistObj
1580:Generated_Source\PSoC4/CapSense_1_Filter.c **** *  The pointer to the filter RAM object of the sensor.
1581:Generated_Source\PSoC4/CapSense_1_Filter.c **** *
1582:Generated_Source\PSoC4/CapSense_1_Filter.c **** * \param ptrAlpFilterConfig
1583:Generated_Source\PSoC4/CapSense_1_Filter.c **** *  The pointer to the filter configuration object of the sensor.
1584:Generated_Source\PSoC4/CapSense_1_Filter.c **** *
1585:Generated_Source\PSoC4/CapSense_1_Filter.c **** * \param ptrSensorObj
1586:Generated_Source\PSoC4/CapSense_1_Filter.c **** *  The pointer to the sensor RAM object of the sensor.
1587:Generated_Source\PSoC4/CapSense_1_Filter.c **** *
1588:Generated_Source\PSoC4/CapSense_1_Filter.c **** * \param wdType
1589:Generated_Source\PSoC4/CapSense_1_Filter.c **** *  Specifies the type of a widget.
1590:Generated_Source\PSoC4/CapSense_1_Filter.c **** *
1591:Generated_Source\PSoC4/CapSense_1_Filter.c **** *******************************************************************************/
1592:Generated_Source\PSoC4/CapSense_1_Filter.c **** void CapSense_1_RunALPInternal(CapSense_1_PTR_FILTER_VARIANT ptrFilterHistObj,
1593:Generated_Source\PSoC4/CapSense_1_Filter.c ****                                     ALP_FLTR_CONFIG_STRUCT *ptrAlpFilterConfig,
1594:Generated_Source\PSoC4/CapSense_1_Filter.c ****                                     CapSense_1_RAM_SNS_STRUCT *ptrSensorObj,
1595:Generated_Source\PSoC4/CapSense_1_Filter.c ****                                     uint32 wdType)
1596:Generated_Source\PSoC4/CapSense_1_Filter.c **** {
1597:Generated_Source\PSoC4/CapSense_1_Filter.c ****     uint32 freqChannel;
1598:Generated_Source\PSoC4/CapSense_1_Filter.c **** 
1599:Generated_Source\PSoC4/CapSense_1_Filter.c ****     for(freqChannel = CapSense_1_NUM_SCAN_FREQS; freqChannel-- > 0u;)
1600:Generated_Source\PSoC4/CapSense_1_Filter.c ****     {
1601:Generated_Source\PSoC4/CapSense_1_Filter.c ****         if ((CapSense_1_WD_TYPE_ENUM)wdType != CapSense_1_WD_PROXIMITY_E)
1602:Generated_Source\PSoC4/CapSense_1_Filter.c ****         {
1603:Generated_Source\PSoC4/CapSense_1_Filter.c ****             #if (CapSense_1_REGULAR_SENSOR_EN && CapSense_1_REGULAR_RC_ALP_FILTER_EN)
1604:Generated_Source\PSoC4/CapSense_1_Filter.c ****                 ptrAlpFilterConfig->configParam5 = CapSense_1_REGULAR_RC_ALP_FILTER_COEFF;
ARM GAS  C:\Users\Mayur\AppData\Local\Temp\ccxZLytu.s 			page 48


1605:Generated_Source\PSoC4/CapSense_1_Filter.c ****                 ALP_Run(&ptrFilterHistObj.ptrAlp->channel[freqChannel], ptrAlpFilterConfig, &ptrSen
1606:Generated_Source\PSoC4/CapSense_1_Filter.c ****             #endif
1607:Generated_Source\PSoC4/CapSense_1_Filter.c ****         }
1608:Generated_Source\PSoC4/CapSense_1_Filter.c ****         else
1609:Generated_Source\PSoC4/CapSense_1_Filter.c ****         {
1610:Generated_Source\PSoC4/CapSense_1_Filter.c ****             #if (CapSense_1_PROXIMITY_SENSOR_EN && CapSense_1_PROX_RC_ALP_FILTER_EN)
1611:Generated_Source\PSoC4/CapSense_1_Filter.c ****                 ptrAlpFilterConfig->configParam5 = CapSense_1_PROX_RC_ALP_FILTER_COEFF;
1612:Generated_Source\PSoC4/CapSense_1_Filter.c ****                 ALP_Run(&ptrFilterHistObj.ptrAlp->channel[freqChannel], ptrAlpFilterConfig, &ptrSen
1613:Generated_Source\PSoC4/CapSense_1_Filter.c ****             #endif
1614:Generated_Source\PSoC4/CapSense_1_Filter.c ****         }
1615:Generated_Source\PSoC4/CapSense_1_Filter.c ****     }
1616:Generated_Source\PSoC4/CapSense_1_Filter.c **** }
1617:Generated_Source\PSoC4/CapSense_1_Filter.c **** #endif /* (CapSense_1_ENABLE == CapSense_1_ALP_FILTER_EN) */
1618:Generated_Source\PSoC4/CapSense_1_Filter.c **** 
1619:Generated_Source\PSoC4/CapSense_1_Filter.c **** #if (CapSense_1_ENABLE == CapSense_1_RC_FILTER_EN)
1620:Generated_Source\PSoC4/CapSense_1_Filter.c **** /*******************************************************************************
1621:Generated_Source\PSoC4/CapSense_1_Filter.c **** * Function Name: CapSense_1_FtRunEnabledFilters
1622:Generated_Source\PSoC4/CapSense_1_Filter.c **** ****************************************************************************//**
1623:Generated_Source\PSoC4/CapSense_1_Filter.c **** *
1624:Generated_Source\PSoC4/CapSense_1_Filter.c **** * \brief
1625:Generated_Source\PSoC4/CapSense_1_Filter.c **** *  Runs all enabled filters.
1626:Generated_Source\PSoC4/CapSense_1_Filter.c **** *
1627:Generated_Source\PSoC4/CapSense_1_Filter.c **** * \details
1628:Generated_Source\PSoC4/CapSense_1_Filter.c **** *  Runs all enabled filters.
1629:Generated_Source\PSoC4/CapSense_1_Filter.c **** *
1630:Generated_Source\PSoC4/CapSense_1_Filter.c **** * \param widgetId
1631:Generated_Source\PSoC4/CapSense_1_Filter.c **** *  Specifies the ID number of a widget to update the IIR filter history.
1632:Generated_Source\PSoC4/CapSense_1_Filter.c **** *
1633:Generated_Source\PSoC4/CapSense_1_Filter.c **** * \param sensorId
1634:Generated_Source\PSoC4/CapSense_1_Filter.c **** *  Specifies the ID number of a sensor in the widget to update the IIR
1635:Generated_Source\PSoC4/CapSense_1_Filter.c **** *  filter history.
1636:Generated_Source\PSoC4/CapSense_1_Filter.c **** *
1637:Generated_Source\PSoC4/CapSense_1_Filter.c **** *******************************************************************************/
1638:Generated_Source\PSoC4/CapSense_1_Filter.c **** void CapSense_1_FtRunEnabledFilters(uint32 widgetId, uint32 sensorId)
1639:Generated_Source\PSoC4/CapSense_1_Filter.c **** {
1640:Generated_Source\PSoC4/CapSense_1_Filter.c ****     CapSense_1_FLASH_WD_STRUCT const *ptrWidget = &CapSense_1_dsFlash.wdgtArray[widgetId];
1641:Generated_Source\PSoC4/CapSense_1_Filter.c ****     CapSense_1_RAM_SNS_STRUCT *ptrSensor = NULL;
1642:Generated_Source\PSoC4/CapSense_1_Filter.c ****     CapSense_1_PTR_FILTER_VARIANT ptrFilterHistObj;
1643:Generated_Source\PSoC4/CapSense_1_Filter.c **** 
1644:Generated_Source\PSoC4/CapSense_1_Filter.c ****     /* Find pointer to specified sensor object */
1645:Generated_Source\PSoC4/CapSense_1_Filter.c ****     ptrSensor = ptrWidget->ptr2SnsRam;
1646:Generated_Source\PSoC4/CapSense_1_Filter.c ****     ptrSensor = &ptrSensor[sensorId];
1647:Generated_Source\PSoC4/CapSense_1_Filter.c **** 
1648:Generated_Source\PSoC4/CapSense_1_Filter.c ****     /* Find pointer to specified filter sensor object */
1649:Generated_Source\PSoC4/CapSense_1_Filter.c ****     ptrFilterHistObj.ptr = ptrWidget->ptr2FltrHistory;
1650:Generated_Source\PSoC4/CapSense_1_Filter.c **** 
1651:Generated_Source\PSoC4/CapSense_1_Filter.c ****     if ((CapSense_1_WD_TYPE_ENUM)ptrWidget->wdgtType != CapSense_1_WD_PROXIMITY_E)
1652:Generated_Source\PSoC4/CapSense_1_Filter.c ****     {
1653:Generated_Source\PSoC4/CapSense_1_Filter.c ****         #if (0u != CapSense_1_REGULAR_RC_ALP_FILTER_EN)
1654:Generated_Source\PSoC4/CapSense_1_Filter.c ****             ptrFilterHistObj.ptr = &ptrFilterHistObj.ptrAlp[sensorId];
1655:Generated_Source\PSoC4/CapSense_1_Filter.c ****         #elif (0u != CapSense_1_REGULAR_RC_FILTER_EN)
1656:Generated_Source\PSoC4/CapSense_1_Filter.c ****             ptrFilterHistObj.ptr = &ptrFilterHistObj.ptrRegular[sensorId];
1657:Generated_Source\PSoC4/CapSense_1_Filter.c ****         #endif
1658:Generated_Source\PSoC4/CapSense_1_Filter.c ****     }
1659:Generated_Source\PSoC4/CapSense_1_Filter.c ****     else
1660:Generated_Source\PSoC4/CapSense_1_Filter.c ****     {
1661:Generated_Source\PSoC4/CapSense_1_Filter.c ****         #if (0u != CapSense_1_PROX_RC_ALP_FILTER_EN)
ARM GAS  C:\Users\Mayur\AppData\Local\Temp\ccxZLytu.s 			page 49


1662:Generated_Source\PSoC4/CapSense_1_Filter.c ****             ptrFilterHistObj.ptr = &ptrFilterHistObj.ptrAlp[sensorId];
1663:Generated_Source\PSoC4/CapSense_1_Filter.c ****         #elif (0u != CapSense_1_PROX_RC_FILTER_EN)
1664:Generated_Source\PSoC4/CapSense_1_Filter.c ****             ptrFilterHistObj.ptr = &ptrFilterHistObj.ptrProx[sensorId];
1665:Generated_Source\PSoC4/CapSense_1_Filter.c ****         #endif
1666:Generated_Source\PSoC4/CapSense_1_Filter.c ****     }
1667:Generated_Source\PSoC4/CapSense_1_Filter.c **** 
1668:Generated_Source\PSoC4/CapSense_1_Filter.c ****     CapSense_1_FtRunEnabledFiltersInternal(ptrFilterHistObj, ptrSensor, (uint32)ptrWidget->wdgtType
1669:Generated_Source\PSoC4/CapSense_1_Filter.c ****     #if (CapSense_1_ALP_FILTER_EN)
1670:Generated_Source\PSoC4/CapSense_1_Filter.c ****         CapSense_1_ConfigRunALPInternal(ptrFilterHistObj, ptrWidget->ptr2WdgtRam, ptrSensor, (uint3
1671:Generated_Source\PSoC4/CapSense_1_Filter.c ****     #endif
1672:Generated_Source\PSoC4/CapSense_1_Filter.c **** }
1673:Generated_Source\PSoC4/CapSense_1_Filter.c **** 
1674:Generated_Source\PSoC4/CapSense_1_Filter.c **** 
1675:Generated_Source\PSoC4/CapSense_1_Filter.c **** /*******************************************************************************
1676:Generated_Source\PSoC4/CapSense_1_Filter.c **** * Function Name: CapSense_1_FtRunEnabledFiltersInternal
1677:Generated_Source\PSoC4/CapSense_1_Filter.c **** ****************************************************************************//**
1678:Generated_Source\PSoC4/CapSense_1_Filter.c **** *
1679:Generated_Source\PSoC4/CapSense_1_Filter.c **** * \brief
1680:Generated_Source\PSoC4/CapSense_1_Filter.c **** *  Runs all enabled filters.
1681:Generated_Source\PSoC4/CapSense_1_Filter.c **** *
1682:Generated_Source\PSoC4/CapSense_1_Filter.c **** * \details
1683:Generated_Source\PSoC4/CapSense_1_Filter.c **** *  Runs all enabled filters.
1684:Generated_Source\PSoC4/CapSense_1_Filter.c **** *
1685:Generated_Source\PSoC4/CapSense_1_Filter.c **** * \param ptrFilterHistObj
1686:Generated_Source\PSoC4/CapSense_1_Filter.c **** *  The pointer to the filter RAM object of the sensor.
1687:Generated_Source\PSoC4/CapSense_1_Filter.c **** *
1688:Generated_Source\PSoC4/CapSense_1_Filter.c **** * \param ptrSensorObj
1689:Generated_Source\PSoC4/CapSense_1_Filter.c **** *  The pointer to the sensor RAM object of the sensor.
1690:Generated_Source\PSoC4/CapSense_1_Filter.c **** *
1691:Generated_Source\PSoC4/CapSense_1_Filter.c **** * \param wdType
1692:Generated_Source\PSoC4/CapSense_1_Filter.c **** *  Specifies the type of a widget.
1693:Generated_Source\PSoC4/CapSense_1_Filter.c **** *
1694:Generated_Source\PSoC4/CapSense_1_Filter.c **** *******************************************************************************/
1695:Generated_Source\PSoC4/CapSense_1_Filter.c **** void CapSense_1_FtRunEnabledFiltersInternal(CapSense_1_PTR_FILTER_VARIANT ptrFilterHistObj,
1696:Generated_Source\PSoC4/CapSense_1_Filter.c ****                                                   CapSense_1_RAM_SNS_STRUCT *ptrSensorObj, uint32 w
1697:Generated_Source\PSoC4/CapSense_1_Filter.c **** {
1698:Generated_Source\PSoC4/CapSense_1_Filter.c ****     #if (CapSense_1_REGULAR_RC_MEDIAN_FILTER_EN || CapSense_1_PROX_RC_MEDIAN_FILTER_EN)
1699:Generated_Source\PSoC4/CapSense_1_Filter.c ****         CapSense_1_RunMedianInternal(ptrFilterHistObj, ptrSensorObj, wdType);
1700:Generated_Source\PSoC4/CapSense_1_Filter.c ****     #endif /* (CapSense_1_REGULAR_RC_MEDIAN_FILTER_EN || CapSense_1_PROX_RC_MEDIAN_FILTER_EN) */
1701:Generated_Source\PSoC4/CapSense_1_Filter.c **** 
1702:Generated_Source\PSoC4/CapSense_1_Filter.c ****     #if (CapSense_1_REGULAR_RC_IIR_FILTER_EN || CapSense_1_PROX_RC_IIR_FILTER_EN)
1703:Generated_Source\PSoC4/CapSense_1_Filter.c ****         CapSense_1_RunIIRInternal(ptrFilterHistObj, ptrSensorObj, wdType);
1704:Generated_Source\PSoC4/CapSense_1_Filter.c ****     #endif /* (CapSense_1_REGULAR_RC_IIR_FILTER_EN || CapSense_1_PROX_RC_IIR_FILTER_EN) */
1705:Generated_Source\PSoC4/CapSense_1_Filter.c **** 
1706:Generated_Source\PSoC4/CapSense_1_Filter.c ****     #if (CapSense_1_REGULAR_RC_AVERAGE_FILTER_EN || CapSense_1_PROX_RC_AVERAGE_FILTER_EN)
1707:Generated_Source\PSoC4/CapSense_1_Filter.c ****         CapSense_1_RunAverageInternal(ptrFilterHistObj, ptrSensorObj, wdType);
1708:Generated_Source\PSoC4/CapSense_1_Filter.c ****     #endif /* (CapSense_1_REGULAR_RC_AVERAGE_FILTER_EN || CapSense_1_PROX_RC_AVERAGE_FILTER_EN) */
1709:Generated_Source\PSoC4/CapSense_1_Filter.c **** }
1710:Generated_Source\PSoC4/CapSense_1_Filter.c **** #endif /* (CapSense_1_ENABLE == CapSense_1_RC_FILTER_EN) */
1711:Generated_Source\PSoC4/CapSense_1_Filter.c **** 
1712:Generated_Source\PSoC4/CapSense_1_Filter.c **** 
1713:Generated_Source\PSoC4/CapSense_1_Filter.c **** #if (0u != (CapSense_1_CSD_AUTOTUNE & CapSense_1_CSD_SS_TH_EN))
1714:Generated_Source\PSoC4/CapSense_1_Filter.c **** /*******************************************************************************
1715:Generated_Source\PSoC4/CapSense_1_Filter.c **** * Function Name: CapSense_1_RunNoiseEnvelope
1716:Generated_Source\PSoC4/CapSense_1_Filter.c **** ****************************************************************************//**
1717:Generated_Source\PSoC4/CapSense_1_Filter.c **** *
1718:Generated_Source\PSoC4/CapSense_1_Filter.c **** * \brief
ARM GAS  C:\Users\Mayur\AppData\Local\Temp\ccxZLytu.s 			page 50


1719:Generated_Source\PSoC4/CapSense_1_Filter.c **** *  Executes the noise envelope  filter algorithm on a sensor indicated by
1720:Generated_Source\PSoC4/CapSense_1_Filter.c **** *  an input parameter to measure the pk-to-pk noise in the sensor raw count.
1721:Generated_Source\PSoC4/CapSense_1_Filter.c **** *
1722:Generated_Source\PSoC4/CapSense_1_Filter.c **** * \details
1723:Generated_Source\PSoC4/CapSense_1_Filter.c **** *  Executes the noise envelope  filter algorithm on a sensor indicated by
1724:Generated_Source\PSoC4/CapSense_1_Filter.c **** *  an input parameter to measure the pk-to-pk noise in the sensor raw count.
1725:Generated_Source\PSoC4/CapSense_1_Filter.c **** *
1726:Generated_Source\PSoC4/CapSense_1_Filter.c **** * \param widgetId
1727:Generated_Source\PSoC4/CapSense_1_Filter.c **** *  Specifies the ID number of the widget.
1728:Generated_Source\PSoC4/CapSense_1_Filter.c **** *
1729:Generated_Source\PSoC4/CapSense_1_Filter.c **** * \param sensorId
1730:Generated_Source\PSoC4/CapSense_1_Filter.c **** *  Specifies the ID number of the sensor in the widget.
1731:Generated_Source\PSoC4/CapSense_1_Filter.c **** *
1732:Generated_Source\PSoC4/CapSense_1_Filter.c **** *******************************************************************************/
1733:Generated_Source\PSoC4/CapSense_1_Filter.c **** void CapSense_1_RunNoiseEnvelope(uint32 widgetId, uint32 sensorId)
1734:Generated_Source\PSoC4/CapSense_1_Filter.c **** {
 981              		.loc 1 1734 0
 982              		.cfi_startproc
 983              		@ args = 0, pretend = 0, frame = 0
 984              		@ frame_needed = 0, uses_anonymous_args = 0
 985              	.LVL129:
 986 0000 70B5     		push	{r4, r5, r6, lr}
 987              		.cfi_def_cfa_offset 16
 988              		.cfi_offset 4, -16
 989              		.cfi_offset 5, -12
 990              		.cfi_offset 6, -8
 991              		.cfi_offset 14, -4
 992              	.LVL130:
1735:Generated_Source\PSoC4/CapSense_1_Filter.c ****     CapSense_1_FLASH_WD_STRUCT const *ptrWidget = &CapSense_1_dsFlash.wdgtArray[widgetId];
1736:Generated_Source\PSoC4/CapSense_1_Filter.c ****     CapSense_1_RAM_WD_BASE_STRUCT *ptrWidgetRam = ptrWidget->ptr2WdgtRam;
 993              		.loc 1 1736 0
 994 0002 4001     		lsls	r0, r0, #5
 995              	.LVL131:
 996 0004 084B     		ldr	r3, .L60
 997 0006 1818     		adds	r0, r3, r0
 998              	.LVL132:
 999 0008 4668     		ldr	r6, [r0, #4]
 1000              	.LVL133:
1737:Generated_Source\PSoC4/CapSense_1_Filter.c ****     CapSense_1_RAM_SNS_STRUCT *ptrSensor = NULL;
1738:Generated_Source\PSoC4/CapSense_1_Filter.c ****     SMARTSENSE_CSD_NOISE_ENVELOPE_STRUCT *ptrNoiseEnvelope = NULL;
1739:Generated_Source\PSoC4/CapSense_1_Filter.c **** 
1740:Generated_Source\PSoC4/CapSense_1_Filter.c ****     /* Find pointer to specified sensor object */
1741:Generated_Source\PSoC4/CapSense_1_Filter.c ****     ptrSensor = ptrWidget->ptr2SnsRam;
 1001              		.loc 1 1741 0
 1002 000a 8568     		ldr	r5, [r0, #8]
 1003              	.LVL134:
1742:Generated_Source\PSoC4/CapSense_1_Filter.c ****     ptrSensor = &ptrSensor[sensorId];
 1004              		.loc 1 1742 0
 1005 000c 8B00     		lsls	r3, r1, #2
 1006 000e 5B18     		adds	r3, r3, r1
 1007 0010 5C00     		lsls	r4, r3, #1
 1008              	.LVL135:
1743:Generated_Source\PSoC4/CapSense_1_Filter.c **** 
1744:Generated_Source\PSoC4/CapSense_1_Filter.c ****     /* Find pointer to specified filter sensor object */
1745:Generated_Source\PSoC4/CapSense_1_Filter.c ****     ptrNoiseEnvelope = ptrWidget->ptr2NoiseEnvlp;
 1009              		.loc 1 1745 0
 1010 0012 C369     		ldr	r3, [r0, #28]
ARM GAS  C:\Users\Mayur\AppData\Local\Temp\ccxZLytu.s 			page 51


 1011              	.LVL136:
1746:Generated_Source\PSoC4/CapSense_1_Filter.c ****     ptrNoiseEnvelope = &ptrNoiseEnvelope[sensorId];
 1012              		.loc 1 1746 0
 1013 0014 4A00     		lsls	r2, r1, #1
 1014 0016 5118     		adds	r1, r2, r1
 1015              	.LVL137:
 1016 0018 8A00     		lsls	r2, r1, #2
 1017 001a 9A18     		adds	r2, r3, r2
 1018              	.LVL138:
1747:Generated_Source\PSoC4/CapSense_1_Filter.c **** 
1748:Generated_Source\PSoC4/CapSense_1_Filter.c ****     SmartSense_RunNoiseEnvelope(ptrSensor->raw[0u], ptrWidgetRam->sigPFC, ptrNoiseEnvelope);
 1019              		.loc 1 1748 0
 1020 001c 318A     		ldrh	r1, [r6, #16]
 1021 001e 285B     		ldrh	r0, [r5, r4]
 1022              	.LVL139:
 1023 0020 FFF7FEFF 		bl	SmartSense_RunNoiseEnvelope
 1024              	.LVL140:
1749:Generated_Source\PSoC4/CapSense_1_Filter.c **** }
 1025              		.loc 1 1749 0
 1026              		@ sp needed
 1027              	.LVL141:
 1028              	.LVL142:
 1029              	.LVL143:
 1030 0024 70BD     		pop	{r4, r5, r6, pc}
 1031              	.L61:
 1032 0026 C046     		.align	2
 1033              	.L60:
 1034 0028 00000000 		.word	CapSense_1_dsFlash
 1035              		.cfi_endproc
 1036              	.LFE26:
 1037              		.size	CapSense_1_RunNoiseEnvelope, .-CapSense_1_RunNoiseEnvelope
 1038              		.section	.text.CapSense_1_InitializeNoiseEnvelope,"ax",%progbits
 1039              		.align	2
 1040              		.global	CapSense_1_InitializeNoiseEnvelope
 1041              		.code	16
 1042              		.thumb_func
 1043              		.type	CapSense_1_InitializeNoiseEnvelope, %function
 1044              	CapSense_1_InitializeNoiseEnvelope:
 1045              	.LFB27:
1750:Generated_Source\PSoC4/CapSense_1_Filter.c **** 
1751:Generated_Source\PSoC4/CapSense_1_Filter.c **** 
1752:Generated_Source\PSoC4/CapSense_1_Filter.c **** /*******************************************************************************
1753:Generated_Source\PSoC4/CapSense_1_Filter.c **** * Function Name: CapSense_1_InitializeNoiseEnvelope
1754:Generated_Source\PSoC4/CapSense_1_Filter.c **** ****************************************************************************//**
1755:Generated_Source\PSoC4/CapSense_1_Filter.c **** *
1756:Generated_Source\PSoC4/CapSense_1_Filter.c **** * \brief
1757:Generated_Source\PSoC4/CapSense_1_Filter.c **** *  Initializes the noise-envelope filter
1758:Generated_Source\PSoC4/CapSense_1_Filter.c **** *
1759:Generated_Source\PSoC4/CapSense_1_Filter.c **** * \details
1760:Generated_Source\PSoC4/CapSense_1_Filter.c **** *  Initializes the noise-envelope filter
1761:Generated_Source\PSoC4/CapSense_1_Filter.c **** *
1762:Generated_Source\PSoC4/CapSense_1_Filter.c **** * \param widgetId
1763:Generated_Source\PSoC4/CapSense_1_Filter.c **** *  Specifies the ID number of the widget.
1764:Generated_Source\PSoC4/CapSense_1_Filter.c **** *
1765:Generated_Source\PSoC4/CapSense_1_Filter.c **** * \param sensorId
1766:Generated_Source\PSoC4/CapSense_1_Filter.c **** *  Specifies the ID number of the sensor in the widget.
1767:Generated_Source\PSoC4/CapSense_1_Filter.c **** *
ARM GAS  C:\Users\Mayur\AppData\Local\Temp\ccxZLytu.s 			page 52


1768:Generated_Source\PSoC4/CapSense_1_Filter.c **** *******************************************************************************/
1769:Generated_Source\PSoC4/CapSense_1_Filter.c **** void CapSense_1_InitializeNoiseEnvelope(uint32 widgetId, uint32 sensorId)
1770:Generated_Source\PSoC4/CapSense_1_Filter.c **** {
 1046              		.loc 1 1770 0
 1047              		.cfi_startproc
 1048              		@ args = 0, pretend = 0, frame = 0
 1049              		@ frame_needed = 0, uses_anonymous_args = 0
 1050              	.LVL144:
 1051 0000 70B5     		push	{r4, r5, r6, lr}
 1052              		.cfi_def_cfa_offset 16
 1053              		.cfi_offset 4, -16
 1054              		.cfi_offset 5, -12
 1055              		.cfi_offset 6, -8
 1056              		.cfi_offset 14, -4
 1057              	.LVL145:
1771:Generated_Source\PSoC4/CapSense_1_Filter.c ****     CapSense_1_FLASH_WD_STRUCT const *ptrWidget = &CapSense_1_dsFlash.wdgtArray[widgetId];
1772:Generated_Source\PSoC4/CapSense_1_Filter.c ****     CapSense_1_RAM_WD_BASE_STRUCT *ptrWidgetRam = ptrWidget->ptr2WdgtRam;
 1058              		.loc 1 1772 0
 1059 0002 4001     		lsls	r0, r0, #5
 1060              	.LVL146:
 1061 0004 084B     		ldr	r3, .L63
 1062 0006 1818     		adds	r0, r3, r0
 1063              	.LVL147:
 1064 0008 4668     		ldr	r6, [r0, #4]
 1065              	.LVL148:
1773:Generated_Source\PSoC4/CapSense_1_Filter.c ****     CapSense_1_RAM_SNS_STRUCT *ptrSensor = NULL;
1774:Generated_Source\PSoC4/CapSense_1_Filter.c ****     SMARTSENSE_CSD_NOISE_ENVELOPE_STRUCT *ptrNoiseEnvelope = NULL;
1775:Generated_Source\PSoC4/CapSense_1_Filter.c **** 
1776:Generated_Source\PSoC4/CapSense_1_Filter.c ****     /* Find pointer to specified sensor object */
1777:Generated_Source\PSoC4/CapSense_1_Filter.c ****     ptrSensor = ptrWidget->ptr2SnsRam;
 1066              		.loc 1 1777 0
 1067 000a 8568     		ldr	r5, [r0, #8]
 1068              	.LVL149:
1778:Generated_Source\PSoC4/CapSense_1_Filter.c ****     ptrSensor = &ptrSensor[sensorId];
 1069              		.loc 1 1778 0
 1070 000c 8B00     		lsls	r3, r1, #2
 1071 000e 5B18     		adds	r3, r3, r1
 1072 0010 5C00     		lsls	r4, r3, #1
 1073              	.LVL150:
1779:Generated_Source\PSoC4/CapSense_1_Filter.c **** 
1780:Generated_Source\PSoC4/CapSense_1_Filter.c ****     /* Find pointer to specified filter sensor object */
1781:Generated_Source\PSoC4/CapSense_1_Filter.c ****     ptrNoiseEnvelope = ptrWidget->ptr2NoiseEnvlp;
 1074              		.loc 1 1781 0
 1075 0012 C369     		ldr	r3, [r0, #28]
 1076              	.LVL151:
1782:Generated_Source\PSoC4/CapSense_1_Filter.c ****     ptrNoiseEnvelope = &ptrNoiseEnvelope[sensorId];
 1077              		.loc 1 1782 0
 1078 0014 4A00     		lsls	r2, r1, #1
 1079 0016 5118     		adds	r1, r2, r1
 1080              	.LVL152:
 1081 0018 8A00     		lsls	r2, r1, #2
 1082 001a 9A18     		adds	r2, r3, r2
 1083              	.LVL153:
1783:Generated_Source\PSoC4/CapSense_1_Filter.c **** 
1784:Generated_Source\PSoC4/CapSense_1_Filter.c ****     SmartSense_InitializeNoiseEnvelope(ptrSensor->raw[0u], ptrWidgetRam->sigPFC, ptrNoiseEnvelope);
 1084              		.loc 1 1784 0
 1085 001c 318A     		ldrh	r1, [r6, #16]
ARM GAS  C:\Users\Mayur\AppData\Local\Temp\ccxZLytu.s 			page 53


 1086 001e 285B     		ldrh	r0, [r5, r4]
 1087              	.LVL154:
 1088 0020 FFF7FEFF 		bl	SmartSense_InitializeNoiseEnvelope
 1089              	.LVL155:
1785:Generated_Source\PSoC4/CapSense_1_Filter.c **** }
 1090              		.loc 1 1785 0
 1091              		@ sp needed
 1092              	.LVL156:
 1093              	.LVL157:
 1094              	.LVL158:
 1095 0024 70BD     		pop	{r4, r5, r6, pc}
 1096              	.L64:
 1097 0026 C046     		.align	2
 1098              	.L63:
 1099 0028 00000000 		.word	CapSense_1_dsFlash
 1100              		.cfi_endproc
 1101              	.LFE27:
 1102              		.size	CapSense_1_InitializeNoiseEnvelope, .-CapSense_1_InitializeNoiseEnvelope
 1103              		.section	.text.CapSense_1_FtMedian,"ax",%progbits
 1104              		.align	2
 1105              		.global	CapSense_1_FtMedian
 1106              		.code	16
 1107              		.thumb_func
 1108              		.type	CapSense_1_FtMedian, %function
 1109              	CapSense_1_FtMedian:
 1110              	.LFB28:
1786:Generated_Source\PSoC4/CapSense_1_Filter.c **** #endif /* (0u != (CapSense_1_CSD_AUTOTUNE & CapSense_1_CSD_SS_TH_EN)) */
1787:Generated_Source\PSoC4/CapSense_1_Filter.c **** 
1788:Generated_Source\PSoC4/CapSense_1_Filter.c **** 
1789:Generated_Source\PSoC4/CapSense_1_Filter.c **** #if (CapSense_1_POS_MEDIAN_FILTER_EN || CapSense_1_REGULAR_RC_MEDIAN_FILTER_EN || CapSense_1_PROX_R
1790:Generated_Source\PSoC4/CapSense_1_Filter.c **** /*******************************************************************************
1791:Generated_Source\PSoC4/CapSense_1_Filter.c **** * Function Name: CapSense_1_FtMedian
1792:Generated_Source\PSoC4/CapSense_1_Filter.c **** ****************************************************************************//**
1793:Generated_Source\PSoC4/CapSense_1_Filter.c **** *
1794:Generated_Source\PSoC4/CapSense_1_Filter.c **** * \brief
1795:Generated_Source\PSoC4/CapSense_1_Filter.c **** *  Return the median value from the three passed arguments.
1796:Generated_Source\PSoC4/CapSense_1_Filter.c **** *
1797:Generated_Source\PSoC4/CapSense_1_Filter.c **** * \details
1798:Generated_Source\PSoC4/CapSense_1_Filter.c **** *  Return the median value from the three passed arguments.
1799:Generated_Source\PSoC4/CapSense_1_Filter.c **** *
1800:Generated_Source\PSoC4/CapSense_1_Filter.c **** * \param x1
1801:Generated_Source\PSoC4/CapSense_1_Filter.c **** *  The first value to be compared.
1802:Generated_Source\PSoC4/CapSense_1_Filter.c **** *
1803:Generated_Source\PSoC4/CapSense_1_Filter.c **** * \param x2
1804:Generated_Source\PSoC4/CapSense_1_Filter.c **** *  The second value to be compared.
1805:Generated_Source\PSoC4/CapSense_1_Filter.c **** *
1806:Generated_Source\PSoC4/CapSense_1_Filter.c **** * \param x3
1807:Generated_Source\PSoC4/CapSense_1_Filter.c **** *  The third value to be compared.
1808:Generated_Source\PSoC4/CapSense_1_Filter.c **** *
1809:Generated_Source\PSoC4/CapSense_1_Filter.c **** * \return
1810:Generated_Source\PSoC4/CapSense_1_Filter.c **** *  Returns the median value of input arguments.
1811:Generated_Source\PSoC4/CapSense_1_Filter.c **** *
1812:Generated_Source\PSoC4/CapSense_1_Filter.c **** *******************************************************************************/
1813:Generated_Source\PSoC4/CapSense_1_Filter.c **** uint32 CapSense_1_FtMedian(uint32 x1, uint32 x2, uint32 x3)
1814:Generated_Source\PSoC4/CapSense_1_Filter.c **** {
 1111              		.loc 1 1814 0
 1112              		.cfi_startproc
ARM GAS  C:\Users\Mayur\AppData\Local\Temp\ccxZLytu.s 			page 54


 1113              		@ args = 0, pretend = 0, frame = 0
 1114              		@ frame_needed = 0, uses_anonymous_args = 0
 1115              		@ link register save eliminated.
 1116              	.LVL159:
1815:Generated_Source\PSoC4/CapSense_1_Filter.c ****     uint32 tmp;
1816:Generated_Source\PSoC4/CapSense_1_Filter.c **** 
1817:Generated_Source\PSoC4/CapSense_1_Filter.c ****     if (x1 > x2)
 1117              		.loc 1 1817 0
 1118 0000 8842     		cmp	r0, r1
 1119 0002 02D9     		bls	.L66
 1120 0004 0300     		movs	r3, r0
1818:Generated_Source\PSoC4/CapSense_1_Filter.c ****     {
1819:Generated_Source\PSoC4/CapSense_1_Filter.c ****         tmp = x2;
1820:Generated_Source\PSoC4/CapSense_1_Filter.c ****         x2 = x1;
1821:Generated_Source\PSoC4/CapSense_1_Filter.c ****         x1 = tmp;
 1121              		.loc 1 1821 0
 1122 0006 0800     		movs	r0, r1
 1123              	.LVL160:
1820:Generated_Source\PSoC4/CapSense_1_Filter.c ****         x1 = tmp;
 1124              		.loc 1 1820 0
 1125 0008 1900     		movs	r1, r3
 1126              	.LVL161:
 1127              	.L66:
1822:Generated_Source\PSoC4/CapSense_1_Filter.c ****     }
1823:Generated_Source\PSoC4/CapSense_1_Filter.c **** 
1824:Generated_Source\PSoC4/CapSense_1_Filter.c ****     if (x2 > x3)
 1128              		.loc 1 1824 0
 1129 000a 9142     		cmp	r1, r2
 1130 000c 00D9     		bls	.L67
1825:Generated_Source\PSoC4/CapSense_1_Filter.c ****     {
1826:Generated_Source\PSoC4/CapSense_1_Filter.c ****         x2 = x3;
 1131              		.loc 1 1826 0
 1132 000e 1100     		movs	r1, r2
 1133              	.LVL162:
 1134              	.L67:
1827:Generated_Source\PSoC4/CapSense_1_Filter.c ****     }
1828:Generated_Source\PSoC4/CapSense_1_Filter.c **** 
1829:Generated_Source\PSoC4/CapSense_1_Filter.c ****     return ((x1 > x2) ? x1 : x2);
 1135              		.loc 1 1829 0
 1136 0010 8842     		cmp	r0, r1
 1137 0012 00D2     		bcs	.L68
 1138 0014 0800     		movs	r0, r1
 1139              	.LVL163:
 1140              	.L68:
1830:Generated_Source\PSoC4/CapSense_1_Filter.c **** }
 1141              		.loc 1 1830 0
 1142              		@ sp needed
 1143 0016 7047     		bx	lr
 1144              		.cfi_endproc
 1145              	.LFE28:
 1146              		.size	CapSense_1_FtMedian, .-CapSense_1_FtMedian
 1147              		.section	.text.CapSense_1_RunMedianInternal,"ax",%progbits
 1148              		.align	2
 1149              		.global	CapSense_1_RunMedianInternal
 1150              		.code	16
 1151              		.thumb_func
 1152              		.type	CapSense_1_RunMedianInternal, %function
ARM GAS  C:\Users\Mayur\AppData\Local\Temp\ccxZLytu.s 			page 55


 1153              	CapSense_1_RunMedianInternal:
 1154              	.LFB19:
1127:Generated_Source\PSoC4/CapSense_1_Filter.c ****     uint32 freqChannel;
 1155              		.loc 1 1127 0
 1156              		.cfi_startproc
 1157              		@ args = 0, pretend = 0, frame = 8
 1158              		@ frame_needed = 0, uses_anonymous_args = 0
 1159              	.LVL164:
 1160 0000 F0B5     		push	{r4, r5, r6, r7, lr}
 1161              		.cfi_def_cfa_offset 20
 1162              		.cfi_offset 4, -20
 1163              		.cfi_offset 5, -16
 1164              		.cfi_offset 6, -12
 1165              		.cfi_offset 7, -8
 1166              		.cfi_offset 14, -4
 1167 0002 4F46     		mov	r7, r9
 1168 0004 4646     		mov	r6, r8
 1169 0006 C0B4     		push	{r6, r7}
 1170              		.cfi_def_cfa_offset 28
 1171              		.cfi_offset 8, -28
 1172              		.cfi_offset 9, -24
 1173 0008 83B0     		sub	sp, sp, #12
 1174              		.cfi_def_cfa_offset 40
 1175 000a 0190     		str	r0, [sp, #4]
 1176 000c 0F00     		movs	r7, r1
 1177 000e 9046     		mov	r8, r2
 1178              	.LVL165:
1135:Generated_Source\PSoC4/CapSense_1_Filter.c ****     {
 1179              		.loc 1 1135 0
 1180 0010 0123     		movs	r3, #1
 1181 0012 17E0     		b	.L72
 1182              	.LVL166:
 1183              	.L74:
1137:Generated_Source\PSoC4/CapSense_1_Filter.c ****         {
 1184              		.loc 1 1137 0
 1185 0014 FF23     		movs	r3, #255
 1186 0016 4246     		mov	r2, r8
 1187 0018 1340     		ands	r3, r2
 1188 001a 062B     		cmp	r3, #6
 1189 001c 11D0     		beq	.L73
 1190              	.LVL167:
1140:Generated_Source\PSoC4/CapSense_1_Filter.c ****                                                  (uint32)ptrFilterHistObj.ptrRegular->regularChanne
 1191              		.loc 1 1140 0
 1192 001e 6E00     		lsls	r6, r5, #1
 1193 0020 F05B     		ldrh	r0, [r6, r7]
 1194              	.LVL168:
1141:Generated_Source\PSoC4/CapSense_1_Filter.c ****                                                  (uint32)ptrFilterHistObj.ptrRegular->regularChanne
 1195              		.loc 1 1141 0
 1196 0022 7319     		adds	r3, r6, r5
 1197 0024 9C00     		lsls	r4, r3, #2
 1198 0026 019B     		ldr	r3, [sp, #4]
 1199              	.LVL169:
 1200 0028 9C46     		mov	ip, r3
 1201 002a 6444     		add	r4, r4, ip
 1202 002c 6388     		ldrh	r3, [r4, #2]
 1203              	.LVL170:
 1204 002e 9946     		mov	r9, r3
ARM GAS  C:\Users\Mayur\AppData\Local\Temp\ccxZLytu.s 			page 56


1142:Generated_Source\PSoC4/CapSense_1_Filter.c ****                 ptrFilterHistObj.ptrRegular->regularChannel[freqChannel].medHistory[1u] = \
 1205              		.loc 1 1142 0
 1206 0030 A288     		ldrh	r2, [r4, #4]
 1207              	.LVL171:
1140:Generated_Source\PSoC4/CapSense_1_Filter.c ****                                                  (uint32)ptrFilterHistObj.ptrRegular->regularChanne
 1208              		.loc 1 1140 0
 1209 0032 1900     		movs	r1, r3
 1210 0034 FFF7FEFF 		bl	CapSense_1_FtMedian
 1211              	.LVL172:
1143:Generated_Source\PSoC4/CapSense_1_Filter.c ****                 ptrFilterHistObj.ptrRegular->regularChannel[freqChannel].medHistory[0u];
 1212              		.loc 1 1143 0
 1213 0038 4B46     		mov	r3, r9
 1214 003a A380     		strh	r3, [r4, #4]
1145:Generated_Source\PSoC4/CapSense_1_Filter.c ****                 ptrSensorObj->raw[freqChannel] = LO16(temp);
 1215              		.loc 1 1145 0
 1216 003c F35B     		ldrh	r3, [r6, r7]
 1217 003e 6380     		strh	r3, [r4, #2]
1146:Generated_Source\PSoC4/CapSense_1_Filter.c ****             #endif /* (CapSense_1_REGULAR_SENSOR_EN) */
 1218              		.loc 1 1146 0
 1219 0040 B853     		strh	r0, [r7, r6]
 1220              	.LVL173:
 1221              	.L73:
1127:Generated_Source\PSoC4/CapSense_1_Filter.c ****     uint32 freqChannel;
 1222              		.loc 1 1127 0 discriminator 1
 1223 0042 2B00     		movs	r3, r5
 1224              	.LVL174:
 1225              	.L72:
1135:Generated_Source\PSoC4/CapSense_1_Filter.c ****     {
 1226              		.loc 1 1135 0 discriminator 1
 1227 0044 5D1E     		subs	r5, r3, #1
 1228              	.LVL175:
 1229 0046 002B     		cmp	r3, #0
 1230 0048 E4D1     		bne	.L74
1162:Generated_Source\PSoC4/CapSense_1_Filter.c **** #endif /* (CapSense_1_REGULAR_RC_MEDIAN_FILTER_EN || CapSense_1_PROX_RC_MEDIAN_FILTER_EN) */
 1231              		.loc 1 1162 0
 1232 004a 03B0     		add	sp, sp, #12
 1233              		@ sp needed
 1234              	.LVL176:
 1235              	.LVL177:
 1236              	.LVL178:
 1237 004c 0CBC     		pop	{r2, r3}
 1238 004e 9046     		mov	r8, r2
 1239 0050 9946     		mov	r9, r3
 1240 0052 F0BD     		pop	{r4, r5, r6, r7, pc}
 1241              		.cfi_endproc
 1242              	.LFE19:
 1243              		.size	CapSense_1_RunMedianInternal, .-CapSense_1_RunMedianInternal
 1244              		.section	.text.CapSense_1_RunMedian,"ax",%progbits
 1245              		.align	2
 1246              		.global	CapSense_1_RunMedian
 1247              		.code	16
 1248              		.thumb_func
 1249              		.type	CapSense_1_RunMedian, %function
 1250              	CapSense_1_RunMedian:
 1251              	.LFB17:
1031:Generated_Source\PSoC4/CapSense_1_Filter.c ****     CapSense_1_FLASH_WD_STRUCT const *ptrWidget = &CapSense_1_dsFlash.wdgtArray[widgetId];
 1252              		.loc 1 1031 0
ARM GAS  C:\Users\Mayur\AppData\Local\Temp\ccxZLytu.s 			page 57


 1253              		.cfi_startproc
 1254              		@ args = 0, pretend = 0, frame = 0
 1255              		@ frame_needed = 0, uses_anonymous_args = 0
 1256              	.LVL179:
 1257 0000 70B5     		push	{r4, r5, r6, lr}
 1258              		.cfi_def_cfa_offset 16
 1259              		.cfi_offset 4, -16
 1260              		.cfi_offset 5, -12
 1261              		.cfi_offset 6, -8
 1262              		.cfi_offset 14, -4
 1263 0002 0C00     		movs	r4, r1
 1264              	.LVL180:
1037:Generated_Source\PSoC4/CapSense_1_Filter.c ****     ptrSensor = &ptrSensor[sensorId];
 1265              		.loc 1 1037 0
 1266 0004 4001     		lsls	r0, r0, #5
 1267              	.LVL181:
 1268 0006 0A4B     		ldr	r3, .L77
 1269 0008 1B18     		adds	r3, r3, r0
 1270              	.LVL182:
1038:Generated_Source\PSoC4/CapSense_1_Filter.c **** 
 1271              		.loc 1 1038 0
 1272 000a 8A00     		lsls	r2, r1, #2
 1273 000c 5218     		adds	r2, r2, r1
 1274 000e 5100     		lsls	r1, r2, #1
 1275              	.LVL183:
 1276 0010 9A68     		ldr	r2, [r3, #8]
 1277 0012 9446     		mov	ip, r2
 1278 0014 6144     		add	r1, r1, ip
 1279              	.LVL184:
1041:Generated_Source\PSoC4/CapSense_1_Filter.c **** 
 1280              		.loc 1 1041 0
 1281 0016 DD68     		ldr	r5, [r3, #12]
 1282 0018 2800     		movs	r0, r5
 1283              	.LVL185:
1043:Generated_Source\PSoC4/CapSense_1_Filter.c ****     {
 1284              		.loc 1 1043 0
 1285 001a 9A7E     		ldrb	r2, [r3, #26]
 1286 001c 062A     		cmp	r2, #6
 1287 001e 03D0     		beq	.L76
1046:Generated_Source\PSoC4/CapSense_1_Filter.c ****         #endif /* (CapSense_1_REGULAR_SENSOR_EN) */
 1288              		.loc 1 1046 0
 1289 0020 6300     		lsls	r3, r4, #1
 1290              	.LVL186:
 1291 0022 1C19     		adds	r4, r3, r4
 1292              	.LVL187:
 1293 0024 A000     		lsls	r0, r4, #2
 1294 0026 2818     		adds	r0, r5, r0
 1295              	.L76:
1056:Generated_Source\PSoC4/CapSense_1_Filter.c **** }
 1296              		.loc 1 1056 0
 1297 0028 FFF7FEFF 		bl	CapSense_1_RunMedianInternal
 1298              	.LVL188:
1057:Generated_Source\PSoC4/CapSense_1_Filter.c **** 
 1299              		.loc 1 1057 0
 1300              		@ sp needed
 1301 002c 70BD     		pop	{r4, r5, r6, pc}
 1302              	.L78:
ARM GAS  C:\Users\Mayur\AppData\Local\Temp\ccxZLytu.s 			page 58


 1303 002e C046     		.align	2
 1304              	.L77:
 1305 0030 00000000 		.word	CapSense_1_dsFlash
 1306              		.cfi_endproc
 1307              	.LFE17:
 1308              		.size	CapSense_1_RunMedian, .-CapSense_1_RunMedian
 1309              		.section	.text.CapSense_1_FtIIR1stOrder,"ax",%progbits
 1310              		.align	2
 1311              		.global	CapSense_1_FtIIR1stOrder
 1312              		.code	16
 1313              		.thumb_func
 1314              		.type	CapSense_1_FtIIR1stOrder, %function
 1315              	CapSense_1_FtIIR1stOrder:
 1316              	.LFB29:
1831:Generated_Source\PSoC4/CapSense_1_Filter.c **** #endif /*CapSense_1_POS_MEDIAN_FILTER_EN || CapSense_1_REGULAR_RC_MEDIAN_FILTER_EN || CapSense_1_PR
1832:Generated_Source\PSoC4/CapSense_1_Filter.c **** 
1833:Generated_Source\PSoC4/CapSense_1_Filter.c **** 
1834:Generated_Source\PSoC4/CapSense_1_Filter.c **** /*******************************************************************************
1835:Generated_Source\PSoC4/CapSense_1_Filter.c **** * Function Name: CapSense_1_FtIIR1stOrder
1836:Generated_Source\PSoC4/CapSense_1_Filter.c **** ****************************************************************************//**
1837:Generated_Source\PSoC4/CapSense_1_Filter.c **** *
1838:Generated_Source\PSoC4/CapSense_1_Filter.c **** * \brief
1839:Generated_Source\PSoC4/CapSense_1_Filter.c **** *  Return the filtered data by the IIR 1-st order algorithm
1840:Generated_Source\PSoC4/CapSense_1_Filter.c **** *
1841:Generated_Source\PSoC4/CapSense_1_Filter.c **** * \details
1842:Generated_Source\PSoC4/CapSense_1_Filter.c **** *  Return the filtered data by the IIR 1-st order algorithm
1843:Generated_Source\PSoC4/CapSense_1_Filter.c **** *
1844:Generated_Source\PSoC4/CapSense_1_Filter.c **** * \param input
1845:Generated_Source\PSoC4/CapSense_1_Filter.c **** *  The data to be filtered.
1846:Generated_Source\PSoC4/CapSense_1_Filter.c **** *
1847:Generated_Source\PSoC4/CapSense_1_Filter.c **** * \param prevOutput
1848:Generated_Source\PSoC4/CapSense_1_Filter.c **** *  The previous filtered data.
1849:Generated_Source\PSoC4/CapSense_1_Filter.c **** *
1850:Generated_Source\PSoC4/CapSense_1_Filter.c **** * \param n
1851:Generated_Source\PSoC4/CapSense_1_Filter.c **** *  The IIR filter coefficient (n/256).
1852:Generated_Source\PSoC4/CapSense_1_Filter.c **** *
1853:Generated_Source\PSoC4/CapSense_1_Filter.c **** * \param shift
1854:Generated_Source\PSoC4/CapSense_1_Filter.c **** *  The parameter is used to shift input data to have free LSB
1855:Generated_Source\PSoC4/CapSense_1_Filter.c **** *  bits for a fraction storage of the filter output calculation.
1856:Generated_Source\PSoC4/CapSense_1_Filter.c **** *
1857:Generated_Source\PSoC4/CapSense_1_Filter.c **** * \return
1858:Generated_Source\PSoC4/CapSense_1_Filter.c **** *  Returns the filtered data.
1859:Generated_Source\PSoC4/CapSense_1_Filter.c **** *
1860:Generated_Source\PSoC4/CapSense_1_Filter.c **** *******************************************************************************/
1861:Generated_Source\PSoC4/CapSense_1_Filter.c **** uint32 CapSense_1_FtIIR1stOrder(uint32 input, uint32 prevOutput, uint32 n, uint32 shift)
1862:Generated_Source\PSoC4/CapSense_1_Filter.c **** {
 1317              		.loc 1 1862 0
 1318              		.cfi_startproc
 1319              		@ args = 0, pretend = 0, frame = 0
 1320              		@ frame_needed = 0, uses_anonymous_args = 0
 1321              		@ link register save eliminated.
 1322              	.LVL189:
1863:Generated_Source\PSoC4/CapSense_1_Filter.c ****     uint32 filteredOutput;
1864:Generated_Source\PSoC4/CapSense_1_Filter.c **** 
1865:Generated_Source\PSoC4/CapSense_1_Filter.c ****     /*
1866:Generated_Source\PSoC4/CapSense_1_Filter.c ****     * n - IIR filter coefficient (n/256)
1867:Generated_Source\PSoC4/CapSense_1_Filter.c ****     * shift - Used to shift input data to have free LSB bits
ARM GAS  C:\Users\Mayur\AppData\Local\Temp\ccxZLytu.s 			page 59


1868:Generated_Source\PSoC4/CapSense_1_Filter.c ****     * for fraction storage of filter output calculation
1869:Generated_Source\PSoC4/CapSense_1_Filter.c ****     */
1870:Generated_Source\PSoC4/CapSense_1_Filter.c ****     filteredOutput = ((n * (input << shift)) + ((CapSense_1_IIR_COEFFICIENT_K - n) * prevOutput)) >
 1323              		.loc 1 1870 0
 1324 0000 9840     		lsls	r0, r0, r3
 1325              	.LVL190:
 1326 0002 5043     		muls	r0, r2
 1327 0004 8023     		movs	r3, #128
 1328              	.LVL191:
 1329 0006 5B00     		lsls	r3, r3, #1
 1330 0008 9A1A     		subs	r2, r3, r2
 1331              	.LVL192:
 1332 000a 5143     		muls	r1, r2
 1333              	.LVL193:
 1334 000c 4018     		adds	r0, r0, r1
 1335 000e 000A     		lsrs	r0, r0, #8
 1336              	.LVL194:
1871:Generated_Source\PSoC4/CapSense_1_Filter.c **** 
1872:Generated_Source\PSoC4/CapSense_1_Filter.c ****     /* Shift operation of output will be done in upper level API if needed */
1873:Generated_Source\PSoC4/CapSense_1_Filter.c ****     return filteredOutput;
1874:Generated_Source\PSoC4/CapSense_1_Filter.c **** }
 1337              		.loc 1 1874 0
 1338              		@ sp needed
 1339 0010 7047     		bx	lr
 1340              		.cfi_endproc
 1341              	.LFE29:
 1342              		.size	CapSense_1_FtIIR1stOrder, .-CapSense_1_FtIIR1stOrder
 1343 0012 C046     		.section	.text.CapSense_1_FtUpdateBaseline,"ax",%progbits
 1344              		.align	2
 1345              		.global	CapSense_1_FtUpdateBaseline
 1346              		.code	16
 1347              		.thumb_func
 1348              		.type	CapSense_1_FtUpdateBaseline, %function
 1349              	CapSense_1_FtUpdateBaseline:
 1350              	.LFB4:
 259:Generated_Source\PSoC4/CapSense_1_Filter.c ****     uint32 sign;
 1351              		.loc 1 259 0
 1352              		.cfi_startproc
 1353              		@ args = 0, pretend = 0, frame = 8
 1354              		@ frame_needed = 0, uses_anonymous_args = 0
 1355              	.LVL195:
 1356 0000 F0B5     		push	{r4, r5, r6, r7, lr}
 1357              		.cfi_def_cfa_offset 20
 1358              		.cfi_offset 4, -20
 1359              		.cfi_offset 5, -16
 1360              		.cfi_offset 6, -12
 1361              		.cfi_offset 7, -8
 1362              		.cfi_offset 14, -4
 1363 0002 4746     		mov	r7, r8
 1364 0004 80B4     		push	{r7}
 1365              		.cfi_def_cfa_offset 24
 1366              		.cfi_offset 8, -24
 1367 0006 82B0     		sub	sp, sp, #8
 1368              		.cfi_def_cfa_offset 32
 1369 0008 0700     		movs	r7, r0
 1370 000a 0E00     		movs	r6, r1
 1371 000c 0192     		str	r2, [sp, #4]
ARM GAS  C:\Users\Mayur\AppData\Local\Temp\ccxZLytu.s 			page 60


 1372              	.LVL196:
 271:Generated_Source\PSoC4/CapSense_1_Filter.c ****     {
 1373              		.loc 1 271 0
 1374 000e 0123     		movs	r3, #1
 1375 0010 3EE0     		b	.L81
 1376              	.LVL197:
 1377              	.L88:
 283:Generated_Source\PSoC4/CapSense_1_Filter.c ****         {
 1378              		.loc 1 283 0
 1379 0012 6300     		lsls	r3, r4, #1
 1380 0014 985B     		ldrh	r0, [r3, r6]
 1381 0016 F318     		adds	r3, r6, r3
 1382 0018 5988     		ldrh	r1, [r3, #2]
 1383 001a 8842     		cmp	r0, r1
 1384 001c 05D3     		bcc	.L82
 285:Generated_Source\PSoC4/CapSense_1_Filter.c ****             sign = 1u;
 1385              		.loc 1 285 0
 1386 001e 431A     		subs	r3, r0, r1
 1387              	.LVL198:
 287:Generated_Source\PSoC4/CapSense_1_Filter.c ****         }
 1388              		.loc 1 287 0
 1389 0020 3219     		adds	r2, r6, r4
 1390 0022 0025     		movs	r5, #0
 1391 0024 1572     		strb	r5, [r2, #8]
 286:Generated_Source\PSoC4/CapSense_1_Filter.c ****             ptrSensor->negBslnRstCnt[freqChannel] = 0u;
 1392              		.loc 1 286 0
 1393 0026 0122     		movs	r2, #1
 1394 0028 01E0     		b	.L83
 1395              	.LVL199:
 1396              	.L82:
 291:Generated_Source\PSoC4/CapSense_1_Filter.c ****             sign = 0u;
 1397              		.loc 1 291 0
 1398 002a 0B1A     		subs	r3, r1, r0
 1399              	.LVL200:
 292:Generated_Source\PSoC4/CapSense_1_Filter.c ****         }
 1400              		.loc 1 292 0
 1401 002c 0022     		movs	r2, #0
 1402              	.LVL201:
 1403              	.L83:
 296:Generated_Source\PSoC4/CapSense_1_Filter.c ****         {
 1404              		.loc 1 296 0
 1405 002e 002A     		cmp	r2, #0
 1406 0030 11D1     		bne	.L84
 296:Generated_Source\PSoC4/CapSense_1_Filter.c ****         {
 1407              		.loc 1 296 0 is_stmt 0 discriminator 1
 1408 0032 7D79     		ldrb	r5, [r7, #5]
 1409 0034 AB42     		cmp	r3, r5
 1410 0036 0ED9     		bls	.L84
 298:Generated_Source\PSoC4/CapSense_1_Filter.c ****             {
 1411              		.loc 1 298 0 is_stmt 1
 1412 0038 3319     		adds	r3, r6, r4
 1413              	.LVL202:
 1414 003a 1B7A     		ldrb	r3, [r3, #8]
 1415 003c 3A7A     		ldrb	r2, [r7, #8]
 1416              	.LVL203:
 1417 003e 9342     		cmp	r3, r2
 1418 0040 05D3     		bcc	.L85
ARM GAS  C:\Users\Mayur\AppData\Local\Temp\ccxZLytu.s 			page 61


 300:Generated_Source\PSoC4/CapSense_1_Filter.c ****             }
 1419              		.loc 1 300 0
 1420 0042 2200     		movs	r2, r4
 1421 0044 0199     		ldr	r1, [sp, #4]
 1422 0046 3000     		movs	r0, r6
 1423 0048 FFF7FEFF 		bl	CapSense_1_FtInitializeBaselineChannel
 1424              	.LVL204:
 1425 004c 1FE0     		b	.L86
 1426              	.L85:
 304:Generated_Source\PSoC4/CapSense_1_Filter.c ****             }
 1427              		.loc 1 304 0
 1428 004e 3219     		adds	r2, r6, r4
 1429 0050 0133     		adds	r3, r3, #1
 1430 0052 1372     		strb	r3, [r2, #8]
 1431 0054 1BE0     		b	.L86
 1432              	.LVL205:
 1433              	.L84:
 311:Generated_Source\PSoC4/CapSense_1_Filter.c ****                     ((difference < (uint32) ptrWidgetRam->nNoiseTh) && (sign == 0u)))
 1434              		.loc 1 311 0
 1435 0056 3D79     		ldrb	r5, [r7, #4]
 1436 0058 AB42     		cmp	r3, r5
 1437 005a 04D9     		bls	.L87
 312:Generated_Source\PSoC4/CapSense_1_Filter.c ****                 {
 1438              		.loc 1 312 0 discriminator 1
 1439 005c 7D79     		ldrb	r5, [r7, #5]
 311:Generated_Source\PSoC4/CapSense_1_Filter.c ****                     ((difference < (uint32) ptrWidgetRam->nNoiseTh) && (sign == 0u)))
 1440              		.loc 1 311 0 discriminator 1
 1441 005e AB42     		cmp	r3, r5
 1442 0060 15D2     		bcs	.L86
 312:Generated_Source\PSoC4/CapSense_1_Filter.c ****                 {
 1443              		.loc 1 312 0
 1444 0062 002A     		cmp	r2, #0
 1445 0064 13D1     		bne	.L86
 1446              	.L87:
 318:Generated_Source\PSoC4/CapSense_1_Filter.c ****                 {
 1447              		.loc 1 318 0
 1448 0066 FF23     		movs	r3, #255
 1449              	.LVL206:
 1450 0068 019A     		ldr	r2, [sp, #4]
 1451              	.LVL207:
 1452 006a 1340     		ands	r3, r2
 1453 006c 062B     		cmp	r3, #6
 1454 006e 0ED0     		beq	.L86
 322:Generated_Source\PSoC4/CapSense_1_Filter.c ****                             history |= ptrSensor->bslnExt[freqChannel];
 1455              		.loc 1 322 0
 1456 0070 0902     		lsls	r1, r1, #8
 1457              	.LVL208:
 323:Generated_Source\PSoC4/CapSense_1_Filter.c ****                         #else
 1458              		.loc 1 323 0
 1459 0072 3319     		adds	r3, r6, r4
 1460 0074 9846     		mov	r8, r3
 1461 0076 1B79     		ldrb	r3, [r3, #4]
 1462 0078 1943     		orrs	r1, r3
 1463              	.LVL209:
 334:Generated_Source\PSoC4/CapSense_1_Filter.c ****                                         (uint32)ptrSensor->raw[freqChannel],
 1464              		.loc 1 334 0
 1465 007a 0823     		movs	r3, #8
ARM GAS  C:\Users\Mayur\AppData\Local\Temp\ccxZLytu.s 			page 62


 1466 007c 0122     		movs	r2, #1
 1467 007e FFF7FEFF 		bl	CapSense_1_FtIIR1stOrder
 1468              	.LVL210:
 340:Generated_Source\PSoC4/CapSense_1_Filter.c ****                             ptrSensor->bslnExt[freqChannel] = LO8(history);
 1469              		.loc 1 340 0
 1470 0082 020A     		lsrs	r2, r0, #8
 1471 0084 6300     		lsls	r3, r4, #1
 1472 0086 F318     		adds	r3, r6, r3
 1473 0088 5A80     		strh	r2, [r3, #2]
 341:Generated_Source\PSoC4/CapSense_1_Filter.c ****                         #else
 1474              		.loc 1 341 0
 1475 008a 4346     		mov	r3, r8
 1476 008c 1871     		strb	r0, [r3, #4]
 1477              	.LVL211:
 1478              	.L86:
 1479 008e 2300     		movs	r3, r4
 1480              	.LVL212:
 1481              	.L81:
 271:Generated_Source\PSoC4/CapSense_1_Filter.c ****     {
 1482              		.loc 1 271 0 discriminator 1
 1483 0090 5C1E     		subs	r4, r3, #1
 1484              	.LVL213:
 1485 0092 002B     		cmp	r3, #0
 1486 0094 BDD1     		bne	.L88
 398:Generated_Source\PSoC4/CapSense_1_Filter.c **** 
 1487              		.loc 1 398 0
 1488 0096 0020     		movs	r0, #0
 1489 0098 02B0     		add	sp, sp, #8
 1490              		@ sp needed
 1491              	.LVL214:
 1492              	.LVL215:
 1493              	.LVL216:
 1494 009a 04BC     		pop	{r2}
 1495 009c 9046     		mov	r8, r2
 1496 009e F0BD     		pop	{r4, r5, r6, r7, pc}
 1497              		.cfi_endproc
 1498              	.LFE4:
 1499              		.size	CapSense_1_FtUpdateBaseline, .-CapSense_1_FtUpdateBaseline
 1500              		.section	.text.CapSense_1_UpdateSensorBaseline,"ax",%progbits
 1501              		.align	2
 1502              		.global	CapSense_1_UpdateSensorBaseline
 1503              		.code	16
 1504              		.thumb_func
 1505              		.type	CapSense_1_UpdateSensorBaseline, %function
 1506              	CapSense_1_UpdateSensorBaseline:
 1507              	.LFB3:
 201:Generated_Source\PSoC4/CapSense_1_Filter.c ****     uint32 result = CYRET_SUCCESS;
 1508              		.loc 1 201 0
 1509              		.cfi_startproc
 1510              		@ args = 0, pretend = 0, frame = 0
 1511              		@ frame_needed = 0, uses_anonymous_args = 0
 1512              	.LVL217:
 1513 0000 10B5     		push	{r4, lr}
 1514              		.cfi_def_cfa_offset 8
 1515              		.cfi_offset 4, -8
 1516              		.cfi_offset 14, -4
 1517              	.LVL218:
ARM GAS  C:\Users\Mayur\AppData\Local\Temp\ccxZLytu.s 			page 63


 206:Generated_Source\PSoC4/CapSense_1_Filter.c **** 
 1518              		.loc 1 206 0
 1519 0002 4001     		lsls	r0, r0, #5
 1520              	.LVL219:
 1521 0004 064B     		ldr	r3, .L90
 1522 0006 1B18     		adds	r3, r3, r0
 1523              	.LVL220:
 1524 0008 5868     		ldr	r0, [r3, #4]
 1525              	.LVL221:
 210:Generated_Source\PSoC4/CapSense_1_Filter.c ****     result = CapSense_1_FtUpdateBaseline(ptrWidgetRam, ptrSensor, (uint32)ptrWidget->wdgtType);
 1526              		.loc 1 210 0
 1527 000a 8A00     		lsls	r2, r1, #2
 1528 000c 5218     		adds	r2, r2, r1
 1529 000e 5100     		lsls	r1, r2, #1
 1530              	.LVL222:
 1531 0010 9A68     		ldr	r2, [r3, #8]
 1532 0012 9446     		mov	ip, r2
 1533 0014 6144     		add	r1, r1, ip
 1534              	.LVL223:
 211:Generated_Source\PSoC4/CapSense_1_Filter.c **** 
 1535              		.loc 1 211 0
 1536 0016 9A7E     		ldrb	r2, [r3, #26]
 1537 0018 FFF7FEFF 		bl	CapSense_1_FtUpdateBaseline
 1538              	.LVL224:
 222:Generated_Source\PSoC4/CapSense_1_Filter.c **** 
 1539              		.loc 1 222 0
 1540              		@ sp needed
 1541 001c 10BD     		pop	{r4, pc}
 1542              	.L91:
 1543 001e C046     		.align	2
 1544              	.L90:
 1545 0020 00000000 		.word	CapSense_1_dsFlash
 1546              		.cfi_endproc
 1547              	.LFE3:
 1548              		.size	CapSense_1_UpdateSensorBaseline, .-CapSense_1_UpdateSensorBaseline
 1549              		.section	.text.CapSense_1_UpdateWidgetBaseline,"ax",%progbits
 1550              		.align	2
 1551              		.global	CapSense_1_UpdateWidgetBaseline
 1552              		.code	16
 1553              		.thumb_func
 1554              		.type	CapSense_1_UpdateWidgetBaseline, %function
 1555              	CapSense_1_UpdateWidgetBaseline:
 1556              	.LFB2:
 144:Generated_Source\PSoC4/CapSense_1_Filter.c ****     uint32 sensorId;
 1557              		.loc 1 144 0
 1558              		.cfi_startproc
 1559              		@ args = 0, pretend = 0, frame = 0
 1560              		@ frame_needed = 0, uses_anonymous_args = 0
 1561              	.LVL225:
 1562 0000 70B5     		push	{r4, r5, r6, lr}
 1563              		.cfi_def_cfa_offset 16
 1564              		.cfi_offset 4, -16
 1565              		.cfi_offset 5, -12
 1566              		.cfi_offset 6, -8
 1567              		.cfi_offset 14, -4
 1568 0002 0600     		movs	r6, r0
 1569              	.LVL226:
ARM GAS  C:\Users\Mayur\AppData\Local\Temp\ccxZLytu.s 			page 64


 152:Generated_Source\PSoC4/CapSense_1_Filter.c **** 
 1570              		.loc 1 152 0
 1571 0004 4301     		lsls	r3, r0, #5
 1572 0006 084A     		ldr	r2, .L95
 1573 0008 D318     		adds	r3, r2, r3
 1574              	.LVL227:
 1575 000a 1B8B     		ldrh	r3, [r3, #24]
 1576              	.LVL228:
 149:Generated_Source\PSoC4/CapSense_1_Filter.c **** 
 1577              		.loc 1 149 0
 1578 000c 0025     		movs	r5, #0
 154:Generated_Source\PSoC4/CapSense_1_Filter.c ****     {
 1579              		.loc 1 154 0
 1580 000e 05E0     		b	.L93
 1581              	.LVL229:
 1582              	.L94:
 156:Generated_Source\PSoC4/CapSense_1_Filter.c ****     }
 1583              		.loc 1 156 0
 1584 0010 2100     		movs	r1, r4
 1585 0012 3000     		movs	r0, r6
 1586 0014 FFF7FEFF 		bl	CapSense_1_UpdateSensorBaseline
 1587              	.LVL230:
 1588 0018 0543     		orrs	r5, r0
 1589              	.LVL231:
 154:Generated_Source\PSoC4/CapSense_1_Filter.c ****     {
 1590              		.loc 1 154 0
 1591 001a 2300     		movs	r3, r4
 1592              	.LVL232:
 1593              	.L93:
 154:Generated_Source\PSoC4/CapSense_1_Filter.c ****     {
 1594              		.loc 1 154 0 is_stmt 0 discriminator 1
 1595 001c 5C1E     		subs	r4, r3, #1
 1596              	.LVL233:
 1597 001e 002B     		cmp	r3, #0
 1598 0020 F6D1     		bne	.L94
 160:Generated_Source\PSoC4/CapSense_1_Filter.c **** 
 1599              		.loc 1 160 0 is_stmt 1
 1600 0022 2800     		movs	r0, r5
 1601              		@ sp needed
 1602              	.LVL234:
 1603              	.LVL235:
 1604              	.LVL236:
 1605 0024 70BD     		pop	{r4, r5, r6, pc}
 1606              	.L96:
 1607 0026 C046     		.align	2
 1608              	.L95:
 1609 0028 00000000 		.word	CapSense_1_dsFlash
 1610              		.cfi_endproc
 1611              	.LFE2:
 1612              		.size	CapSense_1_UpdateWidgetBaseline, .-CapSense_1_UpdateWidgetBaseline
 1613              		.section	.text.CapSense_1_UpdateAllBaselines,"ax",%progbits
 1614              		.align	2
 1615              		.global	CapSense_1_UpdateAllBaselines
 1616              		.code	16
 1617              		.thumb_func
 1618              		.type	CapSense_1_UpdateAllBaselines, %function
 1619              	CapSense_1_UpdateAllBaselines:
ARM GAS  C:\Users\Mayur\AppData\Local\Temp\ccxZLytu.s 			page 65


 1620              	.LFB1:
  98:Generated_Source\PSoC4/CapSense_1_Filter.c ****     uint32 widgetId;
 1621              		.loc 1 98 0
 1622              		.cfi_startproc
 1623              		@ args = 0, pretend = 0, frame = 0
 1624              		@ frame_needed = 0, uses_anonymous_args = 0
 1625 0000 70B5     		push	{r4, r5, r6, lr}
 1626              		.cfi_def_cfa_offset 16
 1627              		.cfi_offset 4, -16
 1628              		.cfi_offset 5, -12
 1629              		.cfi_offset 6, -8
 1630              		.cfi_offset 14, -4
 1631              	.LVL237:
 100:Generated_Source\PSoC4/CapSense_1_Filter.c **** 
 1632              		.loc 1 100 0
 1633 0002 0025     		movs	r5, #0
 102:Generated_Source\PSoC4/CapSense_1_Filter.c ****     {
 1634              		.loc 1 102 0
 1635 0004 0823     		movs	r3, #8
 1636 0006 04E0     		b	.L98
 1637              	.LVL238:
 1638              	.L99:
 104:Generated_Source\PSoC4/CapSense_1_Filter.c ****     }
 1639              		.loc 1 104 0
 1640 0008 2000     		movs	r0, r4
 1641 000a FFF7FEFF 		bl	CapSense_1_UpdateWidgetBaseline
 1642              	.LVL239:
 1643 000e 0543     		orrs	r5, r0
 1644              	.LVL240:
 102:Generated_Source\PSoC4/CapSense_1_Filter.c ****     {
 1645              		.loc 1 102 0
 1646 0010 2300     		movs	r3, r4
 1647              	.LVL241:
 1648              	.L98:
 102:Generated_Source\PSoC4/CapSense_1_Filter.c ****     {
 1649              		.loc 1 102 0 is_stmt 0 discriminator 1
 1650 0012 5C1E     		subs	r4, r3, #1
 1651              	.LVL242:
 1652 0014 002B     		cmp	r3, #0
 1653 0016 F7D1     		bne	.L99
 108:Generated_Source\PSoC4/CapSense_1_Filter.c **** 
 1654              		.loc 1 108 0 is_stmt 1
 1655 0018 2800     		movs	r0, r5
 1656              		@ sp needed
 1657              	.LVL243:
 1658              	.LVL244:
 1659 001a 70BD     		pop	{r4, r5, r6, pc}
 1660              		.cfi_endproc
 1661              	.LFE1:
 1662              		.size	CapSense_1_UpdateAllBaselines, .-CapSense_1_UpdateAllBaselines
 1663              		.section	.text.CapSense_1_RunIIRInternal,"ax",%progbits
 1664              		.align	2
 1665              		.global	CapSense_1_RunIIRInternal
 1666              		.code	16
 1667              		.thumb_func
 1668              		.type	CapSense_1_RunIIRInternal, %function
 1669              	CapSense_1_RunIIRInternal:
ARM GAS  C:\Users\Mayur\AppData\Local\Temp\ccxZLytu.s 			page 66


 1670              	.LFB15:
 905:Generated_Source\PSoC4/CapSense_1_Filter.c ****     uint32 freqChannel;
 1671              		.loc 1 905 0
 1672              		.cfi_startproc
 1673              		@ args = 0, pretend = 0, frame = 0
 1674              		@ frame_needed = 0, uses_anonymous_args = 0
 1675              	.LVL245:
 1676 0000 F0B5     		push	{r4, r5, r6, r7, lr}
 1677              		.cfi_def_cfa_offset 20
 1678              		.cfi_offset 4, -20
 1679              		.cfi_offset 5, -16
 1680              		.cfi_offset 6, -12
 1681              		.cfi_offset 7, -8
 1682              		.cfi_offset 14, -4
 1683 0002 4746     		mov	r7, r8
 1684 0004 80B4     		push	{r7}
 1685              		.cfi_def_cfa_offset 24
 1686              		.cfi_offset 8, -24
 1687 0006 0700     		movs	r7, r0
 1688 0008 0E00     		movs	r6, r1
 1689 000a 9046     		mov	r8, r2
 1690              	.LVL246:
 909:Generated_Source\PSoC4/CapSense_1_Filter.c ****     {
 1691              		.loc 1 909 0
 1692 000c 0123     		movs	r3, #1
 1693 000e 13E0     		b	.L101
 1694              	.LVL247:
 1695              	.L103:
 911:Generated_Source\PSoC4/CapSense_1_Filter.c ****         {
 1696              		.loc 1 911 0
 1697 0010 FF23     		movs	r3, #255
 1698 0012 4246     		mov	r2, r8
 1699 0014 1340     		ands	r3, r2
 1700 0016 062B     		cmp	r3, #6
 1701 0018 0DD0     		beq	.L102
 1702              	.LVL248:
 925:Generated_Source\PSoC4/CapSense_1_Filter.c ****                                                         (uint32)ptrFilterHistObj.ptrRegular->regula
 1703              		.loc 1 925 0
 1704 001a 6500     		lsls	r5, r4, #1
 1705 001c A85B     		ldrh	r0, [r5, r6]
 1706              	.LVL249:
 926:Generated_Source\PSoC4/CapSense_1_Filter.c ****                                                         CapSense_1_REGULAR_IIR_RC_N,
 1707              		.loc 1 926 0
 1708 001e 2A19     		adds	r2, r5, r4
 1709              	.LVL250:
 1710 0020 9300     		lsls	r3, r2, #2
 1711 0022 D95B     		ldrh	r1, [r3, r7]
 925:Generated_Source\PSoC4/CapSense_1_Filter.c ****                                                         (uint32)ptrFilterHistObj.ptrRegular->regula
 1712              		.loc 1 925 0
 1713 0024 0023     		movs	r3, #0
 1714 0026 8022     		movs	r2, #128
 1715 0028 FFF7FEFF 		bl	CapSense_1_FtIIR1stOrder
 1716              	.LVL251:
 929:Generated_Source\PSoC4/CapSense_1_Filter.c ****                     ptrSensorObj->raw[freqChannel] = LO16(temp >>CapSense_1_REGULAR_IIR_RC_SHIFT);
 1717              		.loc 1 929 0
 1718 002c 80B2     		uxth	r0, r0
 1719              	.LVL252:
ARM GAS  C:\Users\Mayur\AppData\Local\Temp\ccxZLytu.s 			page 67


 1720 002e 2A19     		adds	r2, r5, r4
 1721 0030 9300     		lsls	r3, r2, #2
 1722 0032 D853     		strh	r0, [r3, r7]
 930:Generated_Source\PSoC4/CapSense_1_Filter.c ****                 #endif /* (CapSense_1_REGULAR_IIR_RC_TYPE == CapSense_1_IIR_FILTER_PERFORMANCE) */
 1723              		.loc 1 930 0
 1724 0034 A853     		strh	r0, [r5, r6]
 1725              	.L102:
 905:Generated_Source\PSoC4/CapSense_1_Filter.c ****     uint32 freqChannel;
 1726              		.loc 1 905 0 discriminator 1
 1727 0036 2300     		movs	r3, r4
 1728              	.LVL253:
 1729              	.L101:
 909:Generated_Source\PSoC4/CapSense_1_Filter.c ****     {
 1730              		.loc 1 909 0 discriminator 1
 1731 0038 5C1E     		subs	r4, r3, #1
 1732              	.LVL254:
 1733 003a 002B     		cmp	r3, #0
 1734 003c E8D1     		bne	.L103
 958:Generated_Source\PSoC4/CapSense_1_Filter.c **** #endif /* #if (CapSense_1_REGULAR_RC_IIR_FILTER_EN || CapSense_1_PROX_RC_IIR_FILTER_EN) */
 1735              		.loc 1 958 0
 1736              		@ sp needed
 1737              	.LVL255:
 1738              	.LVL256:
 1739              	.LVL257:
 1740 003e 04BC     		pop	{r2}
 1741 0040 9046     		mov	r8, r2
 1742 0042 F0BD     		pop	{r4, r5, r6, r7, pc}
 1743              		.cfi_endproc
 1744              	.LFE15:
 1745              		.size	CapSense_1_RunIIRInternal, .-CapSense_1_RunIIRInternal
 1746              		.section	.text.CapSense_1_RunIIR,"ax",%progbits
 1747              		.align	2
 1748              		.global	CapSense_1_RunIIR
 1749              		.code	16
 1750              		.thumb_func
 1751              		.type	CapSense_1_RunIIR, %function
 1752              	CapSense_1_RunIIR:
 1753              	.LFB13:
 802:Generated_Source\PSoC4/CapSense_1_Filter.c ****     CapSense_1_FLASH_WD_STRUCT const *ptrWidget = &CapSense_1_dsFlash.wdgtArray[widgetId];
 1754              		.loc 1 802 0
 1755              		.cfi_startproc
 1756              		@ args = 0, pretend = 0, frame = 0
 1757              		@ frame_needed = 0, uses_anonymous_args = 0
 1758              	.LVL258:
 1759 0000 70B5     		push	{r4, r5, r6, lr}
 1760              		.cfi_def_cfa_offset 16
 1761              		.cfi_offset 4, -16
 1762              		.cfi_offset 5, -12
 1763              		.cfi_offset 6, -8
 1764              		.cfi_offset 14, -4
 1765 0002 0C00     		movs	r4, r1
 1766              	.LVL259:
 808:Generated_Source\PSoC4/CapSense_1_Filter.c ****     ptrSensor = &ptrSensor[sensorId];
 1767              		.loc 1 808 0
 1768 0004 4001     		lsls	r0, r0, #5
 1769              	.LVL260:
 1770 0006 0A4B     		ldr	r3, .L106
ARM GAS  C:\Users\Mayur\AppData\Local\Temp\ccxZLytu.s 			page 68


 1771 0008 1B18     		adds	r3, r3, r0
 1772              	.LVL261:
 809:Generated_Source\PSoC4/CapSense_1_Filter.c **** 
 1773              		.loc 1 809 0
 1774 000a 8A00     		lsls	r2, r1, #2
 1775 000c 5218     		adds	r2, r2, r1
 1776 000e 5100     		lsls	r1, r2, #1
 1777              	.LVL262:
 1778 0010 9A68     		ldr	r2, [r3, #8]
 1779 0012 9446     		mov	ip, r2
 1780 0014 6144     		add	r1, r1, ip
 1781              	.LVL263:
 812:Generated_Source\PSoC4/CapSense_1_Filter.c **** 
 1782              		.loc 1 812 0
 1783 0016 DD68     		ldr	r5, [r3, #12]
 1784 0018 2800     		movs	r0, r5
 1785              	.LVL264:
 814:Generated_Source\PSoC4/CapSense_1_Filter.c ****     {
 1786              		.loc 1 814 0
 1787 001a 9A7E     		ldrb	r2, [r3, #26]
 1788 001c 062A     		cmp	r2, #6
 1789 001e 03D0     		beq	.L105
 817:Generated_Source\PSoC4/CapSense_1_Filter.c ****         #endif /* (CapSense_1_REGULAR_SENSOR_EN) */
 1790              		.loc 1 817 0
 1791 0020 6300     		lsls	r3, r4, #1
 1792              	.LVL265:
 1793 0022 1C19     		adds	r4, r3, r4
 1794              	.LVL266:
 1795 0024 A000     		lsls	r0, r4, #2
 1796 0026 2818     		adds	r0, r5, r0
 1797              	.L105:
 827:Generated_Source\PSoC4/CapSense_1_Filter.c **** }
 1798              		.loc 1 827 0
 1799 0028 FFF7FEFF 		bl	CapSense_1_RunIIRInternal
 1800              	.LVL267:
 828:Generated_Source\PSoC4/CapSense_1_Filter.c **** 
 1801              		.loc 1 828 0
 1802              		@ sp needed
 1803 002c 70BD     		pop	{r4, r5, r6, pc}
 1804              	.L107:
 1805 002e C046     		.align	2
 1806              	.L106:
 1807 0030 00000000 		.word	CapSense_1_dsFlash
 1808              		.cfi_endproc
 1809              	.LFE13:
 1810              		.size	CapSense_1_RunIIR, .-CapSense_1_RunIIR
 1811              		.section	.text.CapSense_1_FtRunEnabledFiltersInternal,"ax",%progbits
 1812              		.align	2
 1813              		.global	CapSense_1_FtRunEnabledFiltersInternal
 1814              		.code	16
 1815              		.thumb_func
 1816              		.type	CapSense_1_FtRunEnabledFiltersInternal, %function
 1817              	CapSense_1_FtRunEnabledFiltersInternal:
 1818              	.LFB25:
1697:Generated_Source\PSoC4/CapSense_1_Filter.c ****     #if (CapSense_1_REGULAR_RC_MEDIAN_FILTER_EN || CapSense_1_PROX_RC_MEDIAN_FILTER_EN)
 1819              		.loc 1 1697 0
 1820              		.cfi_startproc
ARM GAS  C:\Users\Mayur\AppData\Local\Temp\ccxZLytu.s 			page 69


 1821              		@ args = 0, pretend = 0, frame = 0
 1822              		@ frame_needed = 0, uses_anonymous_args = 0
 1823              	.LVL268:
 1824 0000 70B5     		push	{r4, r5, r6, lr}
 1825              		.cfi_def_cfa_offset 16
 1826              		.cfi_offset 4, -16
 1827              		.cfi_offset 5, -12
 1828              		.cfi_offset 6, -8
 1829              		.cfi_offset 14, -4
 1830 0002 0400     		movs	r4, r0
 1831 0004 0D00     		movs	r5, r1
 1832 0006 1600     		movs	r6, r2
1699:Generated_Source\PSoC4/CapSense_1_Filter.c ****     #endif /* (CapSense_1_REGULAR_RC_MEDIAN_FILTER_EN || CapSense_1_PROX_RC_MEDIAN_FILTER_EN) */
 1833              		.loc 1 1699 0
 1834 0008 FFF7FEFF 		bl	CapSense_1_RunMedianInternal
 1835              	.LVL269:
1703:Generated_Source\PSoC4/CapSense_1_Filter.c ****     #endif /* (CapSense_1_REGULAR_RC_IIR_FILTER_EN || CapSense_1_PROX_RC_IIR_FILTER_EN) */
 1836              		.loc 1 1703 0
 1837 000c 3200     		movs	r2, r6
 1838 000e 2900     		movs	r1, r5
 1839              	.LVL270:
 1840 0010 2000     		movs	r0, r4
 1841 0012 FFF7FEFF 		bl	CapSense_1_RunIIRInternal
 1842              	.LVL271:
1707:Generated_Source\PSoC4/CapSense_1_Filter.c ****     #endif /* (CapSense_1_REGULAR_RC_AVERAGE_FILTER_EN || CapSense_1_PROX_RC_AVERAGE_FILTER_EN) */
 1843              		.loc 1 1707 0
 1844 0016 3200     		movs	r2, r6
 1845 0018 2900     		movs	r1, r5
 1846 001a 2000     		movs	r0, r4
 1847 001c FFF7FEFF 		bl	CapSense_1_RunAverageInternal
 1848              	.LVL272:
1709:Generated_Source\PSoC4/CapSense_1_Filter.c **** #endif /* (CapSense_1_ENABLE == CapSense_1_RC_FILTER_EN) */
 1849              		.loc 1 1709 0
 1850              		@ sp needed
 1851              	.LVL273:
 1852              	.LVL274:
 1853              	.LVL275:
 1854 0020 70BD     		pop	{r4, r5, r6, pc}
 1855              		.cfi_endproc
 1856              	.LFE25:
 1857              		.size	CapSense_1_FtRunEnabledFiltersInternal, .-CapSense_1_FtRunEnabledFiltersInternal
 1858 0022 C046     		.section	.text.CapSense_1_FtRunEnabledFilters,"ax",%progbits
 1859              		.align	2
 1860              		.global	CapSense_1_FtRunEnabledFilters
 1861              		.code	16
 1862              		.thumb_func
 1863              		.type	CapSense_1_FtRunEnabledFilters, %function
 1864              	CapSense_1_FtRunEnabledFilters:
 1865              	.LFB24:
1639:Generated_Source\PSoC4/CapSense_1_Filter.c ****     CapSense_1_FLASH_WD_STRUCT const *ptrWidget = &CapSense_1_dsFlash.wdgtArray[widgetId];
 1866              		.loc 1 1639 0
 1867              		.cfi_startproc
 1868              		@ args = 0, pretend = 0, frame = 0
 1869              		@ frame_needed = 0, uses_anonymous_args = 0
 1870              	.LVL276:
 1871 0000 70B5     		push	{r4, r5, r6, lr}
 1872              		.cfi_def_cfa_offset 16
ARM GAS  C:\Users\Mayur\AppData\Local\Temp\ccxZLytu.s 			page 70


 1873              		.cfi_offset 4, -16
 1874              		.cfi_offset 5, -12
 1875              		.cfi_offset 6, -8
 1876              		.cfi_offset 14, -4
 1877 0002 0C00     		movs	r4, r1
 1878              	.LVL277:
1645:Generated_Source\PSoC4/CapSense_1_Filter.c ****     ptrSensor = &ptrSensor[sensorId];
 1879              		.loc 1 1645 0
 1880 0004 4001     		lsls	r0, r0, #5
 1881              	.LVL278:
 1882 0006 0A4B     		ldr	r3, .L111
 1883 0008 1B18     		adds	r3, r3, r0
 1884              	.LVL279:
1646:Generated_Source\PSoC4/CapSense_1_Filter.c **** 
 1885              		.loc 1 1646 0
 1886 000a 8A00     		lsls	r2, r1, #2
 1887 000c 5218     		adds	r2, r2, r1
 1888 000e 5100     		lsls	r1, r2, #1
 1889              	.LVL280:
 1890 0010 9A68     		ldr	r2, [r3, #8]
 1891 0012 9446     		mov	ip, r2
 1892 0014 6144     		add	r1, r1, ip
 1893              	.LVL281:
1649:Generated_Source\PSoC4/CapSense_1_Filter.c **** 
 1894              		.loc 1 1649 0
 1895 0016 DD68     		ldr	r5, [r3, #12]
 1896 0018 2800     		movs	r0, r5
 1897              	.LVL282:
1651:Generated_Source\PSoC4/CapSense_1_Filter.c ****     {
 1898              		.loc 1 1651 0
 1899 001a 9A7E     		ldrb	r2, [r3, #26]
 1900 001c 062A     		cmp	r2, #6
 1901 001e 03D0     		beq	.L110
1656:Generated_Source\PSoC4/CapSense_1_Filter.c ****         #endif
 1902              		.loc 1 1656 0
 1903 0020 6300     		lsls	r3, r4, #1
 1904              	.LVL283:
 1905 0022 1C19     		adds	r4, r3, r4
 1906              	.LVL284:
 1907 0024 A000     		lsls	r0, r4, #2
 1908 0026 2818     		adds	r0, r5, r0
 1909              	.L110:
1668:Generated_Source\PSoC4/CapSense_1_Filter.c ****     #if (CapSense_1_ALP_FILTER_EN)
 1910              		.loc 1 1668 0
 1911 0028 FFF7FEFF 		bl	CapSense_1_FtRunEnabledFiltersInternal
 1912              	.LVL285:
1672:Generated_Source\PSoC4/CapSense_1_Filter.c **** 
 1913              		.loc 1 1672 0
 1914              		@ sp needed
 1915 002c 70BD     		pop	{r4, r5, r6, pc}
 1916              	.L112:
 1917 002e C046     		.align	2
 1918              	.L111:
 1919 0030 00000000 		.word	CapSense_1_dsFlash
 1920              		.cfi_endproc
 1921              	.LFE24:
 1922              		.size	CapSense_1_FtRunEnabledFilters, .-CapSense_1_FtRunEnabledFilters
ARM GAS  C:\Users\Mayur\AppData\Local\Temp\ccxZLytu.s 			page 71


 1923              		.text
 1924              	.Letext0:
 1925              		.file 2 "Generated_Source\\PSoC4\\cytypes.h"
 1926              		.file 3 "Generated_Source\\PSoC4\\CapSense_1_Configuration.h"
 1927              		.file 4 "Generated_Source\\PSoC4\\CapSense_1_SmartSense_LL.h"
 1928              		.file 5 "Generated_Source\\PSoC4\\CapSense_1_Structure.h"
 1929              		.section	.debug_info,"",%progbits
 1930              	.Ldebug_info0:
 1931 0000 7F110000 		.4byte	0x117f
 1932 0004 0400     		.2byte	0x4
 1933 0006 00000000 		.4byte	.Ldebug_abbrev0
 1934 000a 04       		.byte	0x4
 1935 000b 01       		.uleb128 0x1
 1936 000c 3F020000 		.4byte	.LASF136
 1937 0010 0C       		.byte	0xc
 1938 0011 25080000 		.4byte	.LASF137
 1939 0015 5F030000 		.4byte	.LASF138
 1940 0019 00000000 		.4byte	.Ldebug_ranges0+0
 1941 001d 00000000 		.4byte	0
 1942 0021 00000000 		.4byte	.Ldebug_line0
 1943 0025 02       		.uleb128 0x2
 1944 0026 01       		.byte	0x1
 1945 0027 06       		.byte	0x6
 1946 0028 90090000 		.4byte	.LASF0
 1947 002c 02       		.uleb128 0x2
 1948 002d 01       		.byte	0x1
 1949 002e 08       		.byte	0x8
 1950 002f 32090000 		.4byte	.LASF1
 1951 0033 02       		.uleb128 0x2
 1952 0034 02       		.byte	0x2
 1953 0035 05       		.byte	0x5
 1954 0036 6C070000 		.4byte	.LASF2
 1955 003a 02       		.uleb128 0x2
 1956 003b 02       		.byte	0x2
 1957 003c 07       		.byte	0x7
 1958 003d A1090000 		.4byte	.LASF3
 1959 0041 02       		.uleb128 0x2
 1960 0042 04       		.byte	0x4
 1961 0043 05       		.byte	0x5
 1962 0044 76070000 		.4byte	.LASF4
 1963 0048 02       		.uleb128 0x2
 1964 0049 04       		.byte	0x4
 1965 004a 07       		.byte	0x7
 1966 004b AE080000 		.4byte	.LASF5
 1967 004f 02       		.uleb128 0x2
 1968 0050 08       		.byte	0x8
 1969 0051 05       		.byte	0x5
 1970 0052 4B050000 		.4byte	.LASF6
 1971 0056 02       		.uleb128 0x2
 1972 0057 08       		.byte	0x8
 1973 0058 07       		.byte	0x7
 1974 0059 73010000 		.4byte	.LASF7
 1975 005d 03       		.uleb128 0x3
 1976 005e 04       		.byte	0x4
 1977 005f 05       		.byte	0x5
 1978 0060 696E7400 		.ascii	"int\000"
 1979 0064 02       		.uleb128 0x2
ARM GAS  C:\Users\Mayur\AppData\Local\Temp\ccxZLytu.s 			page 72


 1980 0065 04       		.byte	0x4
 1981 0066 07       		.byte	0x7
 1982 0067 83000000 		.4byte	.LASF8
 1983 006b 04       		.uleb128 0x4
 1984 006c C1090000 		.4byte	.LASF9
 1985 0070 02       		.byte	0x2
 1986 0071 E401     		.2byte	0x1e4
 1987 0073 2C000000 		.4byte	0x2c
 1988 0077 04       		.uleb128 0x4
 1989 0078 ED040000 		.4byte	.LASF10
 1990 007c 02       		.byte	0x2
 1991 007d E501     		.2byte	0x1e5
 1992 007f 3A000000 		.4byte	0x3a
 1993 0083 04       		.uleb128 0x4
 1994 0084 04060000 		.4byte	.LASF11
 1995 0088 02       		.byte	0x2
 1996 0089 E601     		.2byte	0x1e6
 1997 008b 48000000 		.4byte	0x48
 1998 008f 02       		.uleb128 0x2
 1999 0090 04       		.byte	0x4
 2000 0091 04       		.byte	0x4
 2001 0092 49010000 		.4byte	.LASF12
 2002 0096 02       		.uleb128 0x2
 2003 0097 08       		.byte	0x8
 2004 0098 04       		.byte	0x4
 2005 0099 C7090000 		.4byte	.LASF13
 2006 009d 02       		.uleb128 0x2
 2007 009e 01       		.byte	0x1
 2008 009f 08       		.byte	0x8
 2009 00a0 9E040000 		.4byte	.LASF14
 2010 00a4 04       		.uleb128 0x4
 2011 00a5 29090000 		.4byte	.LASF15
 2012 00a9 02       		.byte	0x2
 2013 00aa 8602     		.2byte	0x286
 2014 00ac 48000000 		.4byte	0x48
 2015 00b0 02       		.uleb128 0x2
 2016 00b1 08       		.byte	0x8
 2017 00b2 04       		.byte	0x4
 2018 00b3 C9060000 		.4byte	.LASF16
 2019 00b7 02       		.uleb128 0x2
 2020 00b8 04       		.byte	0x4
 2021 00b9 07       		.byte	0x7
 2022 00ba A5080000 		.4byte	.LASF17
 2023 00be 05       		.uleb128 0x5
 2024 00bf 04       		.byte	0x4
 2025 00c0 04       		.uleb128 0x4
 2026 00c1 59050000 		.4byte	.LASF18
 2027 00c5 03       		.byte	0x3
 2028 00c6 3901     		.2byte	0x139
 2029 00c8 77000000 		.4byte	0x77
 2030 00cc 04       		.uleb128 0x4
 2031 00cd 22020000 		.4byte	.LASF19
 2032 00d1 03       		.byte	0x3
 2033 00d2 3D01     		.2byte	0x13d
 2034 00d4 6B000000 		.4byte	0x6b
 2035 00d8 06       		.uleb128 0x6
 2036 00d9 0C       		.byte	0xc
ARM GAS  C:\Users\Mayur\AppData\Local\Temp\ccxZLytu.s 			page 73


 2037 00da 04       		.byte	0x4
 2038 00db 6E       		.byte	0x6e
 2039 00dc 35010000 		.4byte	0x135
 2040 00e0 07       		.uleb128 0x7
 2041 00e1 F6090000 		.4byte	.LASF20
 2042 00e5 04       		.byte	0x4
 2043 00e6 73       		.byte	0x73
 2044 00e7 77000000 		.4byte	0x77
 2045 00eb 00       		.byte	0
 2046 00ec 07       		.uleb128 0x7
 2047 00ed FD090000 		.4byte	.LASF21
 2048 00f1 04       		.byte	0x4
 2049 00f2 77       		.byte	0x77
 2050 00f3 77000000 		.4byte	0x77
 2051 00f7 02       		.byte	0x2
 2052 00f8 07       		.uleb128 0x7
 2053 00f9 040A0000 		.4byte	.LASF22
 2054 00fd 04       		.byte	0x4
 2055 00fe 7B       		.byte	0x7b
 2056 00ff 77000000 		.4byte	0x77
 2057 0103 04       		.byte	0x4
 2058 0104 07       		.uleb128 0x7
 2059 0105 0B0A0000 		.4byte	.LASF23
 2060 0109 04       		.byte	0x4
 2061 010a 7F       		.byte	0x7f
 2062 010b 77000000 		.4byte	0x77
 2063 010f 06       		.byte	0x6
 2064 0110 07       		.uleb128 0x7
 2065 0111 120A0000 		.4byte	.LASF24
 2066 0115 04       		.byte	0x4
 2067 0116 83       		.byte	0x83
 2068 0117 77000000 		.4byte	0x77
 2069 011b 08       		.byte	0x8
 2070 011c 07       		.uleb128 0x7
 2071 011d 190A0000 		.4byte	.LASF25
 2072 0121 04       		.byte	0x4
 2073 0122 87       		.byte	0x87
 2074 0123 6B000000 		.4byte	0x6b
 2075 0127 0A       		.byte	0xa
 2076 0128 07       		.uleb128 0x7
 2077 0129 200A0000 		.4byte	.LASF26
 2078 012d 04       		.byte	0x4
 2079 012e 8B       		.byte	0x8b
 2080 012f 6B000000 		.4byte	0x6b
 2081 0133 0B       		.byte	0xb
 2082 0134 00       		.byte	0
 2083 0135 08       		.uleb128 0x8
 2084 0136 1E040000 		.4byte	.LASF27
 2085 013a 04       		.byte	0x4
 2086 013b 8C       		.byte	0x8c
 2087 013c D8000000 		.4byte	0xd8
 2088 0140 09       		.uleb128 0x9
 2089 0141 01       		.byte	0x1
 2090 0142 2C000000 		.4byte	0x2c
 2091 0146 05       		.byte	0x5
 2092 0147 61       		.byte	0x61
 2093 0148 77010000 		.4byte	0x177
ARM GAS  C:\Users\Mayur\AppData\Local\Temp\ccxZLytu.s 			page 74


 2094 014c 0A       		.uleb128 0xa
 2095 014d 5C010000 		.4byte	.LASF28
 2096 0151 01       		.byte	0x1
 2097 0152 0A       		.uleb128 0xa
 2098 0153 68060000 		.4byte	.LASF29
 2099 0157 02       		.byte	0x2
 2100 0158 0A       		.uleb128 0xa
 2101 0159 FF040000 		.4byte	.LASF30
 2102 015d 03       		.byte	0x3
 2103 015e 0A       		.uleb128 0xa
 2104 015f A2030000 		.4byte	.LASF31
 2105 0163 04       		.byte	0x4
 2106 0164 0A       		.uleb128 0xa
 2107 0165 64040000 		.4byte	.LASF32
 2108 0169 05       		.byte	0x5
 2109 016a 0A       		.uleb128 0xa
 2110 016b E8060000 		.4byte	.LASF33
 2111 016f 06       		.byte	0x6
 2112 0170 0A       		.uleb128 0xa
 2113 0171 02070000 		.4byte	.LASF34
 2114 0175 07       		.byte	0x7
 2115 0176 00       		.byte	0
 2116 0177 08       		.uleb128 0x8
 2117 0178 C2000000 		.4byte	.LASF35
 2118 017c 05       		.byte	0x5
 2119 017d 69       		.byte	0x69
 2120 017e 40010000 		.4byte	0x140
 2121 0182 09       		.uleb128 0x9
 2122 0183 01       		.byte	0x1
 2123 0184 2C000000 		.4byte	0x2c
 2124 0188 05       		.byte	0x5
 2125 0189 70       		.byte	0x70
 2126 018a AD010000 		.4byte	0x1ad
 2127 018e 0A       		.uleb128 0xa
 2128 018f 31060000 		.4byte	.LASF36
 2129 0193 00       		.byte	0
 2130 0194 0A       		.uleb128 0xa
 2131 0195 4E070000 		.4byte	.LASF37
 2132 0199 01       		.byte	0x1
 2133 019a 0A       		.uleb128 0xa
 2134 019b EA070000 		.4byte	.LASF38
 2135 019f 02       		.byte	0x2
 2136 01a0 0A       		.uleb128 0xa
 2137 01a1 2C030000 		.4byte	.LASF39
 2138 01a5 03       		.byte	0x3
 2139 01a6 0A       		.uleb128 0xa
 2140 01a7 F7010000 		.4byte	.LASF40
 2141 01ab 04       		.byte	0x4
 2142 01ac 00       		.byte	0
 2143 01ad 06       		.uleb128 0x6
 2144 01ae 12       		.byte	0x12
 2145 01af 05       		.byte	0x5
 2146 01b0 8E       		.byte	0x8e
 2147 01b1 46020000 		.4byte	0x246
 2148 01b5 07       		.uleb128 0x7
 2149 01b6 F4040000 		.4byte	.LASF41
 2150 01ba 05       		.byte	0x5
ARM GAS  C:\Users\Mayur\AppData\Local\Temp\ccxZLytu.s 			page 75


 2151 01bb 93       		.byte	0x93
 2152 01bc 77000000 		.4byte	0x77
 2153 01c0 00       		.byte	0
 2154 01c1 07       		.uleb128 0x7
 2155 01c2 FC080000 		.4byte	.LASF42
 2156 01c6 05       		.byte	0x5
 2157 01c7 98       		.byte	0x98
 2158 01c8 C0000000 		.4byte	0xc0
 2159 01cc 02       		.byte	0x2
 2160 01cd 07       		.uleb128 0x7
 2161 01ce 96040000 		.4byte	.LASF43
 2162 01d2 05       		.byte	0x5
 2163 01d3 9D       		.byte	0x9d
 2164 01d4 6B000000 		.4byte	0x6b
 2165 01d8 04       		.byte	0x4
 2166 01d9 07       		.uleb128 0x7
 2167 01da C9050000 		.4byte	.LASF44
 2168 01de 05       		.byte	0x5
 2169 01df A2       		.byte	0xa2
 2170 01e0 6B000000 		.4byte	0x6b
 2171 01e4 05       		.byte	0x5
 2172 01e5 07       		.uleb128 0x7
 2173 01e6 0B060000 		.4byte	.LASF45
 2174 01ea 05       		.byte	0x5
 2175 01eb A8       		.byte	0xa8
 2176 01ec 6B000000 		.4byte	0x6b
 2177 01f0 06       		.byte	0x6
 2178 01f1 07       		.uleb128 0x7
 2179 01f2 73050000 		.4byte	.LASF46
 2180 01f6 05       		.byte	0x5
 2181 01f7 AE       		.byte	0xae
 2182 01f8 6B000000 		.4byte	0x6b
 2183 01fc 07       		.byte	0x7
 2184 01fd 07       		.uleb128 0x7
 2185 01fe C0030000 		.4byte	.LASF47
 2186 0202 05       		.byte	0x5
 2187 0203 B5       		.byte	0xb5
 2188 0204 CC000000 		.4byte	0xcc
 2189 0208 08       		.byte	0x8
 2190 0209 07       		.uleb128 0x7
 2191 020a C0080000 		.4byte	.LASF48
 2192 020e 05       		.byte	0x5
 2193 020f BC       		.byte	0xbc
 2194 0210 46020000 		.4byte	0x246
 2195 0214 09       		.byte	0x9
 2196 0215 07       		.uleb128 0x7
 2197 0216 89090000 		.4byte	.LASF49
 2198 021a 05       		.byte	0x5
 2199 021b C4       		.byte	0xc4
 2200 021c 77000000 		.4byte	0x77
 2201 0220 0A       		.byte	0xa
 2202 0221 07       		.uleb128 0x7
 2203 0222 41070000 		.4byte	.LASF50
 2204 0226 05       		.byte	0x5
 2205 0227 C9       		.byte	0xc9
 2206 0228 6B000000 		.4byte	0x6b
 2207 022c 0C       		.byte	0xc
ARM GAS  C:\Users\Mayur\AppData\Local\Temp\ccxZLytu.s 			page 76


 2208 022d 07       		.uleb128 0x7
 2209 022e 65080000 		.4byte	.LASF51
 2210 0232 05       		.byte	0x5
 2211 0233 CF       		.byte	0xcf
 2212 0234 77000000 		.4byte	0x77
 2213 0238 0E       		.byte	0xe
 2214 0239 07       		.uleb128 0x7
 2215 023a 25030000 		.4byte	.LASF52
 2216 023e 05       		.byte	0x5
 2217 023f D4       		.byte	0xd4
 2218 0240 77000000 		.4byte	0x77
 2219 0244 10       		.byte	0x10
 2220 0245 00       		.byte	0
 2221 0246 0B       		.uleb128 0xb
 2222 0247 6B000000 		.4byte	0x6b
 2223 024b 56020000 		.4byte	0x256
 2224 024f 0C       		.uleb128 0xc
 2225 0250 B7000000 		.4byte	0xb7
 2226 0254 00       		.byte	0
 2227 0255 00       		.byte	0
 2228 0256 08       		.uleb128 0x8
 2229 0257 E6050000 		.4byte	.LASF53
 2230 025b 05       		.byte	0x5
 2231 025c D5       		.byte	0xd5
 2232 025d AD010000 		.4byte	0x1ad
 2233 0261 0D       		.uleb128 0xd
 2234 0262 0A       		.byte	0xa
 2235 0263 05       		.byte	0x5
 2236 0264 5601     		.2byte	0x156
 2237 0266 B9020000 		.4byte	0x2b9
 2238 026a 0E       		.uleb128 0xe
 2239 026b 72617700 		.ascii	"raw\000"
 2240 026f 05       		.byte	0x5
 2241 0270 5B01     		.2byte	0x15b
 2242 0272 B9020000 		.4byte	0x2b9
 2243 0276 00       		.byte	0
 2244 0277 0F       		.uleb128 0xf
 2245 0278 9C090000 		.4byte	.LASF54
 2246 027c 05       		.byte	0x5
 2247 027d 6001     		.2byte	0x160
 2248 027f B9020000 		.4byte	0x2b9
 2249 0283 02       		.byte	0x2
 2250 0284 0F       		.uleb128 0xf
 2251 0285 05090000 		.4byte	.LASF55
 2252 0289 05       		.byte	0x5
 2253 028a 6601     		.2byte	0x166
 2254 028c 46020000 		.4byte	0x246
 2255 0290 04       		.byte	0x4
 2256 0291 0F       		.uleb128 0xf
 2257 0292 B9070000 		.4byte	.LASF56
 2258 0296 05       		.byte	0x5
 2259 0297 6B01     		.2byte	0x16b
 2260 0299 C0000000 		.4byte	0xc0
 2261 029d 06       		.byte	0x6
 2262 029e 0F       		.uleb128 0xf
 2263 029f CE090000 		.4byte	.LASF57
 2264 02a3 05       		.byte	0x5
ARM GAS  C:\Users\Mayur\AppData\Local\Temp\ccxZLytu.s 			page 77


 2265 02a4 7001     		.2byte	0x170
 2266 02a6 C9020000 		.4byte	0x2c9
 2267 02aa 08       		.byte	0x8
 2268 02ab 0F       		.uleb128 0xf
 2269 02ac 1D050000 		.4byte	.LASF58
 2270 02b0 05       		.byte	0x5
 2271 02b1 7501     		.2byte	0x175
 2272 02b3 46020000 		.4byte	0x246
 2273 02b7 09       		.byte	0x9
 2274 02b8 00       		.byte	0
 2275 02b9 0B       		.uleb128 0xb
 2276 02ba 77000000 		.4byte	0x77
 2277 02be C9020000 		.4byte	0x2c9
 2278 02c2 0C       		.uleb128 0xc
 2279 02c3 B7000000 		.4byte	0xb7
 2280 02c7 00       		.byte	0
 2281 02c8 00       		.byte	0
 2282 02c9 0B       		.uleb128 0xb
 2283 02ca CC000000 		.4byte	0xcc
 2284 02ce D9020000 		.4byte	0x2d9
 2285 02d2 0C       		.uleb128 0xc
 2286 02d3 B7000000 		.4byte	0xb7
 2287 02d7 00       		.byte	0
 2288 02d8 00       		.byte	0
 2289 02d9 04       		.uleb128 0x4
 2290 02da DC090000 		.4byte	.LASF59
 2291 02de 05       		.byte	0x5
 2292 02df 7601     		.2byte	0x176
 2293 02e1 61020000 		.4byte	0x261
 2294 02e5 0D       		.uleb128 0xd
 2295 02e6 20       		.byte	0x20
 2296 02e7 05       		.byte	0x5
 2297 02e8 7A02     		.2byte	0x27a
 2298 02ea 71030000 		.4byte	0x371
 2299 02ee 0F       		.uleb128 0xf
 2300 02ef B4090000 		.4byte	.LASF60
 2301 02f3 05       		.byte	0x5
 2302 02f4 8302     		.2byte	0x283
 2303 02f6 71030000 		.4byte	0x371
 2304 02fa 00       		.byte	0
 2305 02fb 0F       		.uleb128 0xf
 2306 02fc 4D090000 		.4byte	.LASF61
 2307 0300 05       		.byte	0x5
 2308 0301 8A02     		.2byte	0x28a
 2309 0303 BE000000 		.4byte	0xbe
 2310 0307 04       		.byte	0x4
 2311 0308 0F       		.uleb128 0xf
 2312 0309 D5060000 		.4byte	.LASF62
 2313 030d 05       		.byte	0x5
 2314 030e 9002     		.2byte	0x290
 2315 0310 78030000 		.4byte	0x378
 2316 0314 08       		.byte	0x8
 2317 0315 0F       		.uleb128 0xf
 2318 0316 21060000 		.4byte	.LASF63
 2319 031a 05       		.byte	0x5
 2320 031b 9602     		.2byte	0x296
 2321 031d BE000000 		.4byte	0xbe
ARM GAS  C:\Users\Mayur\AppData\Local\Temp\ccxZLytu.s 			page 78


 2322 0321 0C       		.byte	0xc
 2323 0322 0F       		.uleb128 0xf
 2324 0323 E6080000 		.4byte	.LASF64
 2325 0327 05       		.byte	0x5
 2326 0328 9D02     		.2byte	0x29d
 2327 032a 7E030000 		.4byte	0x37e
 2328 032e 10       		.byte	0x10
 2329 032f 0F       		.uleb128 0xf
 2330 0330 40090000 		.4byte	.LASF65
 2331 0334 05       		.byte	0x5
 2332 0335 A202     		.2byte	0x2a2
 2333 0337 83000000 		.4byte	0x83
 2334 033b 14       		.byte	0x14
 2335 033c 0F       		.uleb128 0xf
 2336 033d F0030000 		.4byte	.LASF66
 2337 0341 05       		.byte	0x5
 2338 0342 A902     		.2byte	0x2a9
 2339 0344 77000000 		.4byte	0x77
 2340 0348 18       		.byte	0x18
 2341 0349 0F       		.uleb128 0xf
 2342 034a EE010000 		.4byte	.LASF67
 2343 034e 05       		.byte	0x5
 2344 034f B002     		.2byte	0x2b0
 2345 0351 6B000000 		.4byte	0x6b
 2346 0355 1A       		.byte	0x1a
 2347 0356 0F       		.uleb128 0xf
 2348 0357 5D080000 		.4byte	.LASF68
 2349 035b 05       		.byte	0x5
 2350 035c BA02     		.2byte	0x2ba
 2351 035e 6B000000 		.4byte	0x6b
 2352 0362 1B       		.byte	0x1b
 2353 0363 0F       		.uleb128 0xf
 2354 0364 D4010000 		.4byte	.LASF69
 2355 0368 05       		.byte	0x5
 2356 0369 C202     		.2byte	0x2c2
 2357 036b 84030000 		.4byte	0x384
 2358 036f 1C       		.byte	0x1c
 2359 0370 00       		.byte	0
 2360 0371 10       		.uleb128 0x10
 2361 0372 04       		.byte	0x4
 2362 0373 77030000 		.4byte	0x377
 2363 0377 11       		.uleb128 0x11
 2364 0378 10       		.uleb128 0x10
 2365 0379 04       		.byte	0x4
 2366 037a D9020000 		.4byte	0x2d9
 2367 037e 10       		.uleb128 0x10
 2368 037f 04       		.byte	0x4
 2369 0380 6B000000 		.4byte	0x6b
 2370 0384 10       		.uleb128 0x10
 2371 0385 04       		.byte	0x4
 2372 0386 35010000 		.4byte	0x135
 2373 038a 04       		.uleb128 0x4
 2374 038b 41000000 		.4byte	.LASF70
 2375 038f 05       		.byte	0x5
 2376 0390 C302     		.2byte	0x2c3
 2377 0392 E5020000 		.4byte	0x2e5
 2378 0396 12       		.uleb128 0x12
ARM GAS  C:\Users\Mayur\AppData\Local\Temp\ccxZLytu.s 			page 79


 2379 0397 0001     		.2byte	0x100
 2380 0399 05       		.byte	0x5
 2381 039a C902     		.2byte	0x2c9
 2382 039c AE030000 		.4byte	0x3ae
 2383 03a0 0F       		.uleb128 0xf
 2384 03a1 830A0000 		.4byte	.LASF71
 2385 03a5 05       		.byte	0x5
 2386 03a6 CE02     		.2byte	0x2ce
 2387 03a8 AE030000 		.4byte	0x3ae
 2388 03ac 00       		.byte	0
 2389 03ad 00       		.byte	0
 2390 03ae 0B       		.uleb128 0xb
 2391 03af 8A030000 		.4byte	0x38a
 2392 03b3 BE030000 		.4byte	0x3be
 2393 03b7 0C       		.uleb128 0xc
 2394 03b8 B7000000 		.4byte	0xb7
 2395 03bc 07       		.byte	0x7
 2396 03bd 00       		.byte	0
 2397 03be 04       		.uleb128 0x4
 2398 03bf 29070000 		.4byte	.LASF72
 2399 03c3 05       		.byte	0x5
 2400 03c4 CF02     		.2byte	0x2cf
 2401 03c6 96030000 		.4byte	0x396
 2402 03ca 0D       		.uleb128 0xd
 2403 03cb 0C       		.byte	0xc
 2404 03cc 05       		.byte	0x5
 2405 03cd 0403     		.2byte	0x304
 2406 03cf FB030000 		.4byte	0x3fb
 2407 03d3 0F       		.uleb128 0xf
 2408 03d4 59090000 		.4byte	.LASF73
 2409 03d8 05       		.byte	0x5
 2410 03d9 0903     		.2byte	0x309
 2411 03db 77000000 		.4byte	0x77
 2412 03df 00       		.byte	0
 2413 03e0 0F       		.uleb128 0xf
 2414 03e1 E3010000 		.4byte	.LASF74
 2415 03e5 05       		.byte	0x5
 2416 03e6 0F03     		.2byte	0x30f
 2417 03e8 FB030000 		.4byte	0x3fb
 2418 03ec 02       		.byte	0x2
 2419 03ed 0F       		.uleb128 0xf
 2420 03ee 1E070000 		.4byte	.LASF75
 2421 03f2 05       		.byte	0x5
 2422 03f3 1403     		.2byte	0x314
 2423 03f5 0B040000 		.4byte	0x40b
 2424 03f9 06       		.byte	0x6
 2425 03fa 00       		.byte	0
 2426 03fb 0B       		.uleb128 0xb
 2427 03fc 77000000 		.4byte	0x77
 2428 0400 0B040000 		.4byte	0x40b
 2429 0404 0C       		.uleb128 0xc
 2430 0405 B7000000 		.4byte	0xb7
 2431 0409 01       		.byte	0x1
 2432 040a 00       		.byte	0
 2433 040b 0B       		.uleb128 0xb
 2434 040c 77000000 		.4byte	0x77
 2435 0410 1B040000 		.4byte	0x41b
ARM GAS  C:\Users\Mayur\AppData\Local\Temp\ccxZLytu.s 			page 80


 2436 0414 0C       		.uleb128 0xc
 2437 0415 B7000000 		.4byte	0xb7
 2438 0419 02       		.byte	0x2
 2439 041a 00       		.byte	0
 2440 041b 04       		.uleb128 0x4
 2441 041c 5C000000 		.4byte	.LASF76
 2442 0420 05       		.byte	0x5
 2443 0421 1503     		.2byte	0x315
 2444 0423 CA030000 		.4byte	0x3ca
 2445 0427 0D       		.uleb128 0xd
 2446 0428 0C       		.byte	0xc
 2447 0429 05       		.byte	0x5
 2448 042a 1A03     		.2byte	0x31a
 2449 042c 3E040000 		.4byte	0x43e
 2450 0430 0F       		.uleb128 0xf
 2451 0431 F1020000 		.4byte	.LASF77
 2452 0435 05       		.byte	0x5
 2453 0436 1F03     		.2byte	0x31f
 2454 0438 3E040000 		.4byte	0x43e
 2455 043c 00       		.byte	0
 2456 043d 00       		.byte	0
 2457 043e 0B       		.uleb128 0xb
 2458 043f 1B040000 		.4byte	0x41b
 2459 0443 4E040000 		.4byte	0x44e
 2460 0447 0C       		.uleb128 0xc
 2461 0448 B7000000 		.4byte	0xb7
 2462 044c 00       		.byte	0
 2463 044d 00       		.byte	0
 2464 044e 04       		.uleb128 0x4
 2465 044f B5010000 		.4byte	.LASF78
 2466 0453 05       		.byte	0x5
 2467 0454 2003     		.2byte	0x320
 2468 0456 27040000 		.4byte	0x427
 2469 045a 13       		.uleb128 0x13
 2470 045b 04       		.byte	0x4
 2471 045c 05       		.byte	0x5
 2472 045d 2503     		.2byte	0x325
 2473 045f 7C040000 		.4byte	0x47c
 2474 0463 14       		.uleb128 0x14
 2475 0464 70747200 		.ascii	"ptr\000"
 2476 0468 05       		.byte	0x5
 2477 0469 2A03     		.2byte	0x32a
 2478 046b BE000000 		.4byte	0xbe
 2479 046f 15       		.uleb128 0x15
 2480 0470 8A010000 		.4byte	.LASF79
 2481 0474 05       		.byte	0x5
 2482 0475 2F03     		.2byte	0x32f
 2483 0477 7C040000 		.4byte	0x47c
 2484 047b 00       		.byte	0
 2485 047c 10       		.uleb128 0x10
 2486 047d 04       		.byte	0x4
 2487 047e 4E040000 		.4byte	0x44e
 2488 0482 04       		.uleb128 0x4
 2489 0483 84030000 		.4byte	.LASF80
 2490 0487 05       		.byte	0x5
 2491 0488 3003     		.2byte	0x330
 2492 048a 5A040000 		.4byte	0x45a
ARM GAS  C:\Users\Mayur\AppData\Local\Temp\ccxZLytu.s 			page 81


 2493 048e 16       		.uleb128 0x16
 2494 048f 7E050000 		.4byte	.LASF84
 2495 0493 01       		.byte	0x1
 2496 0494 3602     		.2byte	0x236
 2497 0496 00000000 		.4byte	.LFB9
 2498 049a 1E000000 		.4byte	.LFE9-.LFB9
 2499 049e 01       		.uleb128 0x1
 2500 049f 9C       		.byte	0x9c
 2501 04a0 D3040000 		.4byte	0x4d3
 2502 04a4 17       		.uleb128 0x17
 2503 04a5 C7040000 		.4byte	.LASF81
 2504 04a9 01       		.byte	0x1
 2505 04aa 3602     		.2byte	0x236
 2506 04ac 78030000 		.4byte	0x378
 2507 04b0 01       		.uleb128 0x1
 2508 04b1 50       		.byte	0x50
 2509 04b2 18       		.uleb128 0x18
 2510 04b3 540A0000 		.4byte	.LASF82
 2511 04b7 01       		.byte	0x1
 2512 04b8 3602     		.2byte	0x236
 2513 04ba 83000000 		.4byte	0x83
 2514 04be 00000000 		.4byte	.LLST0
 2515 04c2 18       		.uleb128 0x18
 2516 04c3 E0060000 		.4byte	.LASF83
 2517 04c7 01       		.byte	0x1
 2518 04c8 3602     		.2byte	0x236
 2519 04ca 83000000 		.4byte	0x83
 2520 04ce 21000000 		.4byte	.LLST1
 2521 04d2 00       		.byte	0
 2522 04d3 16       		.uleb128 0x16
 2523 04d4 00030000 		.4byte	.LASF85
 2524 04d8 01       		.byte	0x1
 2525 04d9 1402     		.2byte	0x214
 2526 04db 00000000 		.4byte	.LFB8
 2527 04df 1E000000 		.4byte	.LFE8-.LFB8
 2528 04e3 01       		.uleb128 0x1
 2529 04e4 9C       		.byte	0x9c
 2530 04e5 36050000 		.4byte	0x536
 2531 04e9 18       		.uleb128 0x18
 2532 04ea C7040000 		.4byte	.LASF81
 2533 04ee 01       		.byte	0x1
 2534 04ef 1402     		.2byte	0x214
 2535 04f1 78030000 		.4byte	0x378
 2536 04f5 42000000 		.4byte	.LLST2
 2537 04f9 18       		.uleb128 0x18
 2538 04fa 540A0000 		.4byte	.LASF82
 2539 04fe 01       		.byte	0x1
 2540 04ff 1402     		.2byte	0x214
 2541 0501 83000000 		.4byte	0x83
 2542 0505 6E000000 		.4byte	.LLST3
 2543 0509 19       		.uleb128 0x19
 2544 050a DA050000 		.4byte	.LASF89
 2545 050e 01       		.byte	0x1
 2546 050f 1602     		.2byte	0x216
 2547 0511 83000000 		.4byte	0x83
 2548 0515 9A000000 		.4byte	.LLST4
 2549 0519 1A       		.uleb128 0x1a
ARM GAS  C:\Users\Mayur\AppData\Local\Temp\ccxZLytu.s 			page 82


 2550 051a 14000000 		.4byte	.LVL6
 2551 051e 8E040000 		.4byte	0x48e
 2552 0522 1B       		.uleb128 0x1b
 2553 0523 01       		.uleb128 0x1
 2554 0524 50       		.byte	0x50
 2555 0525 02       		.uleb128 0x2
 2556 0526 76       		.byte	0x76
 2557 0527 00       		.sleb128 0
 2558 0528 1B       		.uleb128 0x1b
 2559 0529 01       		.uleb128 0x1
 2560 052a 51       		.byte	0x51
 2561 052b 02       		.uleb128 0x2
 2562 052c 75       		.byte	0x75
 2563 052d 00       		.sleb128 0
 2564 052e 1B       		.uleb128 0x1b
 2565 052f 01       		.uleb128 0x1
 2566 0530 52       		.byte	0x52
 2567 0531 02       		.uleb128 0x2
 2568 0532 74       		.byte	0x74
 2569 0533 00       		.sleb128 0
 2570 0534 00       		.byte	0
 2571 0535 00       		.byte	0
 2572 0536 16       		.uleb128 0x16
 2573 0537 A5050000 		.4byte	.LASF86
 2574 053b 01       		.byte	0x1
 2575 053c F301     		.2byte	0x1f3
 2576 053e 00000000 		.4byte	.LFB7
 2577 0542 20000000 		.4byte	.LFE7-.LFB7
 2578 0546 01       		.uleb128 0x1
 2579 0547 9C       		.byte	0x9c
 2580 0548 96050000 		.4byte	0x596
 2581 054c 18       		.uleb128 0x18
 2582 054d 5B0A0000 		.4byte	.LASF87
 2583 0551 01       		.byte	0x1
 2584 0552 F301     		.2byte	0x1f3
 2585 0554 83000000 		.4byte	0x83
 2586 0558 DC000000 		.4byte	.LLST5
 2587 055c 18       		.uleb128 0x18
 2588 055d 0B010000 		.4byte	.LASF88
 2589 0561 01       		.byte	0x1
 2590 0562 F301     		.2byte	0x1f3
 2591 0564 83000000 		.4byte	0x83
 2592 0568 FD000000 		.4byte	.LLST6
 2593 056c 19       		.uleb128 0x19
 2594 056d C7040000 		.4byte	.LASF81
 2595 0571 01       		.byte	0x1
 2596 0572 F501     		.2byte	0x1f5
 2597 0574 78030000 		.4byte	0x378
 2598 0578 1E010000 		.4byte	.LLST7
 2599 057c 19       		.uleb128 0x19
 2600 057d E0070000 		.4byte	.LASF90
 2601 0581 01       		.byte	0x1
 2602 0582 F601     		.2byte	0x1f6
 2603 0584 96050000 		.4byte	0x596
 2604 0588 49010000 		.4byte	.LLST8
 2605 058c 1C       		.uleb128 0x1c
 2606 058d 1A000000 		.4byte	.LVL18
ARM GAS  C:\Users\Mayur\AppData\Local\Temp\ccxZLytu.s 			page 83


 2607 0591 D3040000 		.4byte	0x4d3
 2608 0595 00       		.byte	0
 2609 0596 10       		.uleb128 0x10
 2610 0597 04       		.byte	0x4
 2611 0598 9C050000 		.4byte	0x59c
 2612 059c 1D       		.uleb128 0x1d
 2613 059d 8A030000 		.4byte	0x38a
 2614 05a1 16       		.uleb128 0x16
 2615 05a2 CD020000 		.4byte	.LASF91
 2616 05a6 01       		.byte	0x1
 2617 05a7 C701     		.2byte	0x1c7
 2618 05a9 00000000 		.4byte	.LFB6
 2619 05ad 24000000 		.4byte	.LFE6-.LFB6
 2620 05b1 01       		.uleb128 0x1
 2621 05b2 9C       		.byte	0x9c
 2622 05b3 0E060000 		.4byte	0x60e
 2623 05b7 18       		.uleb128 0x18
 2624 05b8 5B0A0000 		.4byte	.LASF87
 2625 05bc 01       		.byte	0x1
 2626 05bd C701     		.2byte	0x1c7
 2627 05bf 83000000 		.4byte	0x83
 2628 05c3 5C010000 		.4byte	.LLST9
 2629 05c7 19       		.uleb128 0x19
 2630 05c8 0B010000 		.4byte	.LASF88
 2631 05cc 01       		.byte	0x1
 2632 05cd C901     		.2byte	0x1c9
 2633 05cf 83000000 		.4byte	0x83
 2634 05d3 88010000 		.4byte	.LLST10
 2635 05d7 19       		.uleb128 0x19
 2636 05d8 90000000 		.4byte	.LASF92
 2637 05dc 01       		.byte	0x1
 2638 05dd CA01     		.2byte	0x1ca
 2639 05df 83000000 		.4byte	0x83
 2640 05e3 C9010000 		.4byte	.LLST11
 2641 05e7 19       		.uleb128 0x19
 2642 05e8 E0070000 		.4byte	.LASF90
 2643 05ec 01       		.byte	0x1
 2644 05ed CC01     		.2byte	0x1cc
 2645 05ef 96050000 		.4byte	0x596
 2646 05f3 DC010000 		.4byte	.LLST12
 2647 05f7 1A       		.uleb128 0x1a
 2648 05f8 16000000 		.4byte	.LVL24
 2649 05fc 36050000 		.4byte	0x536
 2650 0600 1B       		.uleb128 0x1b
 2651 0601 01       		.uleb128 0x1
 2652 0602 50       		.byte	0x50
 2653 0603 02       		.uleb128 0x2
 2654 0604 75       		.byte	0x75
 2655 0605 00       		.sleb128 0
 2656 0606 1B       		.uleb128 0x1b
 2657 0607 01       		.uleb128 0x1
 2658 0608 51       		.byte	0x51
 2659 0609 02       		.uleb128 0x2
 2660 060a 74       		.byte	0x74
 2661 060b 00       		.sleb128 0
 2662 060c 00       		.byte	0
 2663 060d 00       		.byte	0
ARM GAS  C:\Users\Mayur\AppData\Local\Temp\ccxZLytu.s 			page 84


 2664 060e 16       		.uleb128 0x16
 2665 060f 1F000000 		.4byte	.LASF93
 2666 0613 01       		.byte	0x1
 2667 0614 A301     		.2byte	0x1a3
 2668 0616 00000000 		.4byte	.LFB5
 2669 061a 16000000 		.4byte	.LFE5-.LFB5
 2670 061e 01       		.uleb128 0x1
 2671 061f 9C       		.byte	0x9c
 2672 0620 45060000 		.4byte	0x645
 2673 0624 19       		.uleb128 0x19
 2674 0625 5B0A0000 		.4byte	.LASF87
 2675 0629 01       		.byte	0x1
 2676 062a A501     		.2byte	0x1a5
 2677 062c 83000000 		.4byte	0x83
 2678 0630 EF010000 		.4byte	.LLST13
 2679 0634 1A       		.uleb128 0x1a
 2680 0635 0C000000 		.4byte	.LVL31
 2681 0639 A1050000 		.4byte	0x5a1
 2682 063d 1B       		.uleb128 0x1b
 2683 063e 01       		.uleb128 0x1
 2684 063f 50       		.byte	0x50
 2685 0640 02       		.uleb128 0x2
 2686 0641 74       		.byte	0x74
 2687 0642 00       		.sleb128 0
 2688 0643 00       		.byte	0
 2689 0644 00       		.byte	0
 2690 0645 16       		.uleb128 0x16
 2691 0646 43040000 		.4byte	.LASF94
 2692 064a 01       		.byte	0x1
 2693 064b 5203     		.2byte	0x352
 2694 064d 00000000 		.4byte	.LFB14
 2695 0651 22000000 		.4byte	.LFE14-.LFB14
 2696 0655 01       		.uleb128 0x1
 2697 0656 9C       		.byte	0x9c
 2698 0657 96060000 		.4byte	0x696
 2699 065b 17       		.uleb128 0x17
 2700 065c 270A0000 		.4byte	.LASF95
 2701 0660 01       		.byte	0x1
 2702 0661 5203     		.2byte	0x352
 2703 0663 82040000 		.4byte	0x482
 2704 0667 01       		.uleb128 0x1
 2705 0668 50       		.byte	0x50
 2706 0669 17       		.uleb128 0x17
 2707 066a 50080000 		.4byte	.LASF96
 2708 066e 01       		.byte	0x1
 2709 066f 5303     		.2byte	0x353
 2710 0671 78030000 		.4byte	0x378
 2711 0675 01       		.uleb128 0x1
 2712 0676 51       		.byte	0x51
 2713 0677 17       		.uleb128 0x17
 2714 0678 540A0000 		.4byte	.LASF82
 2715 067c 01       		.byte	0x1
 2716 067d 5303     		.2byte	0x353
 2717 067f 83000000 		.4byte	0x83
 2718 0683 01       		.uleb128 0x1
 2719 0684 52       		.byte	0x52
 2720 0685 19       		.uleb128 0x19
ARM GAS  C:\Users\Mayur\AppData\Local\Temp\ccxZLytu.s 			page 85


 2721 0686 DA050000 		.4byte	.LASF89
 2722 068a 01       		.byte	0x1
 2723 068b 5503     		.2byte	0x355
 2724 068d 83000000 		.4byte	0x83
 2725 0691 31020000 		.4byte	.LLST14
 2726 0695 00       		.byte	0
 2727 0696 16       		.uleb128 0x16
 2728 0697 7D040000 		.4byte	.LASF97
 2729 069b 01       		.byte	0x1
 2730 069c F002     		.2byte	0x2f0
 2731 069e 00000000 		.4byte	.LFB12
 2732 06a2 34000000 		.4byte	.LFE12-.LFB12
 2733 06a6 01       		.uleb128 0x1
 2734 06a7 9C       		.byte	0x9c
 2735 06a8 02070000 		.4byte	0x702
 2736 06ac 18       		.uleb128 0x18
 2737 06ad 5B0A0000 		.4byte	.LASF87
 2738 06b1 01       		.byte	0x1
 2739 06b2 F002     		.2byte	0x2f0
 2740 06b4 83000000 		.4byte	0x83
 2741 06b8 73020000 		.4byte	.LLST15
 2742 06bc 18       		.uleb128 0x18
 2743 06bd 0B010000 		.4byte	.LASF88
 2744 06c1 01       		.byte	0x1
 2745 06c2 F002     		.2byte	0x2f0
 2746 06c4 83000000 		.4byte	0x83
 2747 06c8 94020000 		.4byte	.LLST16
 2748 06cc 19       		.uleb128 0x19
 2749 06cd E0070000 		.4byte	.LASF90
 2750 06d1 01       		.byte	0x1
 2751 06d2 F202     		.2byte	0x2f2
 2752 06d4 96050000 		.4byte	0x596
 2753 06d8 C0020000 		.4byte	.LLST17
 2754 06dc 19       		.uleb128 0x19
 2755 06dd C7040000 		.4byte	.LASF81
 2756 06e1 01       		.byte	0x1
 2757 06e2 F302     		.2byte	0x2f3
 2758 06e4 78030000 		.4byte	0x378
 2759 06e8 D3020000 		.4byte	.LLST18
 2760 06ec 1E       		.uleb128 0x1e
 2761 06ed 270A0000 		.4byte	.LASF95
 2762 06f1 01       		.byte	0x1
 2763 06f2 F402     		.2byte	0x2f4
 2764 06f4 82040000 		.4byte	0x482
 2765 06f8 1C       		.uleb128 0x1c
 2766 06f9 2C000000 		.4byte	.LVL50
 2767 06fd 45060000 		.4byte	0x645
 2768 0701 00       		.byte	0
 2769 0702 16       		.uleb128 0x16
 2770 0703 A3040000 		.4byte	.LASF98
 2771 0707 01       		.byte	0x1
 2772 0708 3804     		.2byte	0x438
 2773 070a 00000000 		.4byte	.LFB18
 2774 070e 28000000 		.4byte	.LFE18-.LFB18
 2775 0712 01       		.uleb128 0x1
 2776 0713 9C       		.byte	0x9c
 2777 0714 53070000 		.4byte	0x753
ARM GAS  C:\Users\Mayur\AppData\Local\Temp\ccxZLytu.s 			page 86


 2778 0718 17       		.uleb128 0x17
 2779 0719 270A0000 		.4byte	.LASF95
 2780 071d 01       		.byte	0x1
 2781 071e 3804     		.2byte	0x438
 2782 0720 82040000 		.4byte	0x482
 2783 0724 01       		.uleb128 0x1
 2784 0725 50       		.byte	0x50
 2785 0726 17       		.uleb128 0x17
 2786 0727 50080000 		.4byte	.LASF96
 2787 072b 01       		.byte	0x1
 2788 072c 3904     		.2byte	0x439
 2789 072e 78030000 		.4byte	0x378
 2790 0732 01       		.uleb128 0x1
 2791 0733 51       		.byte	0x51
 2792 0734 17       		.uleb128 0x17
 2793 0735 540A0000 		.4byte	.LASF82
 2794 0739 01       		.byte	0x1
 2795 073a 3904     		.2byte	0x439
 2796 073c 83000000 		.4byte	0x83
 2797 0740 01       		.uleb128 0x1
 2798 0741 52       		.byte	0x52
 2799 0742 19       		.uleb128 0x19
 2800 0743 DA050000 		.4byte	.LASF89
 2801 0747 01       		.byte	0x1
 2802 0748 3B04     		.2byte	0x43b
 2803 074a 83000000 		.4byte	0x83
 2804 074e FE020000 		.4byte	.LLST19
 2805 0752 00       		.byte	0
 2806 0753 16       		.uleb128 0x16
 2807 0754 380A0000 		.4byte	.LASF99
 2808 0758 01       		.byte	0x1
 2809 0759 D503     		.2byte	0x3d5
 2810 075b 00000000 		.4byte	.LFB16
 2811 075f 34000000 		.4byte	.LFE16-.LFB16
 2812 0763 01       		.uleb128 0x1
 2813 0764 9C       		.byte	0x9c
 2814 0765 BF070000 		.4byte	0x7bf
 2815 0769 18       		.uleb128 0x18
 2816 076a 5B0A0000 		.4byte	.LASF87
 2817 076e 01       		.byte	0x1
 2818 076f D503     		.2byte	0x3d5
 2819 0771 83000000 		.4byte	0x83
 2820 0775 40030000 		.4byte	.LLST20
 2821 0779 18       		.uleb128 0x18
 2822 077a 0B010000 		.4byte	.LASF88
 2823 077e 01       		.byte	0x1
 2824 077f D503     		.2byte	0x3d5
 2825 0781 83000000 		.4byte	0x83
 2826 0785 61030000 		.4byte	.LLST21
 2827 0789 19       		.uleb128 0x19
 2828 078a E0070000 		.4byte	.LASF90
 2829 078e 01       		.byte	0x1
 2830 078f D703     		.2byte	0x3d7
 2831 0791 96050000 		.4byte	0x596
 2832 0795 8D030000 		.4byte	.LLST22
 2833 0799 19       		.uleb128 0x19
 2834 079a C7040000 		.4byte	.LASF81
ARM GAS  C:\Users\Mayur\AppData\Local\Temp\ccxZLytu.s 			page 87


 2835 079e 01       		.byte	0x1
 2836 079f D803     		.2byte	0x3d8
 2837 07a1 78030000 		.4byte	0x378
 2838 07a5 A0030000 		.4byte	.LLST23
 2839 07a9 1E       		.uleb128 0x1e
 2840 07aa 270A0000 		.4byte	.LASF95
 2841 07ae 01       		.byte	0x1
 2842 07af D903     		.2byte	0x3d9
 2843 07b1 82040000 		.4byte	0x482
 2844 07b5 1C       		.uleb128 0x1c
 2845 07b6 2C000000 		.4byte	.LVL66
 2846 07ba 02070000 		.4byte	0x702
 2847 07be 00       		.byte	0
 2848 07bf 16       		.uleb128 0x16
 2849 07c0 CB030000 		.4byte	.LASF100
 2850 07c4 01       		.byte	0x1
 2851 07c5 0405     		.2byte	0x504
 2852 07c7 00000000 		.4byte	.LFB22
 2853 07cb 2C000000 		.4byte	.LFE22-.LFB22
 2854 07cf 01       		.uleb128 0x1
 2855 07d0 9C       		.byte	0x9c
 2856 07d1 10080000 		.4byte	0x810
 2857 07d5 17       		.uleb128 0x17
 2858 07d6 270A0000 		.4byte	.LASF95
 2859 07da 01       		.byte	0x1
 2860 07db 0405     		.2byte	0x504
 2861 07dd 82040000 		.4byte	0x482
 2862 07e1 01       		.uleb128 0x1
 2863 07e2 50       		.byte	0x50
 2864 07e3 17       		.uleb128 0x17
 2865 07e4 50080000 		.4byte	.LASF96
 2866 07e8 01       		.byte	0x1
 2867 07e9 0505     		.2byte	0x505
 2868 07eb 78030000 		.4byte	0x378
 2869 07ef 01       		.uleb128 0x1
 2870 07f0 51       		.byte	0x51
 2871 07f1 17       		.uleb128 0x17
 2872 07f2 540A0000 		.4byte	.LASF82
 2873 07f6 01       		.byte	0x1
 2874 07f7 0505     		.2byte	0x505
 2875 07f9 83000000 		.4byte	0x83
 2876 07fd 01       		.uleb128 0x1
 2877 07fe 52       		.byte	0x52
 2878 07ff 19       		.uleb128 0x19
 2879 0800 DA050000 		.4byte	.LASF89
 2880 0804 01       		.byte	0x1
 2881 0805 0705     		.2byte	0x507
 2882 0807 83000000 		.4byte	0x83
 2883 080b CB030000 		.4byte	.LLST24
 2884 080f 00       		.byte	0
 2885 0810 16       		.uleb128 0x16
 2886 0811 FC030000 		.4byte	.LASF101
 2887 0815 01       		.byte	0x1
 2888 0816 8702     		.2byte	0x287
 2889 0818 00000000 		.4byte	.LFB11
 2890 081c 88000000 		.4byte	.LFE11-.LFB11
 2891 0820 01       		.uleb128 0x1
ARM GAS  C:\Users\Mayur\AppData\Local\Temp\ccxZLytu.s 			page 88


 2892 0821 9C       		.byte	0x9c
 2893 0822 17090000 		.4byte	0x917
 2894 0826 18       		.uleb128 0x18
 2895 0827 5B0A0000 		.4byte	.LASF87
 2896 082b 01       		.byte	0x1
 2897 082c 8702     		.2byte	0x287
 2898 082e 83000000 		.4byte	0x83
 2899 0832 0D040000 		.4byte	.LLST25
 2900 0836 19       		.uleb128 0x19
 2901 0837 0B010000 		.4byte	.LASF88
 2902 083b 01       		.byte	0x1
 2903 083c 8902     		.2byte	0x289
 2904 083e 83000000 		.4byte	0x83
 2905 0842 39040000 		.4byte	.LLST26
 2906 0846 19       		.uleb128 0x19
 2907 0847 90000000 		.4byte	.LASF92
 2908 084b 01       		.byte	0x1
 2909 084c 8A02     		.2byte	0x28a
 2910 084e 83000000 		.4byte	0x83
 2911 0852 7A040000 		.4byte	.LLST27
 2912 0856 19       		.uleb128 0x19
 2913 0857 E0070000 		.4byte	.LASF90
 2914 085b 01       		.byte	0x1
 2915 085c 8C02     		.2byte	0x28c
 2916 085e 96050000 		.4byte	0x596
 2917 0862 8D040000 		.4byte	.LLST28
 2918 0866 19       		.uleb128 0x19
 2919 0867 C7040000 		.4byte	.LASF81
 2920 086b 01       		.byte	0x1
 2921 086c 8D02     		.2byte	0x28d
 2922 086e 78030000 		.4byte	0x378
 2923 0872 A0040000 		.4byte	.LLST29
 2924 0876 19       		.uleb128 0x19
 2925 0877 270A0000 		.4byte	.LASF95
 2926 087b 01       		.byte	0x1
 2927 087c 8F02     		.2byte	0x28f
 2928 087e 82040000 		.4byte	0x482
 2929 0882 CB040000 		.4byte	.LLST30
 2930 0886 19       		.uleb128 0x19
 2931 0887 15020000 		.4byte	.LASF102
 2932 088b 01       		.byte	0x1
 2933 088c 9302     		.2byte	0x293
 2934 088e 17090000 		.4byte	0x917
 2935 0892 E9040000 		.4byte	.LLST31
 2936 0896 19       		.uleb128 0x19
 2937 0897 00000000 		.4byte	.LASF103
 2938 089b 01       		.byte	0x1
 2939 089c 9402     		.2byte	0x294
 2940 089e 84030000 		.4byte	0x384
 2941 08a2 07050000 		.4byte	.LLST32
 2942 08a6 1F       		.uleb128 0x1f
 2943 08a7 50000000 		.4byte	.LVL84
 2944 08ab 45060000 		.4byte	0x645
 2945 08af C6080000 		.4byte	0x8c6
 2946 08b3 1B       		.uleb128 0x1b
 2947 08b4 01       		.uleb128 0x1
 2948 08b5 50       		.byte	0x50
ARM GAS  C:\Users\Mayur\AppData\Local\Temp\ccxZLytu.s 			page 89


 2949 08b6 02       		.uleb128 0x2
 2950 08b7 76       		.byte	0x76
 2951 08b8 00       		.sleb128 0
 2952 08b9 1B       		.uleb128 0x1b
 2953 08ba 01       		.uleb128 0x1
 2954 08bb 51       		.byte	0x51
 2955 08bc 02       		.uleb128 0x2
 2956 08bd 74       		.byte	0x74
 2957 08be 00       		.sleb128 0
 2958 08bf 1B       		.uleb128 0x1b
 2959 08c0 01       		.uleb128 0x1
 2960 08c1 52       		.byte	0x52
 2961 08c2 02       		.uleb128 0x2
 2962 08c3 77       		.byte	0x77
 2963 08c4 00       		.sleb128 0
 2964 08c5 00       		.byte	0
 2965 08c6 1F       		.uleb128 0x1f
 2966 08c7 5A000000 		.4byte	.LVL85
 2967 08cb 02070000 		.4byte	0x702
 2968 08cf E6080000 		.4byte	0x8e6
 2969 08d3 1B       		.uleb128 0x1b
 2970 08d4 01       		.uleb128 0x1
 2971 08d5 50       		.byte	0x50
 2972 08d6 02       		.uleb128 0x2
 2973 08d7 76       		.byte	0x76
 2974 08d8 00       		.sleb128 0
 2975 08d9 1B       		.uleb128 0x1b
 2976 08da 01       		.uleb128 0x1
 2977 08db 51       		.byte	0x51
 2978 08dc 02       		.uleb128 0x2
 2979 08dd 74       		.byte	0x74
 2980 08de 00       		.sleb128 0
 2981 08df 1B       		.uleb128 0x1b
 2982 08e0 01       		.uleb128 0x1
 2983 08e1 52       		.byte	0x52
 2984 08e2 02       		.uleb128 0x2
 2985 08e3 77       		.byte	0x77
 2986 08e4 00       		.sleb128 0
 2987 08e5 00       		.byte	0
 2988 08e6 1F       		.uleb128 0x1f
 2989 08e7 64000000 		.4byte	.LVL86
 2990 08eb BF070000 		.4byte	0x7bf
 2991 08ef 06090000 		.4byte	0x906
 2992 08f3 1B       		.uleb128 0x1b
 2993 08f4 01       		.uleb128 0x1
 2994 08f5 50       		.byte	0x50
 2995 08f6 02       		.uleb128 0x2
 2996 08f7 76       		.byte	0x76
 2997 08f8 00       		.sleb128 0
 2998 08f9 1B       		.uleb128 0x1b
 2999 08fa 01       		.uleb128 0x1
 3000 08fb 51       		.byte	0x51
 3001 08fc 02       		.uleb128 0x2
 3002 08fd 74       		.byte	0x74
 3003 08fe 00       		.sleb128 0
 3004 08ff 1B       		.uleb128 0x1b
 3005 0900 01       		.uleb128 0x1
ARM GAS  C:\Users\Mayur\AppData\Local\Temp\ccxZLytu.s 			page 90


 3006 0901 52       		.byte	0x52
 3007 0902 02       		.uleb128 0x2
 3008 0903 77       		.byte	0x77
 3009 0904 00       		.sleb128 0
 3010 0905 00       		.byte	0
 3011 0906 1A       		.uleb128 0x1a
 3012 0907 70000000 		.4byte	.LVL87
 3013 090b 6C110000 		.4byte	0x116c
 3014 090f 1B       		.uleb128 0x1b
 3015 0910 01       		.uleb128 0x1
 3016 0911 52       		.byte	0x52
 3017 0912 02       		.uleb128 0x2
 3018 0913 7A       		.byte	0x7a
 3019 0914 00       		.sleb128 0
 3020 0915 00       		.byte	0
 3021 0916 00       		.byte	0
 3022 0917 10       		.uleb128 0x10
 3023 0918 04       		.byte	0x4
 3024 0919 56020000 		.4byte	0x256
 3025 091d 16       		.uleb128 0x16
 3026 091e 86060000 		.4byte	.LASF104
 3027 0922 01       		.byte	0x1
 3028 0923 6902     		.2byte	0x269
 3029 0925 00000000 		.4byte	.LFB10
 3030 0929 16000000 		.4byte	.LFE10-.LFB10
 3031 092d 01       		.uleb128 0x1
 3032 092e 9C       		.byte	0x9c
 3033 092f 54090000 		.4byte	0x954
 3034 0933 19       		.uleb128 0x19
 3035 0934 5B0A0000 		.4byte	.LASF87
 3036 0938 01       		.byte	0x1
 3037 0939 6B02     		.2byte	0x26b
 3038 093b 83000000 		.4byte	0x83
 3039 093f 32050000 		.4byte	.LLST33
 3040 0943 1A       		.uleb128 0x1a
 3041 0944 0C000000 		.4byte	.LVL96
 3042 0948 10080000 		.4byte	0x810
 3043 094c 1B       		.uleb128 0x1b
 3044 094d 01       		.uleb128 0x1
 3045 094e 50       		.byte	0x50
 3046 094f 02       		.uleb128 0x2
 3047 0950 74       		.byte	0x74
 3048 0951 00       		.sleb128 0
 3049 0952 00       		.byte	0
 3050 0953 00       		.byte	0
 3051 0954 20       		.uleb128 0x20
 3052 0955 8D080000 		.4byte	.LASF105
 3053 0959 01       		.byte	0x1
 3054 095a 3E       		.byte	0x3e
 3055 095b 00000000 		.4byte	.LFB0
 3056 095f 08000000 		.4byte	.LFE0-.LFB0
 3057 0963 01       		.uleb128 0x1
 3058 0964 9C       		.byte	0x9c
 3059 0965 73090000 		.4byte	0x973
 3060 0969 1C       		.uleb128 0x1c
 3061 096a 06000000 		.4byte	.LVL100
 3062 096e 1D090000 		.4byte	0x91d
ARM GAS  C:\Users\Mayur\AppData\Local\Temp\ccxZLytu.s 			page 91


 3063 0972 00       		.byte	0
 3064 0973 16       		.uleb128 0x16
 3065 0974 08080000 		.4byte	.LASF106
 3066 0978 01       		.byte	0x1
 3067 0979 A104     		.2byte	0x4a1
 3068 097b 00000000 		.4byte	.LFB20
 3069 097f 34000000 		.4byte	.LFE20-.LFB20
 3070 0983 01       		.uleb128 0x1
 3071 0984 9C       		.byte	0x9c
 3072 0985 DF090000 		.4byte	0x9df
 3073 0989 18       		.uleb128 0x18
 3074 098a 5B0A0000 		.4byte	.LASF87
 3075 098e 01       		.byte	0x1
 3076 098f A104     		.2byte	0x4a1
 3077 0991 83000000 		.4byte	0x83
 3078 0995 74050000 		.4byte	.LLST34
 3079 0999 18       		.uleb128 0x18
 3080 099a 0B010000 		.4byte	.LASF88
 3081 099e 01       		.byte	0x1
 3082 099f A104     		.2byte	0x4a1
 3083 09a1 83000000 		.4byte	0x83
 3084 09a5 95050000 		.4byte	.LLST35
 3085 09a9 19       		.uleb128 0x19
 3086 09aa E0070000 		.4byte	.LASF90
 3087 09ae 01       		.byte	0x1
 3088 09af A304     		.2byte	0x4a3
 3089 09b1 96050000 		.4byte	0x596
 3090 09b5 C1050000 		.4byte	.LLST36
 3091 09b9 19       		.uleb128 0x19
 3092 09ba C7040000 		.4byte	.LASF81
 3093 09be 01       		.byte	0x1
 3094 09bf A404     		.2byte	0x4a4
 3095 09c1 78030000 		.4byte	0x378
 3096 09c5 D4050000 		.4byte	.LLST37
 3097 09c9 1E       		.uleb128 0x1e
 3098 09ca 270A0000 		.4byte	.LASF95
 3099 09ce 01       		.byte	0x1
 3100 09cf A504     		.2byte	0x4a5
 3101 09d1 82040000 		.4byte	0x482
 3102 09d5 1C       		.uleb128 0x1c
 3103 09d6 2C000000 		.4byte	.LVL110
 3104 09da BF070000 		.4byte	0x7bf
 3105 09de 00       		.byte	0
 3106 09df 16       		.uleb128 0x16
 3107 09e0 6F080000 		.4byte	.LASF107
 3108 09e4 01       		.byte	0x1
 3109 09e5 3705     		.2byte	0x537
 3110 09e7 00000000 		.4byte	.LFB23
 3111 09eb 42000000 		.4byte	.LFE23-.LFB23
 3112 09ef 01       		.uleb128 0x1
 3113 09f0 9C       		.byte	0x9c
 3114 09f1 400A0000 		.4byte	0xa40
 3115 09f5 17       		.uleb128 0x17
 3116 09f6 270A0000 		.4byte	.LASF95
 3117 09fa 01       		.byte	0x1
 3118 09fb 3705     		.2byte	0x537
 3119 09fd 82040000 		.4byte	0x482
ARM GAS  C:\Users\Mayur\AppData\Local\Temp\ccxZLytu.s 			page 92


 3120 0a01 01       		.uleb128 0x1
 3121 0a02 50       		.byte	0x50
 3122 0a03 17       		.uleb128 0x17
 3123 0a04 50080000 		.4byte	.LASF96
 3124 0a08 01       		.byte	0x1
 3125 0a09 3805     		.2byte	0x538
 3126 0a0b 78030000 		.4byte	0x378
 3127 0a0f 01       		.uleb128 0x1
 3128 0a10 51       		.byte	0x51
 3129 0a11 17       		.uleb128 0x17
 3130 0a12 540A0000 		.4byte	.LASF82
 3131 0a16 01       		.byte	0x1
 3132 0a17 3805     		.2byte	0x538
 3133 0a19 83000000 		.4byte	0x83
 3134 0a1d 01       		.uleb128 0x1
 3135 0a1e 52       		.byte	0x52
 3136 0a1f 19       		.uleb128 0x19
 3137 0a20 DA050000 		.4byte	.LASF89
 3138 0a24 01       		.byte	0x1
 3139 0a25 3A05     		.2byte	0x53a
 3140 0a27 83000000 		.4byte	0x83
 3141 0a2b FF050000 		.4byte	.LLST38
 3142 0a2f 19       		.uleb128 0x19
 3143 0a30 BE070000 		.4byte	.LASF108
 3144 0a34 01       		.byte	0x1
 3145 0a35 3B05     		.2byte	0x53b
 3146 0a37 83000000 		.4byte	0x83
 3147 0a3b 41060000 		.4byte	.LLST39
 3148 0a3f 00       		.byte	0
 3149 0a40 16       		.uleb128 0x16
 3150 0a41 26050000 		.4byte	.LASF109
 3151 0a45 01       		.byte	0x1
 3152 0a46 D204     		.2byte	0x4d2
 3153 0a48 00000000 		.4byte	.LFB21
 3154 0a4c 34000000 		.4byte	.LFE21-.LFB21
 3155 0a50 01       		.uleb128 0x1
 3156 0a51 9C       		.byte	0x9c
 3157 0a52 AC0A0000 		.4byte	0xaac
 3158 0a56 18       		.uleb128 0x18
 3159 0a57 5B0A0000 		.4byte	.LASF87
 3160 0a5b 01       		.byte	0x1
 3161 0a5c D204     		.2byte	0x4d2
 3162 0a5e 83000000 		.4byte	0x83
 3163 0a62 54060000 		.4byte	.LLST40
 3164 0a66 18       		.uleb128 0x18
 3165 0a67 0B010000 		.4byte	.LASF88
 3166 0a6b 01       		.byte	0x1
 3167 0a6c D204     		.2byte	0x4d2
 3168 0a6e 83000000 		.4byte	0x83
 3169 0a72 75060000 		.4byte	.LLST41
 3170 0a76 19       		.uleb128 0x19
 3171 0a77 E0070000 		.4byte	.LASF90
 3172 0a7b 01       		.byte	0x1
 3173 0a7c D404     		.2byte	0x4d4
 3174 0a7e 96050000 		.4byte	0x596
 3175 0a82 A1060000 		.4byte	.LLST42
 3176 0a86 19       		.uleb128 0x19
ARM GAS  C:\Users\Mayur\AppData\Local\Temp\ccxZLytu.s 			page 93


 3177 0a87 C7040000 		.4byte	.LASF81
 3178 0a8b 01       		.byte	0x1
 3179 0a8c D504     		.2byte	0x4d5
 3180 0a8e 78030000 		.4byte	0x378
 3181 0a92 B4060000 		.4byte	.LLST43
 3182 0a96 1E       		.uleb128 0x1e
 3183 0a97 270A0000 		.4byte	.LASF95
 3184 0a9b 01       		.byte	0x1
 3185 0a9c D604     		.2byte	0x4d6
 3186 0a9e 82040000 		.4byte	0x482
 3187 0aa2 1C       		.uleb128 0x1c
 3188 0aa3 2C000000 		.4byte	.LVL128
 3189 0aa7 DF090000 		.4byte	0x9df
 3190 0aab 00       		.byte	0
 3191 0aac 16       		.uleb128 0x16
 3192 0aad 0D090000 		.4byte	.LASF110
 3193 0ab1 01       		.byte	0x1
 3194 0ab2 C506     		.2byte	0x6c5
 3195 0ab4 00000000 		.4byte	.LFB26
 3196 0ab8 2C000000 		.4byte	.LFE26-.LFB26
 3197 0abc 01       		.uleb128 0x1
 3198 0abd 9C       		.byte	0x9c
 3199 0abe 2C0B0000 		.4byte	0xb2c
 3200 0ac2 18       		.uleb128 0x18
 3201 0ac3 5B0A0000 		.4byte	.LASF87
 3202 0ac7 01       		.byte	0x1
 3203 0ac8 C506     		.2byte	0x6c5
 3204 0aca 83000000 		.4byte	0x83
 3205 0ace DF060000 		.4byte	.LLST44
 3206 0ad2 18       		.uleb128 0x18
 3207 0ad3 0B010000 		.4byte	.LASF88
 3208 0ad7 01       		.byte	0x1
 3209 0ad8 C506     		.2byte	0x6c5
 3210 0ada 83000000 		.4byte	0x83
 3211 0ade 00070000 		.4byte	.LLST45
 3212 0ae2 19       		.uleb128 0x19
 3213 0ae3 E0070000 		.4byte	.LASF90
 3214 0ae7 01       		.byte	0x1
 3215 0ae8 C706     		.2byte	0x6c7
 3216 0aea 96050000 		.4byte	0x596
 3217 0aee 21070000 		.4byte	.LLST46
 3218 0af2 19       		.uleb128 0x19
 3219 0af3 15020000 		.4byte	.LASF102
 3220 0af7 01       		.byte	0x1
 3221 0af8 C806     		.2byte	0x6c8
 3222 0afa 17090000 		.4byte	0x917
 3223 0afe 34070000 		.4byte	.LLST47
 3224 0b02 19       		.uleb128 0x19
 3225 0b03 C7040000 		.4byte	.LASF81
 3226 0b07 01       		.byte	0x1
 3227 0b08 C906     		.2byte	0x6c9
 3228 0b0a 78030000 		.4byte	0x378
 3229 0b0e 47070000 		.4byte	.LLST48
 3230 0b12 19       		.uleb128 0x19
 3231 0b13 00000000 		.4byte	.LASF103
 3232 0b17 01       		.byte	0x1
 3233 0b18 CA06     		.2byte	0x6ca
ARM GAS  C:\Users\Mayur\AppData\Local\Temp\ccxZLytu.s 			page 94


 3234 0b1a 84030000 		.4byte	0x384
 3235 0b1e 8F070000 		.4byte	.LLST49
 3236 0b22 1C       		.uleb128 0x1c
 3237 0b23 24000000 		.4byte	.LVL140
 3238 0b27 77110000 		.4byte	0x1177
 3239 0b2b 00       		.byte	0
 3240 0b2c 16       		.uleb128 0x16
 3241 0b2d 26010000 		.4byte	.LASF111
 3242 0b31 01       		.byte	0x1
 3243 0b32 E906     		.2byte	0x6e9
 3244 0b34 00000000 		.4byte	.LFB27
 3245 0b38 2C000000 		.4byte	.LFE27-.LFB27
 3246 0b3c 01       		.uleb128 0x1
 3247 0b3d 9C       		.byte	0x9c
 3248 0b3e AC0B0000 		.4byte	0xbac
 3249 0b42 18       		.uleb128 0x18
 3250 0b43 5B0A0000 		.4byte	.LASF87
 3251 0b47 01       		.byte	0x1
 3252 0b48 E906     		.2byte	0x6e9
 3253 0b4a 83000000 		.4byte	0x83
 3254 0b4e B9070000 		.4byte	.LLST50
 3255 0b52 18       		.uleb128 0x18
 3256 0b53 0B010000 		.4byte	.LASF88
 3257 0b57 01       		.byte	0x1
 3258 0b58 E906     		.2byte	0x6e9
 3259 0b5a 83000000 		.4byte	0x83
 3260 0b5e DA070000 		.4byte	.LLST51
 3261 0b62 19       		.uleb128 0x19
 3262 0b63 E0070000 		.4byte	.LASF90
 3263 0b67 01       		.byte	0x1
 3264 0b68 EB06     		.2byte	0x6eb
 3265 0b6a 96050000 		.4byte	0x596
 3266 0b6e FB070000 		.4byte	.LLST52
 3267 0b72 19       		.uleb128 0x19
 3268 0b73 15020000 		.4byte	.LASF102
 3269 0b77 01       		.byte	0x1
 3270 0b78 EC06     		.2byte	0x6ec
 3271 0b7a 17090000 		.4byte	0x917
 3272 0b7e 0E080000 		.4byte	.LLST53
 3273 0b82 19       		.uleb128 0x19
 3274 0b83 C7040000 		.4byte	.LASF81
 3275 0b87 01       		.byte	0x1
 3276 0b88 ED06     		.2byte	0x6ed
 3277 0b8a 78030000 		.4byte	0x378
 3278 0b8e 21080000 		.4byte	.LLST54
 3279 0b92 19       		.uleb128 0x19
 3280 0b93 00000000 		.4byte	.LASF103
 3281 0b97 01       		.byte	0x1
 3282 0b98 EE06     		.2byte	0x6ee
 3283 0b9a 84030000 		.4byte	0x384
 3284 0b9e 69080000 		.4byte	.LLST55
 3285 0ba2 1C       		.uleb128 0x1c
 3286 0ba3 24000000 		.4byte	.LVL155
 3287 0ba7 6C110000 		.4byte	0x116c
 3288 0bab 00       		.byte	0
 3289 0bac 21       		.uleb128 0x21
 3290 0bad 4B030000 		.4byte	.LASF114
ARM GAS  C:\Users\Mayur\AppData\Local\Temp\ccxZLytu.s 			page 95


 3291 0bb1 01       		.byte	0x1
 3292 0bb2 1507     		.2byte	0x715
 3293 0bb4 83000000 		.4byte	0x83
 3294 0bb8 00000000 		.4byte	.LFB28
 3295 0bbc 18000000 		.4byte	.LFE28-.LFB28
 3296 0bc0 01       		.uleb128 0x1
 3297 0bc1 9C       		.byte	0x9c
 3298 0bc2 FE0B0000 		.4byte	0xbfe
 3299 0bc6 22       		.uleb128 0x22
 3300 0bc7 783100   		.ascii	"x1\000"
 3301 0bca 01       		.byte	0x1
 3302 0bcb 1507     		.2byte	0x715
 3303 0bcd 83000000 		.4byte	0x83
 3304 0bd1 93080000 		.4byte	.LLST56
 3305 0bd5 22       		.uleb128 0x22
 3306 0bd6 783200   		.ascii	"x2\000"
 3307 0bd9 01       		.byte	0x1
 3308 0bda 1507     		.2byte	0x715
 3309 0bdc 83000000 		.4byte	0x83
 3310 0be0 BC080000 		.4byte	.LLST57
 3311 0be4 23       		.uleb128 0x23
 3312 0be5 783300   		.ascii	"x3\000"
 3313 0be8 01       		.byte	0x1
 3314 0be9 1507     		.2byte	0x715
 3315 0beb 83000000 		.4byte	0x83
 3316 0bef 01       		.uleb128 0x1
 3317 0bf0 52       		.byte	0x52
 3318 0bf1 24       		.uleb128 0x24
 3319 0bf2 746D7000 		.ascii	"tmp\000"
 3320 0bf6 01       		.byte	0x1
 3321 0bf7 1707     		.2byte	0x717
 3322 0bf9 83000000 		.4byte	0x83
 3323 0bfd 00       		.byte	0
 3324 0bfe 16       		.uleb128 0x16
 3325 0bff C3070000 		.4byte	.LASF112
 3326 0c03 01       		.byte	0x1
 3327 0c04 6504     		.2byte	0x465
 3328 0c06 00000000 		.4byte	.LFB19
 3329 0c0a 54000000 		.4byte	.LFE19-.LFB19
 3330 0c0e 01       		.uleb128 0x1
 3331 0c0f 9C       		.byte	0x9c
 3332 0c10 750C0000 		.4byte	0xc75
 3333 0c14 18       		.uleb128 0x18
 3334 0c15 270A0000 		.4byte	.LASF95
 3335 0c19 01       		.byte	0x1
 3336 0c1a 6504     		.2byte	0x465
 3337 0c1c 82040000 		.4byte	0x482
 3338 0c20 DA080000 		.4byte	.LLST58
 3339 0c24 18       		.uleb128 0x18
 3340 0c25 50080000 		.4byte	.LASF96
 3341 0c29 01       		.byte	0x1
 3342 0c2a 6604     		.2byte	0x466
 3343 0c2c 78030000 		.4byte	0x378
 3344 0c30 0E090000 		.4byte	.LLST59
 3345 0c34 18       		.uleb128 0x18
 3346 0c35 540A0000 		.4byte	.LASF82
 3347 0c39 01       		.byte	0x1
ARM GAS  C:\Users\Mayur\AppData\Local\Temp\ccxZLytu.s 			page 96


 3348 0c3a 6604     		.2byte	0x466
 3349 0c3c 83000000 		.4byte	0x83
 3350 0c40 3A090000 		.4byte	.LLST60
 3351 0c44 19       		.uleb128 0x19
 3352 0c45 DA050000 		.4byte	.LASF89
 3353 0c49 01       		.byte	0x1
 3354 0c4a 6804     		.2byte	0x468
 3355 0c4c 83000000 		.4byte	0x83
 3356 0c50 7C090000 		.4byte	.LLST61
 3357 0c54 19       		.uleb128 0x19
 3358 0c55 BE070000 		.4byte	.LASF108
 3359 0c59 01       		.byte	0x1
 3360 0c5a 6C04     		.2byte	0x46c
 3361 0c5c 83000000 		.4byte	0x83
 3362 0c60 BE090000 		.4byte	.LLST62
 3363 0c64 1A       		.uleb128 0x1a
 3364 0c65 38000000 		.4byte	.LVL172
 3365 0c69 AC0B0000 		.4byte	0xbac
 3366 0c6d 1B       		.uleb128 0x1b
 3367 0c6e 01       		.uleb128 0x1
 3368 0c6f 51       		.byte	0x51
 3369 0c70 02       		.uleb128 0x2
 3370 0c71 79       		.byte	0x79
 3371 0c72 00       		.sleb128 0
 3372 0c73 00       		.byte	0
 3373 0c74 00       		.byte	0
 3374 0c75 16       		.uleb128 0x16
 3375 0c76 DA000000 		.4byte	.LASF113
 3376 0c7a 01       		.byte	0x1
 3377 0c7b 0604     		.2byte	0x406
 3378 0c7d 00000000 		.4byte	.LFB17
 3379 0c81 34000000 		.4byte	.LFE17-.LFB17
 3380 0c85 01       		.uleb128 0x1
 3381 0c86 9C       		.byte	0x9c
 3382 0c87 E10C0000 		.4byte	0xce1
 3383 0c8b 18       		.uleb128 0x18
 3384 0c8c 5B0A0000 		.4byte	.LASF87
 3385 0c90 01       		.byte	0x1
 3386 0c91 0604     		.2byte	0x406
 3387 0c93 83000000 		.4byte	0x83
 3388 0c97 D1090000 		.4byte	.LLST63
 3389 0c9b 18       		.uleb128 0x18
 3390 0c9c 0B010000 		.4byte	.LASF88
 3391 0ca0 01       		.byte	0x1
 3392 0ca1 0604     		.2byte	0x406
 3393 0ca3 83000000 		.4byte	0x83
 3394 0ca7 F2090000 		.4byte	.LLST64
 3395 0cab 19       		.uleb128 0x19
 3396 0cac E0070000 		.4byte	.LASF90
 3397 0cb0 01       		.byte	0x1
 3398 0cb1 0804     		.2byte	0x408
 3399 0cb3 96050000 		.4byte	0x596
 3400 0cb7 1E0A0000 		.4byte	.LLST65
 3401 0cbb 19       		.uleb128 0x19
 3402 0cbc C7040000 		.4byte	.LASF81
 3403 0cc0 01       		.byte	0x1
 3404 0cc1 0904     		.2byte	0x409
ARM GAS  C:\Users\Mayur\AppData\Local\Temp\ccxZLytu.s 			page 97


 3405 0cc3 78030000 		.4byte	0x378
 3406 0cc7 310A0000 		.4byte	.LLST66
 3407 0ccb 1E       		.uleb128 0x1e
 3408 0ccc 270A0000 		.4byte	.LASF95
 3409 0cd0 01       		.byte	0x1
 3410 0cd1 0A04     		.2byte	0x40a
 3411 0cd3 82040000 		.4byte	0x482
 3412 0cd7 1C       		.uleb128 0x1c
 3413 0cd8 2C000000 		.4byte	.LVL188
 3414 0cdc FE0B0000 		.4byte	0xbfe
 3415 0ce0 00       		.byte	0
 3416 0ce1 21       		.uleb128 0x21
 3417 0ce2 9E000000 		.4byte	.LASF115
 3418 0ce6 01       		.byte	0x1
 3419 0ce7 4507     		.2byte	0x745
 3420 0ce9 83000000 		.4byte	0x83
 3421 0ced 00000000 		.4byte	.LFB29
 3422 0cf1 12000000 		.4byte	.LFE29-.LFB29
 3423 0cf5 01       		.uleb128 0x1
 3424 0cf6 9C       		.byte	0x9c
 3425 0cf7 480D0000 		.4byte	0xd48
 3426 0cfb 18       		.uleb128 0x18
 3427 0cfc F6080000 		.4byte	.LASF116
 3428 0d00 01       		.byte	0x1
 3429 0d01 4507     		.2byte	0x745
 3430 0d03 83000000 		.4byte	0x83
 3431 0d07 5C0A0000 		.4byte	.LLST67
 3432 0d0b 18       		.uleb128 0x18
 3433 0d0c B7000000 		.4byte	.LASF117
 3434 0d10 01       		.byte	0x1
 3435 0d11 4507     		.2byte	0x745
 3436 0d13 83000000 		.4byte	0x83
 3437 0d17 7D0A0000 		.4byte	.LLST68
 3438 0d1b 22       		.uleb128 0x22
 3439 0d1c 6E00     		.ascii	"n\000"
 3440 0d1e 01       		.byte	0x1
 3441 0d1f 4507     		.2byte	0x745
 3442 0d21 83000000 		.4byte	0x83
 3443 0d25 9E0A0000 		.4byte	.LLST69
 3444 0d29 18       		.uleb128 0x18
 3445 0d2a 4F010000 		.4byte	.LASF118
 3446 0d2e 01       		.byte	0x1
 3447 0d2f 4507     		.2byte	0x745
 3448 0d31 83000000 		.4byte	0x83
 3449 0d35 BF0A0000 		.4byte	.LLST70
 3450 0d39 25       		.uleb128 0x25
 3451 0d3a 3C050000 		.4byte	.LASF119
 3452 0d3e 01       		.byte	0x1
 3453 0d3f 4707     		.2byte	0x747
 3454 0d41 83000000 		.4byte	0x83
 3455 0d45 01       		.uleb128 0x1
 3456 0d46 50       		.byte	0x50
 3457 0d47 00       		.byte	0
 3458 0d48 26       		.uleb128 0x26
 3459 0d49 EF000000 		.4byte	.LASF120
 3460 0d4d 01       		.byte	0x1
 3461 0d4e FF       		.byte	0xff
ARM GAS  C:\Users\Mayur\AppData\Local\Temp\ccxZLytu.s 			page 98


 3462 0d4f 83000000 		.4byte	0x83
 3463 0d53 00000000 		.4byte	.LFB4
 3464 0d57 A0000000 		.4byte	.LFE4-.LFB4
 3465 0d5b 01       		.uleb128 0x1
 3466 0d5c 9C       		.byte	0x9c
 3467 0d5d 240E0000 		.4byte	0xe24
 3468 0d61 18       		.uleb128 0x18
 3469 0d62 15020000 		.4byte	.LASF102
 3470 0d66 01       		.byte	0x1
 3471 0d67 0001     		.2byte	0x100
 3472 0d69 17090000 		.4byte	0x917
 3473 0d6d E00A0000 		.4byte	.LLST71
 3474 0d71 18       		.uleb128 0x18
 3475 0d72 C7040000 		.4byte	.LASF81
 3476 0d76 01       		.byte	0x1
 3477 0d77 0101     		.2byte	0x101
 3478 0d79 78030000 		.4byte	0x378
 3479 0d7d 0C0B0000 		.4byte	.LLST72
 3480 0d81 18       		.uleb128 0x18
 3481 0d82 540A0000 		.4byte	.LASF82
 3482 0d86 01       		.byte	0x1
 3483 0d87 0201     		.2byte	0x102
 3484 0d89 83000000 		.4byte	0x83
 3485 0d8d 380B0000 		.4byte	.LLST73
 3486 0d91 19       		.uleb128 0x19
 3487 0d92 20030000 		.4byte	.LASF121
 3488 0d96 01       		.byte	0x1
 3489 0d97 0401     		.2byte	0x104
 3490 0d99 83000000 		.4byte	0x83
 3491 0d9d 570B0000 		.4byte	.LLST74
 3492 0da1 19       		.uleb128 0x19
 3493 0da2 7E090000 		.4byte	.LASF122
 3494 0da6 01       		.byte	0x1
 3495 0da7 0501     		.2byte	0x105
 3496 0da9 83000000 		.4byte	0x83
 3497 0dad 8D0B0000 		.4byte	.LLST75
 3498 0db1 19       		.uleb128 0x19
 3499 0db2 DA050000 		.4byte	.LASF89
 3500 0db6 01       		.byte	0x1
 3501 0db7 0601     		.2byte	0x106
 3502 0db9 83000000 		.4byte	0x83
 3503 0dbd B60B0000 		.4byte	.LLST76
 3504 0dc1 19       		.uleb128 0x19
 3505 0dc2 11000000 		.4byte	.LASF123
 3506 0dc6 01       		.byte	0x1
 3507 0dc7 0701     		.2byte	0x107
 3508 0dc9 83000000 		.4byte	0x83
 3509 0dcd F80B0000 		.4byte	.LLST77
 3510 0dd1 27       		.uleb128 0x27
 3511 0dd2 55010000 		.4byte	.LASF124
 3512 0dd6 01       		.byte	0x1
 3513 0dd7 0801     		.2byte	0x108
 3514 0dd9 83000000 		.4byte	0x83
 3515 0ddd 00       		.byte	0
 3516 0dde 19       		.uleb128 0x19
 3517 0ddf D2050000 		.4byte	.LASF125
 3518 0de3 01       		.byte	0x1
ARM GAS  C:\Users\Mayur\AppData\Local\Temp\ccxZLytu.s 			page 99


 3519 0de4 0B01     		.2byte	0x10b
 3520 0de6 83000000 		.4byte	0x83
 3521 0dea 0C0C0000 		.4byte	.LLST78
 3522 0dee 1F       		.uleb128 0x1f
 3523 0def 4C000000 		.4byte	.LVL204
 3524 0df3 8E040000 		.4byte	0x48e
 3525 0df7 0F0E0000 		.4byte	0xe0f
 3526 0dfb 1B       		.uleb128 0x1b
 3527 0dfc 01       		.uleb128 0x1
 3528 0dfd 50       		.byte	0x50
 3529 0dfe 02       		.uleb128 0x2
 3530 0dff 76       		.byte	0x76
 3531 0e00 00       		.sleb128 0
 3532 0e01 1B       		.uleb128 0x1b
 3533 0e02 01       		.uleb128 0x1
 3534 0e03 51       		.byte	0x51
 3535 0e04 03       		.uleb128 0x3
 3536 0e05 91       		.byte	0x91
 3537 0e06 64       		.sleb128 -28
 3538 0e07 06       		.byte	0x6
 3539 0e08 1B       		.uleb128 0x1b
 3540 0e09 01       		.uleb128 0x1
 3541 0e0a 52       		.byte	0x52
 3542 0e0b 02       		.uleb128 0x2
 3543 0e0c 74       		.byte	0x74
 3544 0e0d 00       		.sleb128 0
 3545 0e0e 00       		.byte	0
 3546 0e0f 1A       		.uleb128 0x1a
 3547 0e10 82000000 		.4byte	.LVL210
 3548 0e14 E10C0000 		.4byte	0xce1
 3549 0e18 1B       		.uleb128 0x1b
 3550 0e19 01       		.uleb128 0x1
 3551 0e1a 52       		.byte	0x52
 3552 0e1b 01       		.uleb128 0x1
 3553 0e1c 31       		.byte	0x31
 3554 0e1d 1B       		.uleb128 0x1b
 3555 0e1e 01       		.uleb128 0x1
 3556 0e1f 53       		.byte	0x53
 3557 0e20 01       		.uleb128 0x1
 3558 0e21 38       		.byte	0x38
 3559 0e22 00       		.byte	0
 3560 0e23 00       		.byte	0
 3561 0e24 26       		.uleb128 0x26
 3562 0e25 48060000 		.4byte	.LASF126
 3563 0e29 01       		.byte	0x1
 3564 0e2a C8       		.byte	0xc8
 3565 0e2b A4000000 		.4byte	0xa4
 3566 0e2f 00000000 		.4byte	.LFB3
 3567 0e33 24000000 		.4byte	.LFE3-.LFB3
 3568 0e37 01       		.uleb128 0x1
 3569 0e38 9C       		.byte	0x9c
 3570 0e39 A10E0000 		.4byte	0xea1
 3571 0e3d 28       		.uleb128 0x28
 3572 0e3e 5B0A0000 		.4byte	.LASF87
 3573 0e42 01       		.byte	0x1
 3574 0e43 C8       		.byte	0xc8
 3575 0e44 83000000 		.4byte	0x83
ARM GAS  C:\Users\Mayur\AppData\Local\Temp\ccxZLytu.s 			page 100


 3576 0e48 2A0C0000 		.4byte	.LLST79
 3577 0e4c 28       		.uleb128 0x28
 3578 0e4d 0B010000 		.4byte	.LASF88
 3579 0e51 01       		.byte	0x1
 3580 0e52 C8       		.byte	0xc8
 3581 0e53 83000000 		.4byte	0x83
 3582 0e57 4B0C0000 		.4byte	.LLST80
 3583 0e5b 29       		.uleb128 0x29
 3584 0e5c 55010000 		.4byte	.LASF124
 3585 0e60 01       		.byte	0x1
 3586 0e61 CA       		.byte	0xca
 3587 0e62 83000000 		.4byte	0x83
 3588 0e66 6C0C0000 		.4byte	.LLST81
 3589 0e6a 29       		.uleb128 0x29
 3590 0e6b C7040000 		.4byte	.LASF81
 3591 0e6f 01       		.byte	0x1
 3592 0e70 CC       		.byte	0xcc
 3593 0e71 78030000 		.4byte	0x378
 3594 0e75 8B0C0000 		.4byte	.LLST82
 3595 0e79 29       		.uleb128 0x29
 3596 0e7a E0070000 		.4byte	.LASF90
 3597 0e7e 01       		.byte	0x1
 3598 0e7f CD       		.byte	0xcd
 3599 0e80 96050000 		.4byte	0x596
 3600 0e84 B60C0000 		.4byte	.LLST83
 3601 0e88 29       		.uleb128 0x29
 3602 0e89 15020000 		.4byte	.LASF102
 3603 0e8d 01       		.byte	0x1
 3604 0e8e CE       		.byte	0xce
 3605 0e8f 17090000 		.4byte	0x917
 3606 0e93 C90C0000 		.4byte	.LLST84
 3607 0e97 1C       		.uleb128 0x1c
 3608 0e98 1C000000 		.4byte	.LVL224
 3609 0e9c 480D0000 		.4byte	0xd48
 3610 0ea0 00       		.byte	0
 3611 0ea1 26       		.uleb128 0x26
 3612 0ea2 95010000 		.4byte	.LASF127
 3613 0ea6 01       		.byte	0x1
 3614 0ea7 8F       		.byte	0x8f
 3615 0ea8 A4000000 		.4byte	0xa4
 3616 0eac 00000000 		.4byte	.LFB2
 3617 0eb0 2C000000 		.4byte	.LFE2-.LFB2
 3618 0eb4 01       		.uleb128 0x1
 3619 0eb5 9C       		.byte	0x9c
 3620 0eb6 1C0F0000 		.4byte	0xf1c
 3621 0eba 28       		.uleb128 0x28
 3622 0ebb 5B0A0000 		.4byte	.LASF87
 3623 0ebf 01       		.byte	0x1
 3624 0ec0 8F       		.byte	0x8f
 3625 0ec1 83000000 		.4byte	0x83
 3626 0ec5 DC0C0000 		.4byte	.LLST85
 3627 0ec9 29       		.uleb128 0x29
 3628 0eca 0B010000 		.4byte	.LASF88
 3629 0ece 01       		.byte	0x1
 3630 0ecf 91       		.byte	0x91
 3631 0ed0 83000000 		.4byte	0x83
 3632 0ed4 080D0000 		.4byte	.LLST86
ARM GAS  C:\Users\Mayur\AppData\Local\Temp\ccxZLytu.s 			page 101


 3633 0ed8 29       		.uleb128 0x29
 3634 0ed9 90000000 		.4byte	.LASF92
 3635 0edd 01       		.byte	0x1
 3636 0ede 92       		.byte	0x92
 3637 0edf 83000000 		.4byte	0x83
 3638 0ee3 490D0000 		.4byte	.LLST87
 3639 0ee7 29       		.uleb128 0x29
 3640 0ee8 E0070000 		.4byte	.LASF90
 3641 0eec 01       		.byte	0x1
 3642 0eed 94       		.byte	0x94
 3643 0eee 96050000 		.4byte	0x596
 3644 0ef2 5C0D0000 		.4byte	.LLST88
 3645 0ef6 29       		.uleb128 0x29
 3646 0ef7 16060000 		.4byte	.LASF128
 3647 0efb 01       		.byte	0x1
 3648 0efc 95       		.byte	0x95
 3649 0efd A4000000 		.4byte	0xa4
 3650 0f01 6F0D0000 		.4byte	.LLST89
 3651 0f05 1A       		.uleb128 0x1a
 3652 0f06 18000000 		.4byte	.LVL230
 3653 0f0a 240E0000 		.4byte	0xe24
 3654 0f0e 1B       		.uleb128 0x1b
 3655 0f0f 01       		.uleb128 0x1
 3656 0f10 50       		.byte	0x50
 3657 0f11 02       		.uleb128 0x2
 3658 0f12 76       		.byte	0x76
 3659 0f13 00       		.sleb128 0
 3660 0f14 1B       		.uleb128 0x1b
 3661 0f15 01       		.uleb128 0x1
 3662 0f16 51       		.byte	0x51
 3663 0f17 02       		.uleb128 0x2
 3664 0f18 74       		.byte	0x74
 3665 0f19 00       		.sleb128 0
 3666 0f1a 00       		.byte	0
 3667 0f1b 00       		.byte	0
 3668 0f1c 26       		.uleb128 0x26
 3669 0f1d C8080000 		.4byte	.LASF129
 3670 0f21 01       		.byte	0x1
 3671 0f22 61       		.byte	0x61
 3672 0f23 A4000000 		.4byte	0xa4
 3673 0f27 00000000 		.4byte	.LFB1
 3674 0f2b 1C000000 		.4byte	.LFE1-.LFB1
 3675 0f2f 01       		.uleb128 0x1
 3676 0f30 9C       		.byte	0x9c
 3677 0f31 640F0000 		.4byte	0xf64
 3678 0f35 29       		.uleb128 0x29
 3679 0f36 5B0A0000 		.4byte	.LASF87
 3680 0f3a 01       		.byte	0x1
 3681 0f3b 63       		.byte	0x63
 3682 0f3c 83000000 		.4byte	0x83
 3683 0f40 990D0000 		.4byte	.LLST90
 3684 0f44 29       		.uleb128 0x29
 3685 0f45 16060000 		.4byte	.LASF128
 3686 0f49 01       		.byte	0x1
 3687 0f4a 64       		.byte	0x64
 3688 0f4b A4000000 		.4byte	0xa4
 3689 0f4f DB0D0000 		.4byte	.LLST91
ARM GAS  C:\Users\Mayur\AppData\Local\Temp\ccxZLytu.s 			page 102


 3690 0f53 1A       		.uleb128 0x1a
 3691 0f54 0E000000 		.4byte	.LVL239
 3692 0f58 A10E0000 		.4byte	0xea1
 3693 0f5c 1B       		.uleb128 0x1b
 3694 0f5d 01       		.uleb128 0x1
 3695 0f5e 50       		.byte	0x50
 3696 0f5f 02       		.uleb128 0x2
 3697 0f60 74       		.byte	0x74
 3698 0f61 00       		.sleb128 0
 3699 0f62 00       		.byte	0
 3700 0f63 00       		.byte	0
 3701 0f64 16       		.uleb128 0x16
 3702 0f65 64090000 		.4byte	.LASF130
 3703 0f69 01       		.byte	0x1
 3704 0f6a 8703     		.2byte	0x387
 3705 0f6c 00000000 		.4byte	.LFB15
 3706 0f70 44000000 		.4byte	.LFE15-.LFB15
 3707 0f74 01       		.uleb128 0x1
 3708 0f75 9C       		.byte	0x9c
 3709 0f76 E00F0000 		.4byte	0xfe0
 3710 0f7a 18       		.uleb128 0x18
 3711 0f7b 270A0000 		.4byte	.LASF95
 3712 0f7f 01       		.byte	0x1
 3713 0f80 8703     		.2byte	0x387
 3714 0f82 82040000 		.4byte	0x482
 3715 0f86 050E0000 		.4byte	.LLST92
 3716 0f8a 18       		.uleb128 0x18
 3717 0f8b 50080000 		.4byte	.LASF96
 3718 0f8f 01       		.byte	0x1
 3719 0f90 8803     		.2byte	0x388
 3720 0f92 78030000 		.4byte	0x378
 3721 0f96 230E0000 		.4byte	.LLST93
 3722 0f9a 18       		.uleb128 0x18
 3723 0f9b 540A0000 		.4byte	.LASF82
 3724 0f9f 01       		.byte	0x1
 3725 0fa0 8803     		.2byte	0x388
 3726 0fa2 83000000 		.4byte	0x83
 3727 0fa6 4F0E0000 		.4byte	.LLST94
 3728 0faa 19       		.uleb128 0x19
 3729 0fab DA050000 		.4byte	.LASF89
 3730 0faf 01       		.byte	0x1
 3731 0fb0 8A03     		.2byte	0x38a
 3732 0fb2 83000000 		.4byte	0x83
 3733 0fb6 910E0000 		.4byte	.LLST95
 3734 0fba 19       		.uleb128 0x19
 3735 0fbb BE070000 		.4byte	.LASF108
 3736 0fbf 01       		.byte	0x1
 3737 0fc0 8B03     		.2byte	0x38b
 3738 0fc2 83000000 		.4byte	0x83
 3739 0fc6 D30E0000 		.4byte	.LLST96
 3740 0fca 1A       		.uleb128 0x1a
 3741 0fcb 2C000000 		.4byte	.LVL251
 3742 0fcf E10C0000 		.4byte	0xce1
 3743 0fd3 1B       		.uleb128 0x1b
 3744 0fd4 01       		.uleb128 0x1
 3745 0fd5 52       		.byte	0x52
 3746 0fd6 02       		.uleb128 0x2
ARM GAS  C:\Users\Mayur\AppData\Local\Temp\ccxZLytu.s 			page 103


 3747 0fd7 08       		.byte	0x8
 3748 0fd8 80       		.byte	0x80
 3749 0fd9 1B       		.uleb128 0x1b
 3750 0fda 01       		.uleb128 0x1
 3751 0fdb 53       		.byte	0x53
 3752 0fdc 01       		.uleb128 0x1
 3753 0fdd 30       		.byte	0x30
 3754 0fde 00       		.byte	0
 3755 0fdf 00       		.byte	0
 3756 0fe0 16       		.uleb128 0x16
 3757 0fe1 14010000 		.4byte	.LASF131
 3758 0fe5 01       		.byte	0x1
 3759 0fe6 2103     		.2byte	0x321
 3760 0fe8 00000000 		.4byte	.LFB13
 3761 0fec 34000000 		.4byte	.LFE13-.LFB13
 3762 0ff0 01       		.uleb128 0x1
 3763 0ff1 9C       		.byte	0x9c
 3764 0ff2 4C100000 		.4byte	0x104c
 3765 0ff6 18       		.uleb128 0x18
 3766 0ff7 5B0A0000 		.4byte	.LASF87
 3767 0ffb 01       		.byte	0x1
 3768 0ffc 2103     		.2byte	0x321
 3769 0ffe 83000000 		.4byte	0x83
 3770 1002 E60E0000 		.4byte	.LLST97
 3771 1006 18       		.uleb128 0x18
 3772 1007 0B010000 		.4byte	.LASF88
 3773 100b 01       		.byte	0x1
 3774 100c 2103     		.2byte	0x321
 3775 100e 83000000 		.4byte	0x83
 3776 1012 070F0000 		.4byte	.LLST98
 3777 1016 19       		.uleb128 0x19
 3778 1017 E0070000 		.4byte	.LASF90
 3779 101b 01       		.byte	0x1
 3780 101c 2303     		.2byte	0x323
 3781 101e 96050000 		.4byte	0x596
 3782 1022 330F0000 		.4byte	.LLST99
 3783 1026 19       		.uleb128 0x19
 3784 1027 C7040000 		.4byte	.LASF81
 3785 102b 01       		.byte	0x1
 3786 102c 2403     		.2byte	0x324
 3787 102e 78030000 		.4byte	0x378
 3788 1032 460F0000 		.4byte	.LLST100
 3789 1036 1E       		.uleb128 0x1e
 3790 1037 270A0000 		.4byte	.LASF95
 3791 103b 01       		.byte	0x1
 3792 103c 2503     		.2byte	0x325
 3793 103e 82040000 		.4byte	0x482
 3794 1042 1C       		.uleb128 0x1c
 3795 1043 2C000000 		.4byte	.LVL267
 3796 1047 640F0000 		.4byte	0xf64
 3797 104b 00       		.byte	0
 3798 104c 16       		.uleb128 0x16
 3799 104d 7F070000 		.4byte	.LASF132
 3800 1051 01       		.byte	0x1
 3801 1052 9F06     		.2byte	0x69f
 3802 1054 00000000 		.4byte	.LFB25
 3803 1058 22000000 		.4byte	.LFE25-.LFB25
ARM GAS  C:\Users\Mayur\AppData\Local\Temp\ccxZLytu.s 			page 104


 3804 105c 01       		.uleb128 0x1
 3805 105d 9C       		.byte	0x9c
 3806 105e EF100000 		.4byte	0x10ef
 3807 1062 18       		.uleb128 0x18
 3808 1063 270A0000 		.4byte	.LASF95
 3809 1067 01       		.byte	0x1
 3810 1068 9F06     		.2byte	0x69f
 3811 106a 82040000 		.4byte	0x482
 3812 106e 710F0000 		.4byte	.LLST101
 3813 1072 18       		.uleb128 0x18
 3814 1073 50080000 		.4byte	.LASF96
 3815 1077 01       		.byte	0x1
 3816 1078 A006     		.2byte	0x6a0
 3817 107a 78030000 		.4byte	0x378
 3818 107e 8F0F0000 		.4byte	.LLST102
 3819 1082 18       		.uleb128 0x18
 3820 1083 540A0000 		.4byte	.LASF82
 3821 1087 01       		.byte	0x1
 3822 1088 A006     		.2byte	0x6a0
 3823 108a 83000000 		.4byte	0x83
 3824 108e BB0F0000 		.4byte	.LLST103
 3825 1092 1F       		.uleb128 0x1f
 3826 1093 0C000000 		.4byte	.LVL269
 3827 1097 FE0B0000 		.4byte	0xbfe
 3828 109b B2100000 		.4byte	0x10b2
 3829 109f 1B       		.uleb128 0x1b
 3830 10a0 01       		.uleb128 0x1
 3831 10a1 50       		.byte	0x50
 3832 10a2 02       		.uleb128 0x2
 3833 10a3 74       		.byte	0x74
 3834 10a4 00       		.sleb128 0
 3835 10a5 1B       		.uleb128 0x1b
 3836 10a6 01       		.uleb128 0x1
 3837 10a7 51       		.byte	0x51
 3838 10a8 02       		.uleb128 0x2
 3839 10a9 75       		.byte	0x75
 3840 10aa 00       		.sleb128 0
 3841 10ab 1B       		.uleb128 0x1b
 3842 10ac 01       		.uleb128 0x1
 3843 10ad 52       		.byte	0x52
 3844 10ae 02       		.uleb128 0x2
 3845 10af 76       		.byte	0x76
 3846 10b0 00       		.sleb128 0
 3847 10b1 00       		.byte	0
 3848 10b2 1F       		.uleb128 0x1f
 3849 10b3 16000000 		.4byte	.LVL271
 3850 10b7 640F0000 		.4byte	0xf64
 3851 10bb D2100000 		.4byte	0x10d2
 3852 10bf 1B       		.uleb128 0x1b
 3853 10c0 01       		.uleb128 0x1
 3854 10c1 50       		.byte	0x50
 3855 10c2 02       		.uleb128 0x2
 3856 10c3 74       		.byte	0x74
 3857 10c4 00       		.sleb128 0
 3858 10c5 1B       		.uleb128 0x1b
 3859 10c6 01       		.uleb128 0x1
 3860 10c7 51       		.byte	0x51
ARM GAS  C:\Users\Mayur\AppData\Local\Temp\ccxZLytu.s 			page 105


 3861 10c8 02       		.uleb128 0x2
 3862 10c9 75       		.byte	0x75
 3863 10ca 00       		.sleb128 0
 3864 10cb 1B       		.uleb128 0x1b
 3865 10cc 01       		.uleb128 0x1
 3866 10cd 52       		.byte	0x52
 3867 10ce 02       		.uleb128 0x2
 3868 10cf 76       		.byte	0x76
 3869 10d0 00       		.sleb128 0
 3870 10d1 00       		.byte	0
 3871 10d2 1A       		.uleb128 0x1a
 3872 10d3 20000000 		.4byte	.LVL272
 3873 10d7 DF090000 		.4byte	0x9df
 3874 10db 1B       		.uleb128 0x1b
 3875 10dc 01       		.uleb128 0x1
 3876 10dd 50       		.byte	0x50
 3877 10de 02       		.uleb128 0x2
 3878 10df 74       		.byte	0x74
 3879 10e0 00       		.sleb128 0
 3880 10e1 1B       		.uleb128 0x1b
 3881 10e2 01       		.uleb128 0x1
 3882 10e3 51       		.byte	0x51
 3883 10e4 02       		.uleb128 0x2
 3884 10e5 75       		.byte	0x75
 3885 10e6 00       		.sleb128 0
 3886 10e7 1B       		.uleb128 0x1b
 3887 10e8 01       		.uleb128 0x1
 3888 10e9 52       		.byte	0x52
 3889 10ea 02       		.uleb128 0x2
 3890 10eb 76       		.byte	0x76
 3891 10ec 00       		.sleb128 0
 3892 10ed 00       		.byte	0
 3893 10ee 00       		.byte	0
 3894 10ef 16       		.uleb128 0x16
 3895 10f0 640A0000 		.4byte	.LASF133
 3896 10f4 01       		.byte	0x1
 3897 10f5 6606     		.2byte	0x666
 3898 10f7 00000000 		.4byte	.LFB24
 3899 10fb 34000000 		.4byte	.LFE24-.LFB24
 3900 10ff 01       		.uleb128 0x1
 3901 1100 9C       		.byte	0x9c
 3902 1101 5B110000 		.4byte	0x115b
 3903 1105 18       		.uleb128 0x18
 3904 1106 5B0A0000 		.4byte	.LASF87
 3905 110a 01       		.byte	0x1
 3906 110b 6606     		.2byte	0x666
 3907 110d 83000000 		.4byte	0x83
 3908 1111 E70F0000 		.4byte	.LLST104
 3909 1115 18       		.uleb128 0x18
 3910 1116 0B010000 		.4byte	.LASF88
 3911 111a 01       		.byte	0x1
 3912 111b 6606     		.2byte	0x666
 3913 111d 83000000 		.4byte	0x83
 3914 1121 08100000 		.4byte	.LLST105
 3915 1125 19       		.uleb128 0x19
 3916 1126 E0070000 		.4byte	.LASF90
 3917 112a 01       		.byte	0x1
ARM GAS  C:\Users\Mayur\AppData\Local\Temp\ccxZLytu.s 			page 106


 3918 112b 6806     		.2byte	0x668
 3919 112d 96050000 		.4byte	0x596
 3920 1131 34100000 		.4byte	.LLST106
 3921 1135 19       		.uleb128 0x19
 3922 1136 C7040000 		.4byte	.LASF81
 3923 113a 01       		.byte	0x1
 3924 113b 6906     		.2byte	0x669
 3925 113d 78030000 		.4byte	0x378
 3926 1141 47100000 		.4byte	.LLST107
 3927 1145 1E       		.uleb128 0x1e
 3928 1146 270A0000 		.4byte	.LASF95
 3929 114a 01       		.byte	0x1
 3930 114b 6A06     		.2byte	0x66a
 3931 114d 82040000 		.4byte	0x482
 3932 1151 1C       		.uleb128 0x1c
 3933 1152 2C000000 		.4byte	.LVL285
 3934 1156 4C100000 		.4byte	0x104c
 3935 115a 00       		.byte	0
 3936 115b 2A       		.uleb128 0x2a
 3937 115c A6070000 		.4byte	.LASF139
 3938 1160 05       		.byte	0x5
 3939 1161 7204     		.2byte	0x472
 3940 1163 67110000 		.4byte	0x1167
 3941 1167 1D       		.uleb128 0x1d
 3942 1168 BE030000 		.4byte	0x3be
 3943 116c 2B       		.uleb128 0x2b
 3944 116d A6060000 		.4byte	.LASF134
 3945 1171 A6060000 		.4byte	.LASF134
 3946 1175 04       		.byte	0x4
 3947 1176 B8       		.byte	0xb8
 3948 1177 2B       		.uleb128 0x2b
 3949 1178 D1040000 		.4byte	.LASF135
 3950 117c D1040000 		.4byte	.LASF135
 3951 1180 04       		.byte	0x4
 3952 1181 BC       		.byte	0xbc
 3953 1182 00       		.byte	0
 3954              		.section	.debug_abbrev,"",%progbits
 3955              	.Ldebug_abbrev0:
 3956 0000 01       		.uleb128 0x1
 3957 0001 11       		.uleb128 0x11
 3958 0002 01       		.byte	0x1
 3959 0003 25       		.uleb128 0x25
 3960 0004 0E       		.uleb128 0xe
 3961 0005 13       		.uleb128 0x13
 3962 0006 0B       		.uleb128 0xb
 3963 0007 03       		.uleb128 0x3
 3964 0008 0E       		.uleb128 0xe
 3965 0009 1B       		.uleb128 0x1b
 3966 000a 0E       		.uleb128 0xe
 3967 000b 55       		.uleb128 0x55
 3968 000c 17       		.uleb128 0x17
 3969 000d 11       		.uleb128 0x11
 3970 000e 01       		.uleb128 0x1
 3971 000f 10       		.uleb128 0x10
 3972 0010 17       		.uleb128 0x17
 3973 0011 00       		.byte	0
 3974 0012 00       		.byte	0
ARM GAS  C:\Users\Mayur\AppData\Local\Temp\ccxZLytu.s 			page 107


 3975 0013 02       		.uleb128 0x2
 3976 0014 24       		.uleb128 0x24
 3977 0015 00       		.byte	0
 3978 0016 0B       		.uleb128 0xb
 3979 0017 0B       		.uleb128 0xb
 3980 0018 3E       		.uleb128 0x3e
 3981 0019 0B       		.uleb128 0xb
 3982 001a 03       		.uleb128 0x3
 3983 001b 0E       		.uleb128 0xe
 3984 001c 00       		.byte	0
 3985 001d 00       		.byte	0
 3986 001e 03       		.uleb128 0x3
 3987 001f 24       		.uleb128 0x24
 3988 0020 00       		.byte	0
 3989 0021 0B       		.uleb128 0xb
 3990 0022 0B       		.uleb128 0xb
 3991 0023 3E       		.uleb128 0x3e
 3992 0024 0B       		.uleb128 0xb
 3993 0025 03       		.uleb128 0x3
 3994 0026 08       		.uleb128 0x8
 3995 0027 00       		.byte	0
 3996 0028 00       		.byte	0
 3997 0029 04       		.uleb128 0x4
 3998 002a 16       		.uleb128 0x16
 3999 002b 00       		.byte	0
 4000 002c 03       		.uleb128 0x3
 4001 002d 0E       		.uleb128 0xe
 4002 002e 3A       		.uleb128 0x3a
 4003 002f 0B       		.uleb128 0xb
 4004 0030 3B       		.uleb128 0x3b
 4005 0031 05       		.uleb128 0x5
 4006 0032 49       		.uleb128 0x49
 4007 0033 13       		.uleb128 0x13
 4008 0034 00       		.byte	0
 4009 0035 00       		.byte	0
 4010 0036 05       		.uleb128 0x5
 4011 0037 0F       		.uleb128 0xf
 4012 0038 00       		.byte	0
 4013 0039 0B       		.uleb128 0xb
 4014 003a 0B       		.uleb128 0xb
 4015 003b 00       		.byte	0
 4016 003c 00       		.byte	0
 4017 003d 06       		.uleb128 0x6
 4018 003e 13       		.uleb128 0x13
 4019 003f 01       		.byte	0x1
 4020 0040 0B       		.uleb128 0xb
 4021 0041 0B       		.uleb128 0xb
 4022 0042 3A       		.uleb128 0x3a
 4023 0043 0B       		.uleb128 0xb
 4024 0044 3B       		.uleb128 0x3b
 4025 0045 0B       		.uleb128 0xb
 4026 0046 01       		.uleb128 0x1
 4027 0047 13       		.uleb128 0x13
 4028 0048 00       		.byte	0
 4029 0049 00       		.byte	0
 4030 004a 07       		.uleb128 0x7
 4031 004b 0D       		.uleb128 0xd
ARM GAS  C:\Users\Mayur\AppData\Local\Temp\ccxZLytu.s 			page 108


 4032 004c 00       		.byte	0
 4033 004d 03       		.uleb128 0x3
 4034 004e 0E       		.uleb128 0xe
 4035 004f 3A       		.uleb128 0x3a
 4036 0050 0B       		.uleb128 0xb
 4037 0051 3B       		.uleb128 0x3b
 4038 0052 0B       		.uleb128 0xb
 4039 0053 49       		.uleb128 0x49
 4040 0054 13       		.uleb128 0x13
 4041 0055 38       		.uleb128 0x38
 4042 0056 0B       		.uleb128 0xb
 4043 0057 00       		.byte	0
 4044 0058 00       		.byte	0
 4045 0059 08       		.uleb128 0x8
 4046 005a 16       		.uleb128 0x16
 4047 005b 00       		.byte	0
 4048 005c 03       		.uleb128 0x3
 4049 005d 0E       		.uleb128 0xe
 4050 005e 3A       		.uleb128 0x3a
 4051 005f 0B       		.uleb128 0xb
 4052 0060 3B       		.uleb128 0x3b
 4053 0061 0B       		.uleb128 0xb
 4054 0062 49       		.uleb128 0x49
 4055 0063 13       		.uleb128 0x13
 4056 0064 00       		.byte	0
 4057 0065 00       		.byte	0
 4058 0066 09       		.uleb128 0x9
 4059 0067 04       		.uleb128 0x4
 4060 0068 01       		.byte	0x1
 4061 0069 0B       		.uleb128 0xb
 4062 006a 0B       		.uleb128 0xb
 4063 006b 49       		.uleb128 0x49
 4064 006c 13       		.uleb128 0x13
 4065 006d 3A       		.uleb128 0x3a
 4066 006e 0B       		.uleb128 0xb
 4067 006f 3B       		.uleb128 0x3b
 4068 0070 0B       		.uleb128 0xb
 4069 0071 01       		.uleb128 0x1
 4070 0072 13       		.uleb128 0x13
 4071 0073 00       		.byte	0
 4072 0074 00       		.byte	0
 4073 0075 0A       		.uleb128 0xa
 4074 0076 28       		.uleb128 0x28
 4075 0077 00       		.byte	0
 4076 0078 03       		.uleb128 0x3
 4077 0079 0E       		.uleb128 0xe
 4078 007a 1C       		.uleb128 0x1c
 4079 007b 0B       		.uleb128 0xb
 4080 007c 00       		.byte	0
 4081 007d 00       		.byte	0
 4082 007e 0B       		.uleb128 0xb
 4083 007f 01       		.uleb128 0x1
 4084 0080 01       		.byte	0x1
 4085 0081 49       		.uleb128 0x49
 4086 0082 13       		.uleb128 0x13
 4087 0083 01       		.uleb128 0x1
 4088 0084 13       		.uleb128 0x13
ARM GAS  C:\Users\Mayur\AppData\Local\Temp\ccxZLytu.s 			page 109


 4089 0085 00       		.byte	0
 4090 0086 00       		.byte	0
 4091 0087 0C       		.uleb128 0xc
 4092 0088 21       		.uleb128 0x21
 4093 0089 00       		.byte	0
 4094 008a 49       		.uleb128 0x49
 4095 008b 13       		.uleb128 0x13
 4096 008c 2F       		.uleb128 0x2f
 4097 008d 0B       		.uleb128 0xb
 4098 008e 00       		.byte	0
 4099 008f 00       		.byte	0
 4100 0090 0D       		.uleb128 0xd
 4101 0091 13       		.uleb128 0x13
 4102 0092 01       		.byte	0x1
 4103 0093 0B       		.uleb128 0xb
 4104 0094 0B       		.uleb128 0xb
 4105 0095 3A       		.uleb128 0x3a
 4106 0096 0B       		.uleb128 0xb
 4107 0097 3B       		.uleb128 0x3b
 4108 0098 05       		.uleb128 0x5
 4109 0099 01       		.uleb128 0x1
 4110 009a 13       		.uleb128 0x13
 4111 009b 00       		.byte	0
 4112 009c 00       		.byte	0
 4113 009d 0E       		.uleb128 0xe
 4114 009e 0D       		.uleb128 0xd
 4115 009f 00       		.byte	0
 4116 00a0 03       		.uleb128 0x3
 4117 00a1 08       		.uleb128 0x8
 4118 00a2 3A       		.uleb128 0x3a
 4119 00a3 0B       		.uleb128 0xb
 4120 00a4 3B       		.uleb128 0x3b
 4121 00a5 05       		.uleb128 0x5
 4122 00a6 49       		.uleb128 0x49
 4123 00a7 13       		.uleb128 0x13
 4124 00a8 38       		.uleb128 0x38
 4125 00a9 0B       		.uleb128 0xb
 4126 00aa 00       		.byte	0
 4127 00ab 00       		.byte	0
 4128 00ac 0F       		.uleb128 0xf
 4129 00ad 0D       		.uleb128 0xd
 4130 00ae 00       		.byte	0
 4131 00af 03       		.uleb128 0x3
 4132 00b0 0E       		.uleb128 0xe
 4133 00b1 3A       		.uleb128 0x3a
 4134 00b2 0B       		.uleb128 0xb
 4135 00b3 3B       		.uleb128 0x3b
 4136 00b4 05       		.uleb128 0x5
 4137 00b5 49       		.uleb128 0x49
 4138 00b6 13       		.uleb128 0x13
 4139 00b7 38       		.uleb128 0x38
 4140 00b8 0B       		.uleb128 0xb
 4141 00b9 00       		.byte	0
 4142 00ba 00       		.byte	0
 4143 00bb 10       		.uleb128 0x10
 4144 00bc 0F       		.uleb128 0xf
 4145 00bd 00       		.byte	0
ARM GAS  C:\Users\Mayur\AppData\Local\Temp\ccxZLytu.s 			page 110


 4146 00be 0B       		.uleb128 0xb
 4147 00bf 0B       		.uleb128 0xb
 4148 00c0 49       		.uleb128 0x49
 4149 00c1 13       		.uleb128 0x13
 4150 00c2 00       		.byte	0
 4151 00c3 00       		.byte	0
 4152 00c4 11       		.uleb128 0x11
 4153 00c5 26       		.uleb128 0x26
 4154 00c6 00       		.byte	0
 4155 00c7 00       		.byte	0
 4156 00c8 00       		.byte	0
 4157 00c9 12       		.uleb128 0x12
 4158 00ca 13       		.uleb128 0x13
 4159 00cb 01       		.byte	0x1
 4160 00cc 0B       		.uleb128 0xb
 4161 00cd 05       		.uleb128 0x5
 4162 00ce 3A       		.uleb128 0x3a
 4163 00cf 0B       		.uleb128 0xb
 4164 00d0 3B       		.uleb128 0x3b
 4165 00d1 05       		.uleb128 0x5
 4166 00d2 01       		.uleb128 0x1
 4167 00d3 13       		.uleb128 0x13
 4168 00d4 00       		.byte	0
 4169 00d5 00       		.byte	0
 4170 00d6 13       		.uleb128 0x13
 4171 00d7 17       		.uleb128 0x17
 4172 00d8 01       		.byte	0x1
 4173 00d9 0B       		.uleb128 0xb
 4174 00da 0B       		.uleb128 0xb
 4175 00db 3A       		.uleb128 0x3a
 4176 00dc 0B       		.uleb128 0xb
 4177 00dd 3B       		.uleb128 0x3b
 4178 00de 05       		.uleb128 0x5
 4179 00df 01       		.uleb128 0x1
 4180 00e0 13       		.uleb128 0x13
 4181 00e1 00       		.byte	0
 4182 00e2 00       		.byte	0
 4183 00e3 14       		.uleb128 0x14
 4184 00e4 0D       		.uleb128 0xd
 4185 00e5 00       		.byte	0
 4186 00e6 03       		.uleb128 0x3
 4187 00e7 08       		.uleb128 0x8
 4188 00e8 3A       		.uleb128 0x3a
 4189 00e9 0B       		.uleb128 0xb
 4190 00ea 3B       		.uleb128 0x3b
 4191 00eb 05       		.uleb128 0x5
 4192 00ec 49       		.uleb128 0x49
 4193 00ed 13       		.uleb128 0x13
 4194 00ee 00       		.byte	0
 4195 00ef 00       		.byte	0
 4196 00f0 15       		.uleb128 0x15
 4197 00f1 0D       		.uleb128 0xd
 4198 00f2 00       		.byte	0
 4199 00f3 03       		.uleb128 0x3
 4200 00f4 0E       		.uleb128 0xe
 4201 00f5 3A       		.uleb128 0x3a
 4202 00f6 0B       		.uleb128 0xb
ARM GAS  C:\Users\Mayur\AppData\Local\Temp\ccxZLytu.s 			page 111


 4203 00f7 3B       		.uleb128 0x3b
 4204 00f8 05       		.uleb128 0x5
 4205 00f9 49       		.uleb128 0x49
 4206 00fa 13       		.uleb128 0x13
 4207 00fb 00       		.byte	0
 4208 00fc 00       		.byte	0
 4209 00fd 16       		.uleb128 0x16
 4210 00fe 2E       		.uleb128 0x2e
 4211 00ff 01       		.byte	0x1
 4212 0100 3F       		.uleb128 0x3f
 4213 0101 19       		.uleb128 0x19
 4214 0102 03       		.uleb128 0x3
 4215 0103 0E       		.uleb128 0xe
 4216 0104 3A       		.uleb128 0x3a
 4217 0105 0B       		.uleb128 0xb
 4218 0106 3B       		.uleb128 0x3b
 4219 0107 05       		.uleb128 0x5
 4220 0108 27       		.uleb128 0x27
 4221 0109 19       		.uleb128 0x19
 4222 010a 11       		.uleb128 0x11
 4223 010b 01       		.uleb128 0x1
 4224 010c 12       		.uleb128 0x12
 4225 010d 06       		.uleb128 0x6
 4226 010e 40       		.uleb128 0x40
 4227 010f 18       		.uleb128 0x18
 4228 0110 9742     		.uleb128 0x2117
 4229 0112 19       		.uleb128 0x19
 4230 0113 01       		.uleb128 0x1
 4231 0114 13       		.uleb128 0x13
 4232 0115 00       		.byte	0
 4233 0116 00       		.byte	0
 4234 0117 17       		.uleb128 0x17
 4235 0118 05       		.uleb128 0x5
 4236 0119 00       		.byte	0
 4237 011a 03       		.uleb128 0x3
 4238 011b 0E       		.uleb128 0xe
 4239 011c 3A       		.uleb128 0x3a
 4240 011d 0B       		.uleb128 0xb
 4241 011e 3B       		.uleb128 0x3b
 4242 011f 05       		.uleb128 0x5
 4243 0120 49       		.uleb128 0x49
 4244 0121 13       		.uleb128 0x13
 4245 0122 02       		.uleb128 0x2
 4246 0123 18       		.uleb128 0x18
 4247 0124 00       		.byte	0
 4248 0125 00       		.byte	0
 4249 0126 18       		.uleb128 0x18
 4250 0127 05       		.uleb128 0x5
 4251 0128 00       		.byte	0
 4252 0129 03       		.uleb128 0x3
 4253 012a 0E       		.uleb128 0xe
 4254 012b 3A       		.uleb128 0x3a
 4255 012c 0B       		.uleb128 0xb
 4256 012d 3B       		.uleb128 0x3b
 4257 012e 05       		.uleb128 0x5
 4258 012f 49       		.uleb128 0x49
 4259 0130 13       		.uleb128 0x13
ARM GAS  C:\Users\Mayur\AppData\Local\Temp\ccxZLytu.s 			page 112


 4260 0131 02       		.uleb128 0x2
 4261 0132 17       		.uleb128 0x17
 4262 0133 00       		.byte	0
 4263 0134 00       		.byte	0
 4264 0135 19       		.uleb128 0x19
 4265 0136 34       		.uleb128 0x34
 4266 0137 00       		.byte	0
 4267 0138 03       		.uleb128 0x3
 4268 0139 0E       		.uleb128 0xe
 4269 013a 3A       		.uleb128 0x3a
 4270 013b 0B       		.uleb128 0xb
 4271 013c 3B       		.uleb128 0x3b
 4272 013d 05       		.uleb128 0x5
 4273 013e 49       		.uleb128 0x49
 4274 013f 13       		.uleb128 0x13
 4275 0140 02       		.uleb128 0x2
 4276 0141 17       		.uleb128 0x17
 4277 0142 00       		.byte	0
 4278 0143 00       		.byte	0
 4279 0144 1A       		.uleb128 0x1a
 4280 0145 898201   		.uleb128 0x4109
 4281 0148 01       		.byte	0x1
 4282 0149 11       		.uleb128 0x11
 4283 014a 01       		.uleb128 0x1
 4284 014b 31       		.uleb128 0x31
 4285 014c 13       		.uleb128 0x13
 4286 014d 00       		.byte	0
 4287 014e 00       		.byte	0
 4288 014f 1B       		.uleb128 0x1b
 4289 0150 8A8201   		.uleb128 0x410a
 4290 0153 00       		.byte	0
 4291 0154 02       		.uleb128 0x2
 4292 0155 18       		.uleb128 0x18
 4293 0156 9142     		.uleb128 0x2111
 4294 0158 18       		.uleb128 0x18
 4295 0159 00       		.byte	0
 4296 015a 00       		.byte	0
 4297 015b 1C       		.uleb128 0x1c
 4298 015c 898201   		.uleb128 0x4109
 4299 015f 00       		.byte	0
 4300 0160 11       		.uleb128 0x11
 4301 0161 01       		.uleb128 0x1
 4302 0162 31       		.uleb128 0x31
 4303 0163 13       		.uleb128 0x13
 4304 0164 00       		.byte	0
 4305 0165 00       		.byte	0
 4306 0166 1D       		.uleb128 0x1d
 4307 0167 26       		.uleb128 0x26
 4308 0168 00       		.byte	0
 4309 0169 49       		.uleb128 0x49
 4310 016a 13       		.uleb128 0x13
 4311 016b 00       		.byte	0
 4312 016c 00       		.byte	0
 4313 016d 1E       		.uleb128 0x1e
 4314 016e 34       		.uleb128 0x34
 4315 016f 00       		.byte	0
 4316 0170 03       		.uleb128 0x3
ARM GAS  C:\Users\Mayur\AppData\Local\Temp\ccxZLytu.s 			page 113


 4317 0171 0E       		.uleb128 0xe
 4318 0172 3A       		.uleb128 0x3a
 4319 0173 0B       		.uleb128 0xb
 4320 0174 3B       		.uleb128 0x3b
 4321 0175 05       		.uleb128 0x5
 4322 0176 49       		.uleb128 0x49
 4323 0177 13       		.uleb128 0x13
 4324 0178 00       		.byte	0
 4325 0179 00       		.byte	0
 4326 017a 1F       		.uleb128 0x1f
 4327 017b 898201   		.uleb128 0x4109
 4328 017e 01       		.byte	0x1
 4329 017f 11       		.uleb128 0x11
 4330 0180 01       		.uleb128 0x1
 4331 0181 31       		.uleb128 0x31
 4332 0182 13       		.uleb128 0x13
 4333 0183 01       		.uleb128 0x1
 4334 0184 13       		.uleb128 0x13
 4335 0185 00       		.byte	0
 4336 0186 00       		.byte	0
 4337 0187 20       		.uleb128 0x20
 4338 0188 2E       		.uleb128 0x2e
 4339 0189 01       		.byte	0x1
 4340 018a 3F       		.uleb128 0x3f
 4341 018b 19       		.uleb128 0x19
 4342 018c 03       		.uleb128 0x3
 4343 018d 0E       		.uleb128 0xe
 4344 018e 3A       		.uleb128 0x3a
 4345 018f 0B       		.uleb128 0xb
 4346 0190 3B       		.uleb128 0x3b
 4347 0191 0B       		.uleb128 0xb
 4348 0192 27       		.uleb128 0x27
 4349 0193 19       		.uleb128 0x19
 4350 0194 11       		.uleb128 0x11
 4351 0195 01       		.uleb128 0x1
 4352 0196 12       		.uleb128 0x12
 4353 0197 06       		.uleb128 0x6
 4354 0198 40       		.uleb128 0x40
 4355 0199 18       		.uleb128 0x18
 4356 019a 9742     		.uleb128 0x2117
 4357 019c 19       		.uleb128 0x19
 4358 019d 01       		.uleb128 0x1
 4359 019e 13       		.uleb128 0x13
 4360 019f 00       		.byte	0
 4361 01a0 00       		.byte	0
 4362 01a1 21       		.uleb128 0x21
 4363 01a2 2E       		.uleb128 0x2e
 4364 01a3 01       		.byte	0x1
 4365 01a4 3F       		.uleb128 0x3f
 4366 01a5 19       		.uleb128 0x19
 4367 01a6 03       		.uleb128 0x3
 4368 01a7 0E       		.uleb128 0xe
 4369 01a8 3A       		.uleb128 0x3a
 4370 01a9 0B       		.uleb128 0xb
 4371 01aa 3B       		.uleb128 0x3b
 4372 01ab 05       		.uleb128 0x5
 4373 01ac 27       		.uleb128 0x27
ARM GAS  C:\Users\Mayur\AppData\Local\Temp\ccxZLytu.s 			page 114


 4374 01ad 19       		.uleb128 0x19
 4375 01ae 49       		.uleb128 0x49
 4376 01af 13       		.uleb128 0x13
 4377 01b0 11       		.uleb128 0x11
 4378 01b1 01       		.uleb128 0x1
 4379 01b2 12       		.uleb128 0x12
 4380 01b3 06       		.uleb128 0x6
 4381 01b4 40       		.uleb128 0x40
 4382 01b5 18       		.uleb128 0x18
 4383 01b6 9742     		.uleb128 0x2117
 4384 01b8 19       		.uleb128 0x19
 4385 01b9 01       		.uleb128 0x1
 4386 01ba 13       		.uleb128 0x13
 4387 01bb 00       		.byte	0
 4388 01bc 00       		.byte	0
 4389 01bd 22       		.uleb128 0x22
 4390 01be 05       		.uleb128 0x5
 4391 01bf 00       		.byte	0
 4392 01c0 03       		.uleb128 0x3
 4393 01c1 08       		.uleb128 0x8
 4394 01c2 3A       		.uleb128 0x3a
 4395 01c3 0B       		.uleb128 0xb
 4396 01c4 3B       		.uleb128 0x3b
 4397 01c5 05       		.uleb128 0x5
 4398 01c6 49       		.uleb128 0x49
 4399 01c7 13       		.uleb128 0x13
 4400 01c8 02       		.uleb128 0x2
 4401 01c9 17       		.uleb128 0x17
 4402 01ca 00       		.byte	0
 4403 01cb 00       		.byte	0
 4404 01cc 23       		.uleb128 0x23
 4405 01cd 05       		.uleb128 0x5
 4406 01ce 00       		.byte	0
 4407 01cf 03       		.uleb128 0x3
 4408 01d0 08       		.uleb128 0x8
 4409 01d1 3A       		.uleb128 0x3a
 4410 01d2 0B       		.uleb128 0xb
 4411 01d3 3B       		.uleb128 0x3b
 4412 01d4 05       		.uleb128 0x5
 4413 01d5 49       		.uleb128 0x49
 4414 01d6 13       		.uleb128 0x13
 4415 01d7 02       		.uleb128 0x2
 4416 01d8 18       		.uleb128 0x18
 4417 01d9 00       		.byte	0
 4418 01da 00       		.byte	0
 4419 01db 24       		.uleb128 0x24
 4420 01dc 34       		.uleb128 0x34
 4421 01dd 00       		.byte	0
 4422 01de 03       		.uleb128 0x3
 4423 01df 08       		.uleb128 0x8
 4424 01e0 3A       		.uleb128 0x3a
 4425 01e1 0B       		.uleb128 0xb
 4426 01e2 3B       		.uleb128 0x3b
 4427 01e3 05       		.uleb128 0x5
 4428 01e4 49       		.uleb128 0x49
 4429 01e5 13       		.uleb128 0x13
 4430 01e6 00       		.byte	0
ARM GAS  C:\Users\Mayur\AppData\Local\Temp\ccxZLytu.s 			page 115


 4431 01e7 00       		.byte	0
 4432 01e8 25       		.uleb128 0x25
 4433 01e9 34       		.uleb128 0x34
 4434 01ea 00       		.byte	0
 4435 01eb 03       		.uleb128 0x3
 4436 01ec 0E       		.uleb128 0xe
 4437 01ed 3A       		.uleb128 0x3a
 4438 01ee 0B       		.uleb128 0xb
 4439 01ef 3B       		.uleb128 0x3b
 4440 01f0 05       		.uleb128 0x5
 4441 01f1 49       		.uleb128 0x49
 4442 01f2 13       		.uleb128 0x13
 4443 01f3 02       		.uleb128 0x2
 4444 01f4 18       		.uleb128 0x18
 4445 01f5 00       		.byte	0
 4446 01f6 00       		.byte	0
 4447 01f7 26       		.uleb128 0x26
 4448 01f8 2E       		.uleb128 0x2e
 4449 01f9 01       		.byte	0x1
 4450 01fa 3F       		.uleb128 0x3f
 4451 01fb 19       		.uleb128 0x19
 4452 01fc 03       		.uleb128 0x3
 4453 01fd 0E       		.uleb128 0xe
 4454 01fe 3A       		.uleb128 0x3a
 4455 01ff 0B       		.uleb128 0xb
 4456 0200 3B       		.uleb128 0x3b
 4457 0201 0B       		.uleb128 0xb
 4458 0202 27       		.uleb128 0x27
 4459 0203 19       		.uleb128 0x19
 4460 0204 49       		.uleb128 0x49
 4461 0205 13       		.uleb128 0x13
 4462 0206 11       		.uleb128 0x11
 4463 0207 01       		.uleb128 0x1
 4464 0208 12       		.uleb128 0x12
 4465 0209 06       		.uleb128 0x6
 4466 020a 40       		.uleb128 0x40
 4467 020b 18       		.uleb128 0x18
 4468 020c 9742     		.uleb128 0x2117
 4469 020e 19       		.uleb128 0x19
 4470 020f 01       		.uleb128 0x1
 4471 0210 13       		.uleb128 0x13
 4472 0211 00       		.byte	0
 4473 0212 00       		.byte	0
 4474 0213 27       		.uleb128 0x27
 4475 0214 34       		.uleb128 0x34
 4476 0215 00       		.byte	0
 4477 0216 03       		.uleb128 0x3
 4478 0217 0E       		.uleb128 0xe
 4479 0218 3A       		.uleb128 0x3a
 4480 0219 0B       		.uleb128 0xb
 4481 021a 3B       		.uleb128 0x3b
 4482 021b 05       		.uleb128 0x5
 4483 021c 49       		.uleb128 0x49
 4484 021d 13       		.uleb128 0x13
 4485 021e 1C       		.uleb128 0x1c
 4486 021f 0B       		.uleb128 0xb
 4487 0220 00       		.byte	0
ARM GAS  C:\Users\Mayur\AppData\Local\Temp\ccxZLytu.s 			page 116


 4488 0221 00       		.byte	0
 4489 0222 28       		.uleb128 0x28
 4490 0223 05       		.uleb128 0x5
 4491 0224 00       		.byte	0
 4492 0225 03       		.uleb128 0x3
 4493 0226 0E       		.uleb128 0xe
 4494 0227 3A       		.uleb128 0x3a
 4495 0228 0B       		.uleb128 0xb
 4496 0229 3B       		.uleb128 0x3b
 4497 022a 0B       		.uleb128 0xb
 4498 022b 49       		.uleb128 0x49
 4499 022c 13       		.uleb128 0x13
 4500 022d 02       		.uleb128 0x2
 4501 022e 17       		.uleb128 0x17
 4502 022f 00       		.byte	0
 4503 0230 00       		.byte	0
 4504 0231 29       		.uleb128 0x29
 4505 0232 34       		.uleb128 0x34
 4506 0233 00       		.byte	0
 4507 0234 03       		.uleb128 0x3
 4508 0235 0E       		.uleb128 0xe
 4509 0236 3A       		.uleb128 0x3a
 4510 0237 0B       		.uleb128 0xb
 4511 0238 3B       		.uleb128 0x3b
 4512 0239 0B       		.uleb128 0xb
 4513 023a 49       		.uleb128 0x49
 4514 023b 13       		.uleb128 0x13
 4515 023c 02       		.uleb128 0x2
 4516 023d 17       		.uleb128 0x17
 4517 023e 00       		.byte	0
 4518 023f 00       		.byte	0
 4519 0240 2A       		.uleb128 0x2a
 4520 0241 34       		.uleb128 0x34
 4521 0242 00       		.byte	0
 4522 0243 03       		.uleb128 0x3
 4523 0244 0E       		.uleb128 0xe
 4524 0245 3A       		.uleb128 0x3a
 4525 0246 0B       		.uleb128 0xb
 4526 0247 3B       		.uleb128 0x3b
 4527 0248 05       		.uleb128 0x5
 4528 0249 49       		.uleb128 0x49
 4529 024a 13       		.uleb128 0x13
 4530 024b 3F       		.uleb128 0x3f
 4531 024c 19       		.uleb128 0x19
 4532 024d 3C       		.uleb128 0x3c
 4533 024e 19       		.uleb128 0x19
 4534 024f 00       		.byte	0
 4535 0250 00       		.byte	0
 4536 0251 2B       		.uleb128 0x2b
 4537 0252 2E       		.uleb128 0x2e
 4538 0253 00       		.byte	0
 4539 0254 3F       		.uleb128 0x3f
 4540 0255 19       		.uleb128 0x19
 4541 0256 3C       		.uleb128 0x3c
 4542 0257 19       		.uleb128 0x19
 4543 0258 6E       		.uleb128 0x6e
 4544 0259 0E       		.uleb128 0xe
ARM GAS  C:\Users\Mayur\AppData\Local\Temp\ccxZLytu.s 			page 117


 4545 025a 03       		.uleb128 0x3
 4546 025b 0E       		.uleb128 0xe
 4547 025c 3A       		.uleb128 0x3a
 4548 025d 0B       		.uleb128 0xb
 4549 025e 3B       		.uleb128 0x3b
 4550 025f 0B       		.uleb128 0xb
 4551 0260 00       		.byte	0
 4552 0261 00       		.byte	0
 4553 0262 00       		.byte	0
 4554              		.section	.debug_loc,"",%progbits
 4555              	.Ldebug_loc0:
 4556              	.LLST0:
 4557 0000 00000000 		.4byte	.LVL0
 4558 0004 04000000 		.4byte	.LVL1
 4559 0008 0100     		.2byte	0x1
 4560 000a 51       		.byte	0x51
 4561 000b 04000000 		.4byte	.LVL1
 4562 000f 1E000000 		.4byte	.LFE9
 4563 0013 0400     		.2byte	0x4
 4564 0015 F3       		.byte	0xf3
 4565 0016 01       		.uleb128 0x1
 4566 0017 51       		.byte	0x51
 4567 0018 9F       		.byte	0x9f
 4568 0019 00000000 		.4byte	0
 4569 001d 00000000 		.4byte	0
 4570              	.LLST1:
 4571 0021 00000000 		.4byte	.LVL0
 4572 0025 18000000 		.4byte	.LVL2
 4573 0029 0100     		.2byte	0x1
 4574 002b 52       		.byte	0x52
 4575 002c 18000000 		.4byte	.LVL2
 4576 0030 1E000000 		.4byte	.LFE9
 4577 0034 0400     		.2byte	0x4
 4578 0036 F3       		.byte	0xf3
 4579 0037 01       		.uleb128 0x1
 4580 0038 52       		.byte	0x52
 4581 0039 9F       		.byte	0x9f
 4582 003a 00000000 		.4byte	0
 4583 003e 00000000 		.4byte	0
 4584              	.LLST2:
 4585 0042 00000000 		.4byte	.LVL3
 4586 0046 0A000000 		.4byte	.LVL5
 4587 004a 0100     		.2byte	0x1
 4588 004c 50       		.byte	0x50
 4589 004d 0A000000 		.4byte	.LVL5
 4590 0051 1C000000 		.4byte	.LVL11
 4591 0055 0100     		.2byte	0x1
 4592 0057 56       		.byte	0x56
 4593 0058 1C000000 		.4byte	.LVL11
 4594 005c 1E000000 		.4byte	.LFE8
 4595 0060 0400     		.2byte	0x4
 4596 0062 F3       		.byte	0xf3
 4597 0063 01       		.uleb128 0x1
 4598 0064 50       		.byte	0x50
 4599 0065 9F       		.byte	0x9f
 4600 0066 00000000 		.4byte	0
 4601 006a 00000000 		.4byte	0
ARM GAS  C:\Users\Mayur\AppData\Local\Temp\ccxZLytu.s 			page 118


 4602              	.LLST3:
 4603 006e 00000000 		.4byte	.LVL3
 4604 0072 0A000000 		.4byte	.LVL5
 4605 0076 0100     		.2byte	0x1
 4606 0078 51       		.byte	0x51
 4607 0079 0A000000 		.4byte	.LVL5
 4608 007d 1C000000 		.4byte	.LVL10
 4609 0081 0100     		.2byte	0x1
 4610 0083 55       		.byte	0x55
 4611 0084 1C000000 		.4byte	.LVL10
 4612 0088 1E000000 		.4byte	.LFE8
 4613 008c 0400     		.2byte	0x4
 4614 008e F3       		.byte	0xf3
 4615 008f 01       		.uleb128 0x1
 4616 0090 51       		.byte	0x51
 4617 0091 9F       		.byte	0x9f
 4618 0092 00000000 		.4byte	0
 4619 0096 00000000 		.4byte	0
 4620              	.LLST4:
 4621 009a 06000000 		.4byte	.LVL4
 4622 009e 0A000000 		.4byte	.LVL5
 4623 00a2 0200     		.2byte	0x2
 4624 00a4 31       		.byte	0x31
 4625 00a5 9F       		.byte	0x9f
 4626 00a6 0A000000 		.4byte	.LVL5
 4627 00aa 16000000 		.4byte	.LVL7
 4628 00ae 0100     		.2byte	0x1
 4629 00b0 54       		.byte	0x54
 4630 00b1 16000000 		.4byte	.LVL7
 4631 00b5 18000000 		.4byte	.LVL8
 4632 00b9 0100     		.2byte	0x1
 4633 00bb 53       		.byte	0x53
 4634 00bc 18000000 		.4byte	.LVL8
 4635 00c0 1C000000 		.4byte	.LVL9
 4636 00c4 0100     		.2byte	0x1
 4637 00c6 54       		.byte	0x54
 4638 00c7 1C000000 		.4byte	.LVL9
 4639 00cb 1E000000 		.4byte	.LFE8
 4640 00cf 0300     		.2byte	0x3
 4641 00d1 73       		.byte	0x73
 4642 00d2 7F       		.sleb128 -1
 4643 00d3 9F       		.byte	0x9f
 4644 00d4 00000000 		.4byte	0
 4645 00d8 00000000 		.4byte	0
 4646              	.LLST5:
 4647 00dc 00000000 		.4byte	.LVL12
 4648 00e0 04000000 		.4byte	.LVL14
 4649 00e4 0100     		.2byte	0x1
 4650 00e6 50       		.byte	0x50
 4651 00e7 04000000 		.4byte	.LVL14
 4652 00eb 20000000 		.4byte	.LFE7
 4653 00ef 0400     		.2byte	0x4
 4654 00f1 F3       		.byte	0xf3
 4655 00f2 01       		.uleb128 0x1
 4656 00f3 50       		.byte	0x50
 4657 00f4 9F       		.byte	0x9f
 4658 00f5 00000000 		.4byte	0
ARM GAS  C:\Users\Mayur\AppData\Local\Temp\ccxZLytu.s 			page 119


 4659 00f9 00000000 		.4byte	0
 4660              	.LLST6:
 4661 00fd 00000000 		.4byte	.LVL12
 4662 0101 0C000000 		.4byte	.LVL16
 4663 0105 0100     		.2byte	0x1
 4664 0107 51       		.byte	0x51
 4665 0108 0C000000 		.4byte	.LVL16
 4666 010c 20000000 		.4byte	.LFE7
 4667 0110 0400     		.2byte	0x4
 4668 0112 F3       		.byte	0xf3
 4669 0113 01       		.uleb128 0x1
 4670 0114 51       		.byte	0x51
 4671 0115 9F       		.byte	0x9f
 4672 0116 00000000 		.4byte	0
 4673 011a 00000000 		.4byte	0
 4674              	.LLST7:
 4675 011e 02000000 		.4byte	.LVL13
 4676 0122 08000000 		.4byte	.LVL15
 4677 0126 0200     		.2byte	0x2
 4678 0128 30       		.byte	0x30
 4679 0129 9F       		.byte	0x9f
 4680 012a 08000000 		.4byte	.LVL15
 4681 012e 14000000 		.4byte	.LVL17
 4682 0132 0200     		.2byte	0x2
 4683 0134 73       		.byte	0x73
 4684 0135 08       		.sleb128 8
 4685 0136 14000000 		.4byte	.LVL17
 4686 013a 19000000 		.4byte	.LVL18-1
 4687 013e 0100     		.2byte	0x1
 4688 0140 50       		.byte	0x50
 4689 0141 00000000 		.4byte	0
 4690 0145 00000000 		.4byte	0
 4691              	.LLST8:
 4692 0149 08000000 		.4byte	.LVL15
 4693 014d 19000000 		.4byte	.LVL18-1
 4694 0151 0100     		.2byte	0x1
 4695 0153 53       		.byte	0x53
 4696 0154 00000000 		.4byte	0
 4697 0158 00000000 		.4byte	0
 4698              	.LLST9:
 4699 015c 00000000 		.4byte	.LVL19
 4700 0160 0E000000 		.4byte	.LVL23
 4701 0164 0100     		.2byte	0x1
 4702 0166 50       		.byte	0x50
 4703 0167 0E000000 		.4byte	.LVL23
 4704 016b 1E000000 		.4byte	.LVL28
 4705 016f 0100     		.2byte	0x1
 4706 0171 55       		.byte	0x55
 4707 0172 1E000000 		.4byte	.LVL28
 4708 0176 24000000 		.4byte	.LFE6
 4709 017a 0400     		.2byte	0x4
 4710 017c F3       		.byte	0xf3
 4711 017d 01       		.uleb128 0x1
 4712 017e 50       		.byte	0x50
 4713 017f 9F       		.byte	0x9f
 4714 0180 00000000 		.4byte	0
 4715 0184 00000000 		.4byte	0
ARM GAS  C:\Users\Mayur\AppData\Local\Temp\ccxZLytu.s 			page 120


 4716              	.LLST10:
 4717 0188 0C000000 		.4byte	.LVL22
 4718 018c 0E000000 		.4byte	.LVL23
 4719 0190 0100     		.2byte	0x1
 4720 0192 53       		.byte	0x53
 4721 0193 0E000000 		.4byte	.LVL23
 4722 0197 18000000 		.4byte	.LVL25
 4723 019b 0100     		.2byte	0x1
 4724 019d 54       		.byte	0x54
 4725 019e 18000000 		.4byte	.LVL25
 4726 01a2 1A000000 		.4byte	.LVL26
 4727 01a6 0100     		.2byte	0x1
 4728 01a8 53       		.byte	0x53
 4729 01a9 1A000000 		.4byte	.LVL26
 4730 01ad 1E000000 		.4byte	.LVL27
 4731 01b1 0100     		.2byte	0x1
 4732 01b3 54       		.byte	0x54
 4733 01b4 1E000000 		.4byte	.LVL27
 4734 01b8 24000000 		.4byte	.LFE6
 4735 01bc 0300     		.2byte	0x3
 4736 01be 73       		.byte	0x73
 4737 01bf 7F       		.sleb128 -1
 4738 01c0 9F       		.byte	0x9f
 4739 01c1 00000000 		.4byte	0
 4740 01c5 00000000 		.4byte	0
 4741              	.LLST11:
 4742 01c9 0C000000 		.4byte	.LVL22
 4743 01cd 0E000000 		.4byte	.LVL23
 4744 01d1 0100     		.2byte	0x1
 4745 01d3 53       		.byte	0x53
 4746 01d4 00000000 		.4byte	0
 4747 01d8 00000000 		.4byte	0
 4748              	.LLST12:
 4749 01dc 0A000000 		.4byte	.LVL21
 4750 01e0 0C000000 		.4byte	.LVL22
 4751 01e4 0100     		.2byte	0x1
 4752 01e6 53       		.byte	0x53
 4753 01e7 00000000 		.4byte	0
 4754 01eb 00000000 		.4byte	0
 4755              	.LLST13:
 4756 01ef 02000000 		.4byte	.LVL29
 4757 01f3 06000000 		.4byte	.LVL30
 4758 01f7 0200     		.2byte	0x2
 4759 01f9 38       		.byte	0x38
 4760 01fa 9F       		.byte	0x9f
 4761 01fb 06000000 		.4byte	.LVL30
 4762 01ff 0E000000 		.4byte	.LVL32
 4763 0203 0100     		.2byte	0x1
 4764 0205 54       		.byte	0x54
 4765 0206 0E000000 		.4byte	.LVL32
 4766 020a 10000000 		.4byte	.LVL33
 4767 020e 0100     		.2byte	0x1
 4768 0210 53       		.byte	0x53
 4769 0211 10000000 		.4byte	.LVL33
 4770 0215 14000000 		.4byte	.LVL34
 4771 0219 0100     		.2byte	0x1
 4772 021b 54       		.byte	0x54
ARM GAS  C:\Users\Mayur\AppData\Local\Temp\ccxZLytu.s 			page 121


 4773 021c 14000000 		.4byte	.LVL34
 4774 0220 16000000 		.4byte	.LFE5
 4775 0224 0300     		.2byte	0x3
 4776 0226 73       		.byte	0x73
 4777 0227 7F       		.sleb128 -1
 4778 0228 9F       		.byte	0x9f
 4779 0229 00000000 		.4byte	0
 4780 022d 00000000 		.4byte	0
 4781              	.LLST14:
 4782 0231 02000000 		.4byte	.LVL36
 4783 0235 06000000 		.4byte	.LVL37
 4784 0239 0200     		.2byte	0x2
 4785 023b 31       		.byte	0x31
 4786 023c 9F       		.byte	0x9f
 4787 023d 06000000 		.4byte	.LVL37
 4788 0241 1A000000 		.4byte	.LVL38
 4789 0245 0100     		.2byte	0x1
 4790 0247 54       		.byte	0x54
 4791 0248 1A000000 		.4byte	.LVL38
 4792 024c 1C000000 		.4byte	.LVL39
 4793 0250 0100     		.2byte	0x1
 4794 0252 53       		.byte	0x53
 4795 0253 1C000000 		.4byte	.LVL39
 4796 0257 20000000 		.4byte	.LVL40
 4797 025b 0100     		.2byte	0x1
 4798 025d 54       		.byte	0x54
 4799 025e 20000000 		.4byte	.LVL40
 4800 0262 22000000 		.4byte	.LFE14
 4801 0266 0300     		.2byte	0x3
 4802 0268 73       		.byte	0x73
 4803 0269 7F       		.sleb128 -1
 4804 026a 9F       		.byte	0x9f
 4805 026b 00000000 		.4byte	0
 4806 026f 00000000 		.4byte	0
 4807              	.LLST15:
 4808 0273 00000000 		.4byte	.LVL41
 4809 0277 06000000 		.4byte	.LVL43
 4810 027b 0100     		.2byte	0x1
 4811 027d 50       		.byte	0x50
 4812 027e 06000000 		.4byte	.LVL43
 4813 0282 34000000 		.4byte	.LFE12
 4814 0286 0400     		.2byte	0x4
 4815 0288 F3       		.byte	0xf3
 4816 0289 01       		.uleb128 0x1
 4817 028a 50       		.byte	0x50
 4818 028b 9F       		.byte	0x9f
 4819 028c 00000000 		.4byte	0
 4820 0290 00000000 		.4byte	0
 4821              	.LLST16:
 4822 0294 00000000 		.4byte	.LVL41
 4823 0298 10000000 		.4byte	.LVL45
 4824 029c 0100     		.2byte	0x1
 4825 029e 51       		.byte	0x51
 4826 029f 10000000 		.4byte	.LVL45
 4827 02a3 24000000 		.4byte	.LVL49
 4828 02a7 0100     		.2byte	0x1
 4829 02a9 54       		.byte	0x54
ARM GAS  C:\Users\Mayur\AppData\Local\Temp\ccxZLytu.s 			page 122


 4830 02aa 24000000 		.4byte	.LVL49
 4831 02ae 34000000 		.4byte	.LFE12
 4832 02b2 0400     		.2byte	0x4
 4833 02b4 F3       		.byte	0xf3
 4834 02b5 01       		.uleb128 0x1
 4835 02b6 51       		.byte	0x51
 4836 02b7 9F       		.byte	0x9f
 4837 02b8 00000000 		.4byte	0
 4838 02bc 00000000 		.4byte	0
 4839              	.LLST17:
 4840 02c0 0A000000 		.4byte	.LVL44
 4841 02c4 22000000 		.4byte	.LVL48
 4842 02c8 0100     		.2byte	0x1
 4843 02ca 53       		.byte	0x53
 4844 02cb 00000000 		.4byte	0
 4845 02cf 00000000 		.4byte	0
 4846              	.LLST18:
 4847 02d3 04000000 		.4byte	.LVL42
 4848 02d7 0A000000 		.4byte	.LVL44
 4849 02db 0200     		.2byte	0x2
 4850 02dd 30       		.byte	0x30
 4851 02de 9F       		.byte	0x9f
 4852 02df 0A000000 		.4byte	.LVL44
 4853 02e3 16000000 		.4byte	.LVL46
 4854 02e7 0200     		.2byte	0x2
 4855 02e9 73       		.byte	0x73
 4856 02ea 08       		.sleb128 8
 4857 02eb 16000000 		.4byte	.LVL46
 4858 02ef 2B000000 		.4byte	.LVL50-1
 4859 02f3 0100     		.2byte	0x1
 4860 02f5 51       		.byte	0x51
 4861 02f6 00000000 		.4byte	0
 4862 02fa 00000000 		.4byte	0
 4863              	.LLST19:
 4864 02fe 02000000 		.4byte	.LVL52
 4865 0302 06000000 		.4byte	.LVL53
 4866 0306 0200     		.2byte	0x2
 4867 0308 31       		.byte	0x31
 4868 0309 9F       		.byte	0x9f
 4869 030a 06000000 		.4byte	.LVL53
 4870 030e 20000000 		.4byte	.LVL54
 4871 0312 0100     		.2byte	0x1
 4872 0314 54       		.byte	0x54
 4873 0315 20000000 		.4byte	.LVL54
 4874 0319 22000000 		.4byte	.LVL55
 4875 031d 0100     		.2byte	0x1
 4876 031f 53       		.byte	0x53
 4877 0320 22000000 		.4byte	.LVL55
 4878 0324 26000000 		.4byte	.LVL56
 4879 0328 0100     		.2byte	0x1
 4880 032a 54       		.byte	0x54
 4881 032b 26000000 		.4byte	.LVL56
 4882 032f 28000000 		.4byte	.LFE18
 4883 0333 0300     		.2byte	0x3
 4884 0335 73       		.byte	0x73
 4885 0336 7F       		.sleb128 -1
 4886 0337 9F       		.byte	0x9f
ARM GAS  C:\Users\Mayur\AppData\Local\Temp\ccxZLytu.s 			page 123


 4887 0338 00000000 		.4byte	0
 4888 033c 00000000 		.4byte	0
 4889              	.LLST20:
 4890 0340 00000000 		.4byte	.LVL57
 4891 0344 06000000 		.4byte	.LVL59
 4892 0348 0100     		.2byte	0x1
 4893 034a 50       		.byte	0x50
 4894 034b 06000000 		.4byte	.LVL59
 4895 034f 34000000 		.4byte	.LFE16
 4896 0353 0400     		.2byte	0x4
 4897 0355 F3       		.byte	0xf3
 4898 0356 01       		.uleb128 0x1
 4899 0357 50       		.byte	0x50
 4900 0358 9F       		.byte	0x9f
 4901 0359 00000000 		.4byte	0
 4902 035d 00000000 		.4byte	0
 4903              	.LLST21:
 4904 0361 00000000 		.4byte	.LVL57
 4905 0365 10000000 		.4byte	.LVL61
 4906 0369 0100     		.2byte	0x1
 4907 036b 51       		.byte	0x51
 4908 036c 10000000 		.4byte	.LVL61
 4909 0370 24000000 		.4byte	.LVL65
 4910 0374 0100     		.2byte	0x1
 4911 0376 54       		.byte	0x54
 4912 0377 24000000 		.4byte	.LVL65
 4913 037b 34000000 		.4byte	.LFE16
 4914 037f 0400     		.2byte	0x4
 4915 0381 F3       		.byte	0xf3
 4916 0382 01       		.uleb128 0x1
 4917 0383 51       		.byte	0x51
 4918 0384 9F       		.byte	0x9f
 4919 0385 00000000 		.4byte	0
 4920 0389 00000000 		.4byte	0
 4921              	.LLST22:
 4922 038d 0A000000 		.4byte	.LVL60
 4923 0391 22000000 		.4byte	.LVL64
 4924 0395 0100     		.2byte	0x1
 4925 0397 53       		.byte	0x53
 4926 0398 00000000 		.4byte	0
 4927 039c 00000000 		.4byte	0
 4928              	.LLST23:
 4929 03a0 04000000 		.4byte	.LVL58
 4930 03a4 0A000000 		.4byte	.LVL60
 4931 03a8 0200     		.2byte	0x2
 4932 03aa 30       		.byte	0x30
 4933 03ab 9F       		.byte	0x9f
 4934 03ac 0A000000 		.4byte	.LVL60
 4935 03b0 16000000 		.4byte	.LVL62
 4936 03b4 0200     		.2byte	0x2
 4937 03b6 73       		.byte	0x73
 4938 03b7 08       		.sleb128 8
 4939 03b8 16000000 		.4byte	.LVL62
 4940 03bc 2B000000 		.4byte	.LVL66-1
 4941 03c0 0100     		.2byte	0x1
 4942 03c2 51       		.byte	0x51
 4943 03c3 00000000 		.4byte	0
ARM GAS  C:\Users\Mayur\AppData\Local\Temp\ccxZLytu.s 			page 124


 4944 03c7 00000000 		.4byte	0
 4945              	.LLST24:
 4946 03cb 02000000 		.4byte	.LVL68
 4947 03cf 06000000 		.4byte	.LVL69
 4948 03d3 0200     		.2byte	0x2
 4949 03d5 31       		.byte	0x31
 4950 03d6 9F       		.byte	0x9f
 4951 03d7 06000000 		.4byte	.LVL69
 4952 03db 24000000 		.4byte	.LVL70
 4953 03df 0100     		.2byte	0x1
 4954 03e1 54       		.byte	0x54
 4955 03e2 24000000 		.4byte	.LVL70
 4956 03e6 26000000 		.4byte	.LVL71
 4957 03ea 0100     		.2byte	0x1
 4958 03ec 53       		.byte	0x53
 4959 03ed 26000000 		.4byte	.LVL71
 4960 03f1 2A000000 		.4byte	.LVL72
 4961 03f5 0100     		.2byte	0x1
 4962 03f7 54       		.byte	0x54
 4963 03f8 2A000000 		.4byte	.LVL72
 4964 03fc 2C000000 		.4byte	.LFE22
 4965 0400 0300     		.2byte	0x3
 4966 0402 73       		.byte	0x73
 4967 0403 7F       		.sleb128 -1
 4968 0404 9F       		.byte	0x9f
 4969 0405 00000000 		.4byte	0
 4970 0409 00000000 		.4byte	0
 4971              	.LLST25:
 4972 040d 00000000 		.4byte	.LVL73
 4973 0411 1A000000 		.4byte	.LVL78
 4974 0415 0100     		.2byte	0x1
 4975 0417 50       		.byte	0x50
 4976 0418 1A000000 		.4byte	.LVL78
 4977 041c 78000000 		.4byte	.LVL92
 4978 0420 0100     		.2byte	0x1
 4979 0422 58       		.byte	0x58
 4980 0423 78000000 		.4byte	.LVL92
 4981 0427 88000000 		.4byte	.LFE11
 4982 042b 0400     		.2byte	0x4
 4983 042d F3       		.byte	0xf3
 4984 042e 01       		.uleb128 0x1
 4985 042f 50       		.byte	0x50
 4986 0430 9F       		.byte	0x9f
 4987 0431 00000000 		.4byte	0
 4988 0435 00000000 		.4byte	0
 4989              	.LLST26:
 4990 0439 18000000 		.4byte	.LVL77
 4991 043d 1A000000 		.4byte	.LVL78
 4992 0441 0100     		.2byte	0x1
 4993 0443 53       		.byte	0x53
 4994 0444 1A000000 		.4byte	.LVL78
 4995 0448 72000000 		.4byte	.LVL88
 4996 044c 0100     		.2byte	0x1
 4997 044e 55       		.byte	0x55
 4998 044f 72000000 		.4byte	.LVL88
 4999 0453 74000000 		.4byte	.LVL89
 5000 0457 0100     		.2byte	0x1
ARM GAS  C:\Users\Mayur\AppData\Local\Temp\ccxZLytu.s 			page 125


 5001 0459 53       		.byte	0x53
 5002 045a 74000000 		.4byte	.LVL89
 5003 045e 78000000 		.4byte	.LVL90
 5004 0462 0100     		.2byte	0x1
 5005 0464 55       		.byte	0x55
 5006 0465 78000000 		.4byte	.LVL90
 5007 0469 88000000 		.4byte	.LFE11
 5008 046d 0300     		.2byte	0x3
 5009 046f 73       		.byte	0x73
 5010 0470 7F       		.sleb128 -1
 5011 0471 9F       		.byte	0x9f
 5012 0472 00000000 		.4byte	0
 5013 0476 00000000 		.4byte	0
 5014              	.LLST27:
 5015 047a 18000000 		.4byte	.LVL77
 5016 047e 1A000000 		.4byte	.LVL78
 5017 0482 0100     		.2byte	0x1
 5018 0484 53       		.byte	0x53
 5019 0485 00000000 		.4byte	0
 5020 0489 00000000 		.4byte	0
 5021              	.LLST28:
 5022 048d 12000000 		.4byte	.LVL75
 5023 0491 18000000 		.4byte	.LVL77
 5024 0495 0100     		.2byte	0x1
 5025 0497 53       		.byte	0x53
 5026 0498 00000000 		.4byte	0
 5027 049c 00000000 		.4byte	0
 5028              	.LLST29:
 5029 04a0 0C000000 		.4byte	.LVL74
 5030 04a4 1A000000 		.4byte	.LVL78
 5031 04a8 0200     		.2byte	0x2
 5032 04aa 30       		.byte	0x30
 5033 04ab 9F       		.byte	0x9f
 5034 04ac 22000000 		.4byte	.LVL79
 5035 04b0 2E000000 		.4byte	.LVL80
 5036 04b4 0200     		.2byte	0x2
 5037 04b6 73       		.byte	0x73
 5038 04b7 08       		.sleb128 8
 5039 04b8 2E000000 		.4byte	.LVL80
 5040 04bc 72000000 		.4byte	.LVL88
 5041 04c0 0100     		.2byte	0x1
 5042 04c2 54       		.byte	0x54
 5043 04c3 00000000 		.4byte	0
 5044 04c7 00000000 		.4byte	0
 5045              	.LLST30:
 5046 04cb 1A000000 		.4byte	.LVL78
 5047 04cf 32000000 		.4byte	.LVL81
 5048 04d3 0100     		.2byte	0x1
 5049 04d5 56       		.byte	0x56
 5050 04d6 4A000000 		.4byte	.LVL83
 5051 04da 78000000 		.4byte	.LVL91
 5052 04de 0100     		.2byte	0x1
 5053 04e0 56       		.byte	0x56
 5054 04e1 00000000 		.4byte	0
 5055 04e5 00000000 		.4byte	0
 5056              	.LLST31:
 5057 04e9 16000000 		.4byte	.LVL76
ARM GAS  C:\Users\Mayur\AppData\Local\Temp\ccxZLytu.s 			page 126


 5058 04ed 1A000000 		.4byte	.LVL78
 5059 04f1 0100     		.2byte	0x1
 5060 04f3 52       		.byte	0x52
 5061 04f4 1A000000 		.4byte	.LVL78
 5062 04f8 78000000 		.4byte	.LVL93
 5063 04fc 0100     		.2byte	0x1
 5064 04fe 59       		.byte	0x59
 5065 04ff 00000000 		.4byte	0
 5066 0503 00000000 		.4byte	0
 5067              	.LLST32:
 5068 0507 0C000000 		.4byte	.LVL74
 5069 050b 1A000000 		.4byte	.LVL78
 5070 050f 0200     		.2byte	0x2
 5071 0511 30       		.byte	0x30
 5072 0512 9F       		.byte	0x9f
 5073 0513 32000000 		.4byte	.LVL81
 5074 0517 3E000000 		.4byte	.LVL82
 5075 051b 0200     		.2byte	0x2
 5076 051d 73       		.byte	0x73
 5077 051e 1C       		.sleb128 28
 5078 051f 3E000000 		.4byte	.LVL82
 5079 0523 72000000 		.4byte	.LVL88
 5080 0527 0100     		.2byte	0x1
 5081 0529 5A       		.byte	0x5a
 5082 052a 00000000 		.4byte	0
 5083 052e 00000000 		.4byte	0
 5084              	.LLST33:
 5085 0532 02000000 		.4byte	.LVL94
 5086 0536 06000000 		.4byte	.LVL95
 5087 053a 0200     		.2byte	0x2
 5088 053c 38       		.byte	0x38
 5089 053d 9F       		.byte	0x9f
 5090 053e 06000000 		.4byte	.LVL95
 5091 0542 0E000000 		.4byte	.LVL97
 5092 0546 0100     		.2byte	0x1
 5093 0548 54       		.byte	0x54
 5094 0549 0E000000 		.4byte	.LVL97
 5095 054d 10000000 		.4byte	.LVL98
 5096 0551 0100     		.2byte	0x1
 5097 0553 53       		.byte	0x53
 5098 0554 10000000 		.4byte	.LVL98
 5099 0558 14000000 		.4byte	.LVL99
 5100 055c 0100     		.2byte	0x1
 5101 055e 54       		.byte	0x54
 5102 055f 14000000 		.4byte	.LVL99
 5103 0563 16000000 		.4byte	.LFE10
 5104 0567 0300     		.2byte	0x3
 5105 0569 73       		.byte	0x73
 5106 056a 7F       		.sleb128 -1
 5107 056b 9F       		.byte	0x9f
 5108 056c 00000000 		.4byte	0
 5109 0570 00000000 		.4byte	0
 5110              	.LLST34:
 5111 0574 00000000 		.4byte	.LVL101
 5112 0578 06000000 		.4byte	.LVL103
 5113 057c 0100     		.2byte	0x1
 5114 057e 50       		.byte	0x50
ARM GAS  C:\Users\Mayur\AppData\Local\Temp\ccxZLytu.s 			page 127


 5115 057f 06000000 		.4byte	.LVL103
 5116 0583 34000000 		.4byte	.LFE20
 5117 0587 0400     		.2byte	0x4
 5118 0589 F3       		.byte	0xf3
 5119 058a 01       		.uleb128 0x1
 5120 058b 50       		.byte	0x50
 5121 058c 9F       		.byte	0x9f
 5122 058d 00000000 		.4byte	0
 5123 0591 00000000 		.4byte	0
 5124              	.LLST35:
 5125 0595 00000000 		.4byte	.LVL101
 5126 0599 10000000 		.4byte	.LVL105
 5127 059d 0100     		.2byte	0x1
 5128 059f 51       		.byte	0x51
 5129 05a0 10000000 		.4byte	.LVL105
 5130 05a4 24000000 		.4byte	.LVL109
 5131 05a8 0100     		.2byte	0x1
 5132 05aa 54       		.byte	0x54
 5133 05ab 24000000 		.4byte	.LVL109
 5134 05af 34000000 		.4byte	.LFE20
 5135 05b3 0400     		.2byte	0x4
 5136 05b5 F3       		.byte	0xf3
 5137 05b6 01       		.uleb128 0x1
 5138 05b7 51       		.byte	0x51
 5139 05b8 9F       		.byte	0x9f
 5140 05b9 00000000 		.4byte	0
 5141 05bd 00000000 		.4byte	0
 5142              	.LLST36:
 5143 05c1 0A000000 		.4byte	.LVL104
 5144 05c5 22000000 		.4byte	.LVL108
 5145 05c9 0100     		.2byte	0x1
 5146 05cb 53       		.byte	0x53
 5147 05cc 00000000 		.4byte	0
 5148 05d0 00000000 		.4byte	0
 5149              	.LLST37:
 5150 05d4 04000000 		.4byte	.LVL102
 5151 05d8 0A000000 		.4byte	.LVL104
 5152 05dc 0200     		.2byte	0x2
 5153 05de 30       		.byte	0x30
 5154 05df 9F       		.byte	0x9f
 5155 05e0 0A000000 		.4byte	.LVL104
 5156 05e4 16000000 		.4byte	.LVL106
 5157 05e8 0200     		.2byte	0x2
 5158 05ea 73       		.byte	0x73
 5159 05eb 08       		.sleb128 8
 5160 05ec 16000000 		.4byte	.LVL106
 5161 05f0 2B000000 		.4byte	.LVL110-1
 5162 05f4 0100     		.2byte	0x1
 5163 05f6 51       		.byte	0x51
 5164 05f7 00000000 		.4byte	0
 5165 05fb 00000000 		.4byte	0
 5166              	.LLST38:
 5167 05ff 02000000 		.4byte	.LVL112
 5168 0603 06000000 		.4byte	.LVL113
 5169 0607 0200     		.2byte	0x2
 5170 0609 31       		.byte	0x31
 5171 060a 9F       		.byte	0x9f
ARM GAS  C:\Users\Mayur\AppData\Local\Temp\ccxZLytu.s 			page 128


 5172 060b 06000000 		.4byte	.LVL113
 5173 060f 3A000000 		.4byte	.LVL116
 5174 0613 0100     		.2byte	0x1
 5175 0615 54       		.byte	0x54
 5176 0616 3A000000 		.4byte	.LVL116
 5177 061a 3C000000 		.4byte	.LVL117
 5178 061e 0100     		.2byte	0x1
 5179 0620 53       		.byte	0x53
 5180 0621 3C000000 		.4byte	.LVL117
 5181 0625 40000000 		.4byte	.LVL118
 5182 0629 0100     		.2byte	0x1
 5183 062b 54       		.byte	0x54
 5184 062c 40000000 		.4byte	.LVL118
 5185 0630 42000000 		.4byte	.LFE23
 5186 0634 0300     		.2byte	0x3
 5187 0636 73       		.byte	0x73
 5188 0637 7F       		.sleb128 -1
 5189 0638 9F       		.byte	0x9f
 5190 0639 00000000 		.4byte	0
 5191 063d 00000000 		.4byte	0
 5192              	.LLST39:
 5193 0641 2A000000 		.4byte	.LVL114
 5194 0645 38000000 		.4byte	.LVL115
 5195 0649 0100     		.2byte	0x1
 5196 064b 55       		.byte	0x55
 5197 064c 00000000 		.4byte	0
 5198 0650 00000000 		.4byte	0
 5199              	.LLST40:
 5200 0654 00000000 		.4byte	.LVL119
 5201 0658 06000000 		.4byte	.LVL121
 5202 065c 0100     		.2byte	0x1
 5203 065e 50       		.byte	0x50
 5204 065f 06000000 		.4byte	.LVL121
 5205 0663 34000000 		.4byte	.LFE21
 5206 0667 0400     		.2byte	0x4
 5207 0669 F3       		.byte	0xf3
 5208 066a 01       		.uleb128 0x1
 5209 066b 50       		.byte	0x50
 5210 066c 9F       		.byte	0x9f
 5211 066d 00000000 		.4byte	0
 5212 0671 00000000 		.4byte	0
 5213              	.LLST41:
 5214 0675 00000000 		.4byte	.LVL119
 5215 0679 10000000 		.4byte	.LVL123
 5216 067d 0100     		.2byte	0x1
 5217 067f 51       		.byte	0x51
 5218 0680 10000000 		.4byte	.LVL123
 5219 0684 24000000 		.4byte	.LVL127
 5220 0688 0100     		.2byte	0x1
 5221 068a 54       		.byte	0x54
 5222 068b 24000000 		.4byte	.LVL127
 5223 068f 34000000 		.4byte	.LFE21
 5224 0693 0400     		.2byte	0x4
 5225 0695 F3       		.byte	0xf3
 5226 0696 01       		.uleb128 0x1
 5227 0697 51       		.byte	0x51
 5228 0698 9F       		.byte	0x9f
ARM GAS  C:\Users\Mayur\AppData\Local\Temp\ccxZLytu.s 			page 129


 5229 0699 00000000 		.4byte	0
 5230 069d 00000000 		.4byte	0
 5231              	.LLST42:
 5232 06a1 0A000000 		.4byte	.LVL122
 5233 06a5 22000000 		.4byte	.LVL126
 5234 06a9 0100     		.2byte	0x1
 5235 06ab 53       		.byte	0x53
 5236 06ac 00000000 		.4byte	0
 5237 06b0 00000000 		.4byte	0
 5238              	.LLST43:
 5239 06b4 04000000 		.4byte	.LVL120
 5240 06b8 0A000000 		.4byte	.LVL122
 5241 06bc 0200     		.2byte	0x2
 5242 06be 30       		.byte	0x30
 5243 06bf 9F       		.byte	0x9f
 5244 06c0 0A000000 		.4byte	.LVL122
 5245 06c4 16000000 		.4byte	.LVL124
 5246 06c8 0200     		.2byte	0x2
 5247 06ca 73       		.byte	0x73
 5248 06cb 08       		.sleb128 8
 5249 06cc 16000000 		.4byte	.LVL124
 5250 06d0 2B000000 		.4byte	.LVL128-1
 5251 06d4 0100     		.2byte	0x1
 5252 06d6 51       		.byte	0x51
 5253 06d7 00000000 		.4byte	0
 5254 06db 00000000 		.4byte	0
 5255              	.LLST44:
 5256 06df 00000000 		.4byte	.LVL129
 5257 06e3 04000000 		.4byte	.LVL131
 5258 06e7 0100     		.2byte	0x1
 5259 06e9 50       		.byte	0x50
 5260 06ea 04000000 		.4byte	.LVL131
 5261 06ee 2C000000 		.4byte	.LFE26
 5262 06f2 0400     		.2byte	0x4
 5263 06f4 F3       		.byte	0xf3
 5264 06f5 01       		.uleb128 0x1
 5265 06f6 50       		.byte	0x50
 5266 06f7 9F       		.byte	0x9f
 5267 06f8 00000000 		.4byte	0
 5268 06fc 00000000 		.4byte	0
 5269              	.LLST45:
 5270 0700 00000000 		.4byte	.LVL129
 5271 0704 18000000 		.4byte	.LVL137
 5272 0708 0100     		.2byte	0x1
 5273 070a 51       		.byte	0x51
 5274 070b 18000000 		.4byte	.LVL137
 5275 070f 2C000000 		.4byte	.LFE26
 5276 0713 0400     		.2byte	0x4
 5277 0715 F3       		.byte	0xf3
 5278 0716 01       		.uleb128 0x1
 5279 0717 51       		.byte	0x51
 5280 0718 9F       		.byte	0x9f
 5281 0719 00000000 		.4byte	0
 5282 071d 00000000 		.4byte	0
 5283              	.LLST46:
 5284 0721 08000000 		.4byte	.LVL132
 5285 0725 20000000 		.4byte	.LVL139
ARM GAS  C:\Users\Mayur\AppData\Local\Temp\ccxZLytu.s 			page 130


 5286 0729 0100     		.2byte	0x1
 5287 072b 50       		.byte	0x50
 5288 072c 00000000 		.4byte	0
 5289 0730 00000000 		.4byte	0
 5290              	.LLST47:
 5291 0734 0A000000 		.4byte	.LVL133
 5292 0738 24000000 		.4byte	.LVL143
 5293 073c 0100     		.2byte	0x1
 5294 073e 56       		.byte	0x56
 5295 073f 00000000 		.4byte	0
 5296 0743 00000000 		.4byte	0
 5297              	.LLST48:
 5298 0747 0A000000 		.4byte	.LVL133
 5299 074b 0C000000 		.4byte	.LVL134
 5300 074f 0200     		.2byte	0x2
 5301 0751 30       		.byte	0x30
 5302 0752 9F       		.byte	0x9f
 5303 0753 0C000000 		.4byte	.LVL134
 5304 0757 12000000 		.4byte	.LVL135
 5305 075b 0100     		.2byte	0x1
 5306 075d 55       		.byte	0x55
 5307 075e 12000000 		.4byte	.LVL135
 5308 0762 24000000 		.4byte	.LVL141
 5309 0766 0600     		.2byte	0x6
 5310 0768 75       		.byte	0x75
 5311 0769 00       		.sleb128 0
 5312 076a 74       		.byte	0x74
 5313 076b 00       		.sleb128 0
 5314 076c 22       		.byte	0x22
 5315 076d 9F       		.byte	0x9f
 5316 076e 24000000 		.4byte	.LVL141
 5317 0772 24000000 		.4byte	.LVL142
 5318 0776 0F00     		.2byte	0xf
 5319 0778 F3       		.byte	0xf3
 5320 0779 01       		.uleb128 0x1
 5321 077a 51       		.byte	0x51
 5322 077b 32       		.byte	0x32
 5323 077c 24       		.byte	0x24
 5324 077d F3       		.byte	0xf3
 5325 077e 01       		.uleb128 0x1
 5326 077f 51       		.byte	0x51
 5327 0780 22       		.byte	0x22
 5328 0781 31       		.byte	0x31
 5329 0782 24       		.byte	0x24
 5330 0783 75       		.byte	0x75
 5331 0784 00       		.sleb128 0
 5332 0785 22       		.byte	0x22
 5333 0786 9F       		.byte	0x9f
 5334 0787 00000000 		.4byte	0
 5335 078b 00000000 		.4byte	0
 5336              	.LLST49:
 5337 078f 0A000000 		.4byte	.LVL133
 5338 0793 14000000 		.4byte	.LVL136
 5339 0797 0200     		.2byte	0x2
 5340 0799 30       		.byte	0x30
 5341 079a 9F       		.byte	0x9f
 5342 079b 14000000 		.4byte	.LVL136
ARM GAS  C:\Users\Mayur\AppData\Local\Temp\ccxZLytu.s 			page 131


 5343 079f 1C000000 		.4byte	.LVL138
 5344 07a3 0100     		.2byte	0x1
 5345 07a5 53       		.byte	0x53
 5346 07a6 1C000000 		.4byte	.LVL138
 5347 07aa 23000000 		.4byte	.LVL140-1
 5348 07ae 0100     		.2byte	0x1
 5349 07b0 52       		.byte	0x52
 5350 07b1 00000000 		.4byte	0
 5351 07b5 00000000 		.4byte	0
 5352              	.LLST50:
 5353 07b9 00000000 		.4byte	.LVL144
 5354 07bd 04000000 		.4byte	.LVL146
 5355 07c1 0100     		.2byte	0x1
 5356 07c3 50       		.byte	0x50
 5357 07c4 04000000 		.4byte	.LVL146
 5358 07c8 2C000000 		.4byte	.LFE27
 5359 07cc 0400     		.2byte	0x4
 5360 07ce F3       		.byte	0xf3
 5361 07cf 01       		.uleb128 0x1
 5362 07d0 50       		.byte	0x50
 5363 07d1 9F       		.byte	0x9f
 5364 07d2 00000000 		.4byte	0
 5365 07d6 00000000 		.4byte	0
 5366              	.LLST51:
 5367 07da 00000000 		.4byte	.LVL144
 5368 07de 18000000 		.4byte	.LVL152
 5369 07e2 0100     		.2byte	0x1
 5370 07e4 51       		.byte	0x51
 5371 07e5 18000000 		.4byte	.LVL152
 5372 07e9 2C000000 		.4byte	.LFE27
 5373 07ed 0400     		.2byte	0x4
 5374 07ef F3       		.byte	0xf3
 5375 07f0 01       		.uleb128 0x1
 5376 07f1 51       		.byte	0x51
 5377 07f2 9F       		.byte	0x9f
 5378 07f3 00000000 		.4byte	0
 5379 07f7 00000000 		.4byte	0
 5380              	.LLST52:
 5381 07fb 08000000 		.4byte	.LVL147
 5382 07ff 20000000 		.4byte	.LVL154
 5383 0803 0100     		.2byte	0x1
 5384 0805 50       		.byte	0x50
 5385 0806 00000000 		.4byte	0
 5386 080a 00000000 		.4byte	0
 5387              	.LLST53:
 5388 080e 0A000000 		.4byte	.LVL148
 5389 0812 24000000 		.4byte	.LVL158
 5390 0816 0100     		.2byte	0x1
 5391 0818 56       		.byte	0x56
 5392 0819 00000000 		.4byte	0
 5393 081d 00000000 		.4byte	0
 5394              	.LLST54:
 5395 0821 0A000000 		.4byte	.LVL148
 5396 0825 0C000000 		.4byte	.LVL149
 5397 0829 0200     		.2byte	0x2
 5398 082b 30       		.byte	0x30
 5399 082c 9F       		.byte	0x9f
ARM GAS  C:\Users\Mayur\AppData\Local\Temp\ccxZLytu.s 			page 132


 5400 082d 0C000000 		.4byte	.LVL149
 5401 0831 12000000 		.4byte	.LVL150
 5402 0835 0100     		.2byte	0x1
 5403 0837 55       		.byte	0x55
 5404 0838 12000000 		.4byte	.LVL150
 5405 083c 24000000 		.4byte	.LVL156
 5406 0840 0600     		.2byte	0x6
 5407 0842 75       		.byte	0x75
 5408 0843 00       		.sleb128 0
 5409 0844 74       		.byte	0x74
 5410 0845 00       		.sleb128 0
 5411 0846 22       		.byte	0x22
 5412 0847 9F       		.byte	0x9f
 5413 0848 24000000 		.4byte	.LVL156
 5414 084c 24000000 		.4byte	.LVL157
 5415 0850 0F00     		.2byte	0xf
 5416 0852 F3       		.byte	0xf3
 5417 0853 01       		.uleb128 0x1
 5418 0854 51       		.byte	0x51
 5419 0855 32       		.byte	0x32
 5420 0856 24       		.byte	0x24
 5421 0857 F3       		.byte	0xf3
 5422 0858 01       		.uleb128 0x1
 5423 0859 51       		.byte	0x51
 5424 085a 22       		.byte	0x22
 5425 085b 31       		.byte	0x31
 5426 085c 24       		.byte	0x24
 5427 085d 75       		.byte	0x75
 5428 085e 00       		.sleb128 0
 5429 085f 22       		.byte	0x22
 5430 0860 9F       		.byte	0x9f
 5431 0861 00000000 		.4byte	0
 5432 0865 00000000 		.4byte	0
 5433              	.LLST55:
 5434 0869 0A000000 		.4byte	.LVL148
 5435 086d 14000000 		.4byte	.LVL151
 5436 0871 0200     		.2byte	0x2
 5437 0873 30       		.byte	0x30
 5438 0874 9F       		.byte	0x9f
 5439 0875 14000000 		.4byte	.LVL151
 5440 0879 1C000000 		.4byte	.LVL153
 5441 087d 0100     		.2byte	0x1
 5442 087f 53       		.byte	0x53
 5443 0880 1C000000 		.4byte	.LVL153
 5444 0884 23000000 		.4byte	.LVL155-1
 5445 0888 0100     		.2byte	0x1
 5446 088a 52       		.byte	0x52
 5447 088b 00000000 		.4byte	0
 5448 088f 00000000 		.4byte	0
 5449              	.LLST56:
 5450 0893 00000000 		.4byte	.LVL159
 5451 0897 08000000 		.4byte	.LVL160
 5452 089b 0100     		.2byte	0x1
 5453 089d 50       		.byte	0x50
 5454 089e 08000000 		.4byte	.LVL160
 5455 08a2 0A000000 		.4byte	.LVL161
 5456 08a6 0100     		.2byte	0x1
ARM GAS  C:\Users\Mayur\AppData\Local\Temp\ccxZLytu.s 			page 133


 5457 08a8 53       		.byte	0x53
 5458 08a9 0A000000 		.4byte	.LVL161
 5459 08ad 16000000 		.4byte	.LVL163
 5460 08b1 0100     		.2byte	0x1
 5461 08b3 50       		.byte	0x50
 5462 08b4 00000000 		.4byte	0
 5463 08b8 00000000 		.4byte	0
 5464              	.LLST57:
 5465 08bc 00000000 		.4byte	.LVL159
 5466 08c0 0A000000 		.4byte	.LVL161
 5467 08c4 0100     		.2byte	0x1
 5468 08c6 51       		.byte	0x51
 5469 08c7 0A000000 		.4byte	.LVL161
 5470 08cb 18000000 		.4byte	.LFE28
 5471 08cf 0100     		.2byte	0x1
 5472 08d1 51       		.byte	0x51
 5473 08d2 00000000 		.4byte	0
 5474 08d6 00000000 		.4byte	0
 5475              	.LLST58:
 5476 08da 00000000 		.4byte	.LVL164
 5477 08de 22000000 		.4byte	.LVL168
 5478 08e2 0100     		.2byte	0x1
 5479 08e4 50       		.byte	0x50
 5480 08e5 28000000 		.4byte	.LVL169
 5481 08e9 2E000000 		.4byte	.LVL170
 5482 08ed 0100     		.2byte	0x1
 5483 08ef 53       		.byte	0x53
 5484 08f0 2E000000 		.4byte	.LVL170
 5485 08f4 37000000 		.4byte	.LVL172-1
 5486 08f8 0100     		.2byte	0x1
 5487 08fa 5C       		.byte	0x5c
 5488 08fb 42000000 		.4byte	.LVL173
 5489 08ff 54000000 		.4byte	.LFE19
 5490 0903 0100     		.2byte	0x1
 5491 0905 50       		.byte	0x50
 5492 0906 00000000 		.4byte	0
 5493 090a 00000000 		.4byte	0
 5494              	.LLST59:
 5495 090e 00000000 		.4byte	.LVL164
 5496 0912 14000000 		.4byte	.LVL166
 5497 0916 0100     		.2byte	0x1
 5498 0918 51       		.byte	0x51
 5499 0919 14000000 		.4byte	.LVL166
 5500 091d 4C000000 		.4byte	.LVL177
 5501 0921 0100     		.2byte	0x1
 5502 0923 57       		.byte	0x57
 5503 0924 4C000000 		.4byte	.LVL177
 5504 0928 54000000 		.4byte	.LFE19
 5505 092c 0400     		.2byte	0x4
 5506 092e F3       		.byte	0xf3
 5507 092f 01       		.uleb128 0x1
 5508 0930 51       		.byte	0x51
 5509 0931 9F       		.byte	0x9f
 5510 0932 00000000 		.4byte	0
 5511 0936 00000000 		.4byte	0
 5512              	.LLST60:
 5513 093a 00000000 		.4byte	.LVL164
ARM GAS  C:\Users\Mayur\AppData\Local\Temp\ccxZLytu.s 			page 134


 5514 093e 14000000 		.4byte	.LVL166
 5515 0942 0100     		.2byte	0x1
 5516 0944 52       		.byte	0x52
 5517 0945 14000000 		.4byte	.LVL166
 5518 0949 1E000000 		.4byte	.LVL167
 5519 094d 0100     		.2byte	0x1
 5520 094f 58       		.byte	0x58
 5521 0950 1E000000 		.4byte	.LVL167
 5522 0954 32000000 		.4byte	.LVL171
 5523 0958 0100     		.2byte	0x1
 5524 095a 52       		.byte	0x52
 5525 095b 32000000 		.4byte	.LVL171
 5526 095f 4C000000 		.4byte	.LVL178
 5527 0963 0100     		.2byte	0x1
 5528 0965 58       		.byte	0x58
 5529 0966 4C000000 		.4byte	.LVL178
 5530 096a 54000000 		.4byte	.LFE19
 5531 096e 0400     		.2byte	0x4
 5532 0970 F3       		.byte	0xf3
 5533 0971 01       		.uleb128 0x1
 5534 0972 52       		.byte	0x52
 5535 0973 9F       		.byte	0x9f
 5536 0974 00000000 		.4byte	0
 5537 0978 00000000 		.4byte	0
 5538              	.LLST61:
 5539 097c 10000000 		.4byte	.LVL165
 5540 0980 14000000 		.4byte	.LVL166
 5541 0984 0200     		.2byte	0x2
 5542 0986 31       		.byte	0x31
 5543 0987 9F       		.byte	0x9f
 5544 0988 14000000 		.4byte	.LVL166
 5545 098c 44000000 		.4byte	.LVL174
 5546 0990 0100     		.2byte	0x1
 5547 0992 55       		.byte	0x55
 5548 0993 44000000 		.4byte	.LVL174
 5549 0997 46000000 		.4byte	.LVL175
 5550 099b 0100     		.2byte	0x1
 5551 099d 53       		.byte	0x53
 5552 099e 46000000 		.4byte	.LVL175
 5553 09a2 4C000000 		.4byte	.LVL176
 5554 09a6 0100     		.2byte	0x1
 5555 09a8 55       		.byte	0x55
 5556 09a9 4C000000 		.4byte	.LVL176
 5557 09ad 54000000 		.4byte	.LFE19
 5558 09b1 0300     		.2byte	0x3
 5559 09b3 73       		.byte	0x73
 5560 09b4 7F       		.sleb128 -1
 5561 09b5 9F       		.byte	0x9f
 5562 09b6 00000000 		.4byte	0
 5563 09ba 00000000 		.4byte	0
 5564              	.LLST62:
 5565 09be 38000000 		.4byte	.LVL172
 5566 09c2 42000000 		.4byte	.LVL173
 5567 09c6 0100     		.2byte	0x1
 5568 09c8 50       		.byte	0x50
 5569 09c9 00000000 		.4byte	0
 5570 09cd 00000000 		.4byte	0
ARM GAS  C:\Users\Mayur\AppData\Local\Temp\ccxZLytu.s 			page 135


 5571              	.LLST63:
 5572 09d1 00000000 		.4byte	.LVL179
 5573 09d5 06000000 		.4byte	.LVL181
 5574 09d9 0100     		.2byte	0x1
 5575 09db 50       		.byte	0x50
 5576 09dc 06000000 		.4byte	.LVL181
 5577 09e0 34000000 		.4byte	.LFE17
 5578 09e4 0400     		.2byte	0x4
 5579 09e6 F3       		.byte	0xf3
 5580 09e7 01       		.uleb128 0x1
 5581 09e8 50       		.byte	0x50
 5582 09e9 9F       		.byte	0x9f
 5583 09ea 00000000 		.4byte	0
 5584 09ee 00000000 		.4byte	0
 5585              	.LLST64:
 5586 09f2 00000000 		.4byte	.LVL179
 5587 09f6 10000000 		.4byte	.LVL183
 5588 09fa 0100     		.2byte	0x1
 5589 09fc 51       		.byte	0x51
 5590 09fd 10000000 		.4byte	.LVL183
 5591 0a01 24000000 		.4byte	.LVL187
 5592 0a05 0100     		.2byte	0x1
 5593 0a07 54       		.byte	0x54
 5594 0a08 24000000 		.4byte	.LVL187
 5595 0a0c 34000000 		.4byte	.LFE17
 5596 0a10 0400     		.2byte	0x4
 5597 0a12 F3       		.byte	0xf3
 5598 0a13 01       		.uleb128 0x1
 5599 0a14 51       		.byte	0x51
 5600 0a15 9F       		.byte	0x9f
 5601 0a16 00000000 		.4byte	0
 5602 0a1a 00000000 		.4byte	0
 5603              	.LLST65:
 5604 0a1e 0A000000 		.4byte	.LVL182
 5605 0a22 22000000 		.4byte	.LVL186
 5606 0a26 0100     		.2byte	0x1
 5607 0a28 53       		.byte	0x53
 5608 0a29 00000000 		.4byte	0
 5609 0a2d 00000000 		.4byte	0
 5610              	.LLST66:
 5611 0a31 04000000 		.4byte	.LVL180
 5612 0a35 0A000000 		.4byte	.LVL182
 5613 0a39 0200     		.2byte	0x2
 5614 0a3b 30       		.byte	0x30
 5615 0a3c 9F       		.byte	0x9f
 5616 0a3d 0A000000 		.4byte	.LVL182
 5617 0a41 16000000 		.4byte	.LVL184
 5618 0a45 0200     		.2byte	0x2
 5619 0a47 73       		.byte	0x73
 5620 0a48 08       		.sleb128 8
 5621 0a49 16000000 		.4byte	.LVL184
 5622 0a4d 2B000000 		.4byte	.LVL188-1
 5623 0a51 0100     		.2byte	0x1
 5624 0a53 51       		.byte	0x51
 5625 0a54 00000000 		.4byte	0
 5626 0a58 00000000 		.4byte	0
 5627              	.LLST67:
ARM GAS  C:\Users\Mayur\AppData\Local\Temp\ccxZLytu.s 			page 136


 5628 0a5c 00000000 		.4byte	.LVL189
 5629 0a60 02000000 		.4byte	.LVL190
 5630 0a64 0100     		.2byte	0x1
 5631 0a66 50       		.byte	0x50
 5632 0a67 02000000 		.4byte	.LVL190
 5633 0a6b 12000000 		.4byte	.LFE29
 5634 0a6f 0400     		.2byte	0x4
 5635 0a71 F3       		.byte	0xf3
 5636 0a72 01       		.uleb128 0x1
 5637 0a73 50       		.byte	0x50
 5638 0a74 9F       		.byte	0x9f
 5639 0a75 00000000 		.4byte	0
 5640 0a79 00000000 		.4byte	0
 5641              	.LLST68:
 5642 0a7d 00000000 		.4byte	.LVL189
 5643 0a81 0C000000 		.4byte	.LVL193
 5644 0a85 0100     		.2byte	0x1
 5645 0a87 51       		.byte	0x51
 5646 0a88 0C000000 		.4byte	.LVL193
 5647 0a8c 12000000 		.4byte	.LFE29
 5648 0a90 0400     		.2byte	0x4
 5649 0a92 F3       		.byte	0xf3
 5650 0a93 01       		.uleb128 0x1
 5651 0a94 51       		.byte	0x51
 5652 0a95 9F       		.byte	0x9f
 5653 0a96 00000000 		.4byte	0
 5654 0a9a 00000000 		.4byte	0
 5655              	.LLST69:
 5656 0a9e 00000000 		.4byte	.LVL189
 5657 0aa2 0A000000 		.4byte	.LVL192
 5658 0aa6 0100     		.2byte	0x1
 5659 0aa8 52       		.byte	0x52
 5660 0aa9 0A000000 		.4byte	.LVL192
 5661 0aad 12000000 		.4byte	.LFE29
 5662 0ab1 0400     		.2byte	0x4
 5663 0ab3 F3       		.byte	0xf3
 5664 0ab4 01       		.uleb128 0x1
 5665 0ab5 52       		.byte	0x52
 5666 0ab6 9F       		.byte	0x9f
 5667 0ab7 00000000 		.4byte	0
 5668 0abb 00000000 		.4byte	0
 5669              	.LLST70:
 5670 0abf 00000000 		.4byte	.LVL189
 5671 0ac3 06000000 		.4byte	.LVL191
 5672 0ac7 0100     		.2byte	0x1
 5673 0ac9 53       		.byte	0x53
 5674 0aca 06000000 		.4byte	.LVL191
 5675 0ace 12000000 		.4byte	.LFE29
 5676 0ad2 0400     		.2byte	0x4
 5677 0ad4 F3       		.byte	0xf3
 5678 0ad5 01       		.uleb128 0x1
 5679 0ad6 53       		.byte	0x53
 5680 0ad7 9F       		.byte	0x9f
 5681 0ad8 00000000 		.4byte	0
 5682 0adc 00000000 		.4byte	0
 5683              	.LLST71:
 5684 0ae0 00000000 		.4byte	.LVL195
ARM GAS  C:\Users\Mayur\AppData\Local\Temp\ccxZLytu.s 			page 137


 5685 0ae4 12000000 		.4byte	.LVL197
 5686 0ae8 0100     		.2byte	0x1
 5687 0aea 50       		.byte	0x50
 5688 0aeb 12000000 		.4byte	.LVL197
 5689 0aef 9A000000 		.4byte	.LVL216
 5690 0af3 0100     		.2byte	0x1
 5691 0af5 57       		.byte	0x57
 5692 0af6 9A000000 		.4byte	.LVL216
 5693 0afa A0000000 		.4byte	.LFE4
 5694 0afe 0400     		.2byte	0x4
 5695 0b00 F3       		.byte	0xf3
 5696 0b01 01       		.uleb128 0x1
 5697 0b02 50       		.byte	0x50
 5698 0b03 9F       		.byte	0x9f
 5699 0b04 00000000 		.4byte	0
 5700 0b08 00000000 		.4byte	0
 5701              	.LLST72:
 5702 0b0c 00000000 		.4byte	.LVL195
 5703 0b10 12000000 		.4byte	.LVL197
 5704 0b14 0100     		.2byte	0x1
 5705 0b16 51       		.byte	0x51
 5706 0b17 12000000 		.4byte	.LVL197
 5707 0b1b 9A000000 		.4byte	.LVL215
 5708 0b1f 0100     		.2byte	0x1
 5709 0b21 56       		.byte	0x56
 5710 0b22 9A000000 		.4byte	.LVL215
 5711 0b26 A0000000 		.4byte	.LFE4
 5712 0b2a 0400     		.2byte	0x4
 5713 0b2c F3       		.byte	0xf3
 5714 0b2d 01       		.uleb128 0x1
 5715 0b2e 51       		.byte	0x51
 5716 0b2f 9F       		.byte	0x9f
 5717 0b30 00000000 		.4byte	0
 5718 0b34 00000000 		.4byte	0
 5719              	.LLST73:
 5720 0b38 00000000 		.4byte	.LVL195
 5721 0b3c 12000000 		.4byte	.LVL197
 5722 0b40 0100     		.2byte	0x1
 5723 0b42 52       		.byte	0x52
 5724 0b43 12000000 		.4byte	.LVL197
 5725 0b47 A0000000 		.4byte	.LFE4
 5726 0b4b 0200     		.2byte	0x2
 5727 0b4d 91       		.byte	0x91
 5728 0b4e 64       		.sleb128 -28
 5729 0b4f 00000000 		.4byte	0
 5730 0b53 00000000 		.4byte	0
 5731              	.LLST74:
 5732 0b57 20000000 		.4byte	.LVL198
 5733 0b5b 2A000000 		.4byte	.LVL199
 5734 0b5f 0200     		.2byte	0x2
 5735 0b61 31       		.byte	0x31
 5736 0b62 9F       		.byte	0x9f
 5737 0b63 2C000000 		.4byte	.LVL200
 5738 0b67 2E000000 		.4byte	.LVL201
 5739 0b6b 0200     		.2byte	0x2
 5740 0b6d 30       		.byte	0x30
 5741 0b6e 9F       		.byte	0x9f
ARM GAS  C:\Users\Mayur\AppData\Local\Temp\ccxZLytu.s 			page 138


 5742 0b6f 2E000000 		.4byte	.LVL201
 5743 0b73 3E000000 		.4byte	.LVL203
 5744 0b77 0100     		.2byte	0x1
 5745 0b79 52       		.byte	0x52
 5746 0b7a 56000000 		.4byte	.LVL205
 5747 0b7e 6A000000 		.4byte	.LVL207
 5748 0b82 0100     		.2byte	0x1
 5749 0b84 52       		.byte	0x52
 5750 0b85 00000000 		.4byte	0
 5751 0b89 00000000 		.4byte	0
 5752              	.LLST75:
 5753 0b8d 20000000 		.4byte	.LVL198
 5754 0b91 2A000000 		.4byte	.LVL199
 5755 0b95 0100     		.2byte	0x1
 5756 0b97 53       		.byte	0x53
 5757 0b98 2C000000 		.4byte	.LVL200
 5758 0b9c 3A000000 		.4byte	.LVL202
 5759 0ba0 0100     		.2byte	0x1
 5760 0ba2 53       		.byte	0x53
 5761 0ba3 56000000 		.4byte	.LVL205
 5762 0ba7 68000000 		.4byte	.LVL206
 5763 0bab 0100     		.2byte	0x1
 5764 0bad 53       		.byte	0x53
 5765 0bae 00000000 		.4byte	0
 5766 0bb2 00000000 		.4byte	0
 5767              	.LLST76:
 5768 0bb6 0E000000 		.4byte	.LVL196
 5769 0bba 12000000 		.4byte	.LVL197
 5770 0bbe 0200     		.2byte	0x2
 5771 0bc0 31       		.byte	0x31
 5772 0bc1 9F       		.byte	0x9f
 5773 0bc2 12000000 		.4byte	.LVL197
 5774 0bc6 90000000 		.4byte	.LVL212
 5775 0bca 0100     		.2byte	0x1
 5776 0bcc 54       		.byte	0x54
 5777 0bcd 90000000 		.4byte	.LVL212
 5778 0bd1 92000000 		.4byte	.LVL213
 5779 0bd5 0100     		.2byte	0x1
 5780 0bd7 53       		.byte	0x53
 5781 0bd8 92000000 		.4byte	.LVL213
 5782 0bdc 9A000000 		.4byte	.LVL214
 5783 0be0 0100     		.2byte	0x1
 5784 0be2 54       		.byte	0x54
 5785 0be3 9A000000 		.4byte	.LVL214
 5786 0be7 A0000000 		.4byte	.LFE4
 5787 0beb 0300     		.2byte	0x3
 5788 0bed 73       		.byte	0x73
 5789 0bee 7F       		.sleb128 -1
 5790 0bef 9F       		.byte	0x9f
 5791 0bf0 00000000 		.4byte	0
 5792 0bf4 00000000 		.4byte	0
 5793              	.LLST77:
 5794 0bf8 7A000000 		.4byte	.LVL209
 5795 0bfc 8E000000 		.4byte	.LVL211
 5796 0c00 0200     		.2byte	0x2
 5797 0c02 31       		.byte	0x31
 5798 0c03 9F       		.byte	0x9f
ARM GAS  C:\Users\Mayur\AppData\Local\Temp\ccxZLytu.s 			page 139


 5799 0c04 00000000 		.4byte	0
 5800 0c08 00000000 		.4byte	0
 5801              	.LLST78:
 5802 0c0c 72000000 		.4byte	.LVL208
 5803 0c10 81000000 		.4byte	.LVL210-1
 5804 0c14 0100     		.2byte	0x1
 5805 0c16 51       		.byte	0x51
 5806 0c17 82000000 		.4byte	.LVL210
 5807 0c1b 8E000000 		.4byte	.LVL211
 5808 0c1f 0100     		.2byte	0x1
 5809 0c21 50       		.byte	0x50
 5810 0c22 00000000 		.4byte	0
 5811 0c26 00000000 		.4byte	0
 5812              	.LLST79:
 5813 0c2a 00000000 		.4byte	.LVL217
 5814 0c2e 04000000 		.4byte	.LVL219
 5815 0c32 0100     		.2byte	0x1
 5816 0c34 50       		.byte	0x50
 5817 0c35 04000000 		.4byte	.LVL219
 5818 0c39 24000000 		.4byte	.LFE3
 5819 0c3d 0400     		.2byte	0x4
 5820 0c3f F3       		.byte	0xf3
 5821 0c40 01       		.uleb128 0x1
 5822 0c41 50       		.byte	0x50
 5823 0c42 9F       		.byte	0x9f
 5824 0c43 00000000 		.4byte	0
 5825 0c47 00000000 		.4byte	0
 5826              	.LLST80:
 5827 0c4b 00000000 		.4byte	.LVL217
 5828 0c4f 10000000 		.4byte	.LVL222
 5829 0c53 0100     		.2byte	0x1
 5830 0c55 51       		.byte	0x51
 5831 0c56 10000000 		.4byte	.LVL222
 5832 0c5a 24000000 		.4byte	.LFE3
 5833 0c5e 0400     		.2byte	0x4
 5834 0c60 F3       		.byte	0xf3
 5835 0c61 01       		.uleb128 0x1
 5836 0c62 51       		.byte	0x51
 5837 0c63 9F       		.byte	0x9f
 5838 0c64 00000000 		.4byte	0
 5839 0c68 00000000 		.4byte	0
 5840              	.LLST81:
 5841 0c6c 02000000 		.4byte	.LVL218
 5842 0c70 1C000000 		.4byte	.LVL224
 5843 0c74 0200     		.2byte	0x2
 5844 0c76 30       		.byte	0x30
 5845 0c77 9F       		.byte	0x9f
 5846 0c78 1C000000 		.4byte	.LVL224
 5847 0c7c 24000000 		.4byte	.LFE3
 5848 0c80 0100     		.2byte	0x1
 5849 0c82 50       		.byte	0x50
 5850 0c83 00000000 		.4byte	0
 5851 0c87 00000000 		.4byte	0
 5852              	.LLST82:
 5853 0c8b 02000000 		.4byte	.LVL218
 5854 0c8f 0A000000 		.4byte	.LVL221
 5855 0c93 0200     		.2byte	0x2
ARM GAS  C:\Users\Mayur\AppData\Local\Temp\ccxZLytu.s 			page 140


 5856 0c95 30       		.byte	0x30
 5857 0c96 9F       		.byte	0x9f
 5858 0c97 0A000000 		.4byte	.LVL221
 5859 0c9b 16000000 		.4byte	.LVL223
 5860 0c9f 0200     		.2byte	0x2
 5861 0ca1 73       		.byte	0x73
 5862 0ca2 08       		.sleb128 8
 5863 0ca3 16000000 		.4byte	.LVL223
 5864 0ca7 1B000000 		.4byte	.LVL224-1
 5865 0cab 0100     		.2byte	0x1
 5866 0cad 51       		.byte	0x51
 5867 0cae 00000000 		.4byte	0
 5868 0cb2 00000000 		.4byte	0
 5869              	.LLST83:
 5870 0cb6 08000000 		.4byte	.LVL220
 5871 0cba 1B000000 		.4byte	.LVL224-1
 5872 0cbe 0100     		.2byte	0x1
 5873 0cc0 53       		.byte	0x53
 5874 0cc1 00000000 		.4byte	0
 5875 0cc5 00000000 		.4byte	0
 5876              	.LLST84:
 5877 0cc9 0A000000 		.4byte	.LVL221
 5878 0ccd 1B000000 		.4byte	.LVL224-1
 5879 0cd1 0100     		.2byte	0x1
 5880 0cd3 50       		.byte	0x50
 5881 0cd4 00000000 		.4byte	0
 5882 0cd8 00000000 		.4byte	0
 5883              	.LLST85:
 5884 0cdc 00000000 		.4byte	.LVL225
 5885 0ce0 10000000 		.4byte	.LVL229
 5886 0ce4 0100     		.2byte	0x1
 5887 0ce6 50       		.byte	0x50
 5888 0ce7 10000000 		.4byte	.LVL229
 5889 0ceb 24000000 		.4byte	.LVL236
 5890 0cef 0100     		.2byte	0x1
 5891 0cf1 56       		.byte	0x56
 5892 0cf2 24000000 		.4byte	.LVL236
 5893 0cf6 2C000000 		.4byte	.LFE2
 5894 0cfa 0400     		.2byte	0x4
 5895 0cfc F3       		.byte	0xf3
 5896 0cfd 01       		.uleb128 0x1
 5897 0cfe 50       		.byte	0x50
 5898 0cff 9F       		.byte	0x9f
 5899 0d00 00000000 		.4byte	0
 5900 0d04 00000000 		.4byte	0
 5901              	.LLST86:
 5902 0d08 0C000000 		.4byte	.LVL228
 5903 0d0c 10000000 		.4byte	.LVL229
 5904 0d10 0100     		.2byte	0x1
 5905 0d12 53       		.byte	0x53
 5906 0d13 10000000 		.4byte	.LVL229
 5907 0d17 1C000000 		.4byte	.LVL232
 5908 0d1b 0100     		.2byte	0x1
 5909 0d1d 54       		.byte	0x54
 5910 0d1e 1C000000 		.4byte	.LVL232
 5911 0d22 1E000000 		.4byte	.LVL233
 5912 0d26 0100     		.2byte	0x1
ARM GAS  C:\Users\Mayur\AppData\Local\Temp\ccxZLytu.s 			page 141


 5913 0d28 53       		.byte	0x53
 5914 0d29 1E000000 		.4byte	.LVL233
 5915 0d2d 24000000 		.4byte	.LVL234
 5916 0d31 0100     		.2byte	0x1
 5917 0d33 54       		.byte	0x54
 5918 0d34 24000000 		.4byte	.LVL234
 5919 0d38 2C000000 		.4byte	.LFE2
 5920 0d3c 0300     		.2byte	0x3
 5921 0d3e 73       		.byte	0x73
 5922 0d3f 7F       		.sleb128 -1
 5923 0d40 9F       		.byte	0x9f
 5924 0d41 00000000 		.4byte	0
 5925 0d45 00000000 		.4byte	0
 5926              	.LLST87:
 5927 0d49 0C000000 		.4byte	.LVL228
 5928 0d4d 10000000 		.4byte	.LVL229
 5929 0d51 0100     		.2byte	0x1
 5930 0d53 53       		.byte	0x53
 5931 0d54 00000000 		.4byte	0
 5932 0d58 00000000 		.4byte	0
 5933              	.LLST88:
 5934 0d5c 0A000000 		.4byte	.LVL227
 5935 0d60 0C000000 		.4byte	.LVL228
 5936 0d64 0100     		.2byte	0x1
 5937 0d66 53       		.byte	0x53
 5938 0d67 00000000 		.4byte	0
 5939 0d6b 00000000 		.4byte	0
 5940              	.LLST89:
 5941 0d6f 04000000 		.4byte	.LVL226
 5942 0d73 10000000 		.4byte	.LVL229
 5943 0d77 0200     		.2byte	0x2
 5944 0d79 30       		.byte	0x30
 5945 0d7a 9F       		.byte	0x9f
 5946 0d7b 10000000 		.4byte	.LVL229
 5947 0d7f 24000000 		.4byte	.LVL235
 5948 0d83 0100     		.2byte	0x1
 5949 0d85 55       		.byte	0x55
 5950 0d86 24000000 		.4byte	.LVL235
 5951 0d8a 2C000000 		.4byte	.LFE2
 5952 0d8e 0100     		.2byte	0x1
 5953 0d90 50       		.byte	0x50
 5954 0d91 00000000 		.4byte	0
 5955 0d95 00000000 		.4byte	0
 5956              	.LLST90:
 5957 0d99 02000000 		.4byte	.LVL237
 5958 0d9d 08000000 		.4byte	.LVL238
 5959 0da1 0200     		.2byte	0x2
 5960 0da3 38       		.byte	0x38
 5961 0da4 9F       		.byte	0x9f
 5962 0da5 08000000 		.4byte	.LVL238
 5963 0da9 12000000 		.4byte	.LVL241
 5964 0dad 0100     		.2byte	0x1
 5965 0daf 54       		.byte	0x54
 5966 0db0 12000000 		.4byte	.LVL241
 5967 0db4 14000000 		.4byte	.LVL242
 5968 0db8 0100     		.2byte	0x1
 5969 0dba 53       		.byte	0x53
ARM GAS  C:\Users\Mayur\AppData\Local\Temp\ccxZLytu.s 			page 142


 5970 0dbb 14000000 		.4byte	.LVL242
 5971 0dbf 1A000000 		.4byte	.LVL243
 5972 0dc3 0100     		.2byte	0x1
 5973 0dc5 54       		.byte	0x54
 5974 0dc6 1A000000 		.4byte	.LVL243
 5975 0dca 1C000000 		.4byte	.LFE1
 5976 0dce 0300     		.2byte	0x3
 5977 0dd0 73       		.byte	0x73
 5978 0dd1 7F       		.sleb128 -1
 5979 0dd2 9F       		.byte	0x9f
 5980 0dd3 00000000 		.4byte	0
 5981 0dd7 00000000 		.4byte	0
 5982              	.LLST91:
 5983 0ddb 02000000 		.4byte	.LVL237
 5984 0ddf 08000000 		.4byte	.LVL238
 5985 0de3 0200     		.2byte	0x2
 5986 0de5 30       		.byte	0x30
 5987 0de6 9F       		.byte	0x9f
 5988 0de7 08000000 		.4byte	.LVL238
 5989 0deb 1A000000 		.4byte	.LVL244
 5990 0def 0100     		.2byte	0x1
 5991 0df1 55       		.byte	0x55
 5992 0df2 1A000000 		.4byte	.LVL244
 5993 0df6 1C000000 		.4byte	.LFE1
 5994 0dfa 0100     		.2byte	0x1
 5995 0dfc 50       		.byte	0x50
 5996 0dfd 00000000 		.4byte	0
 5997 0e01 00000000 		.4byte	0
 5998              	.LLST92:
 5999 0e05 00000000 		.4byte	.LVL245
 6000 0e09 1E000000 		.4byte	.LVL249
 6001 0e0d 0100     		.2byte	0x1
 6002 0e0f 50       		.byte	0x50
 6003 0e10 1E000000 		.4byte	.LVL249
 6004 0e14 44000000 		.4byte	.LFE15
 6005 0e18 0100     		.2byte	0x1
 6006 0e1a 57       		.byte	0x57
 6007 0e1b 00000000 		.4byte	0
 6008 0e1f 00000000 		.4byte	0
 6009              	.LLST93:
 6010 0e23 00000000 		.4byte	.LVL245
 6011 0e27 10000000 		.4byte	.LVL247
 6012 0e2b 0100     		.2byte	0x1
 6013 0e2d 51       		.byte	0x51
 6014 0e2e 10000000 		.4byte	.LVL247
 6015 0e32 3E000000 		.4byte	.LVL256
 6016 0e36 0100     		.2byte	0x1
 6017 0e38 56       		.byte	0x56
 6018 0e39 3E000000 		.4byte	.LVL256
 6019 0e3d 44000000 		.4byte	.LFE15
 6020 0e41 0400     		.2byte	0x4
 6021 0e43 F3       		.byte	0xf3
 6022 0e44 01       		.uleb128 0x1
 6023 0e45 51       		.byte	0x51
 6024 0e46 9F       		.byte	0x9f
 6025 0e47 00000000 		.4byte	0
 6026 0e4b 00000000 		.4byte	0
ARM GAS  C:\Users\Mayur\AppData\Local\Temp\ccxZLytu.s 			page 143


 6027              	.LLST94:
 6028 0e4f 00000000 		.4byte	.LVL245
 6029 0e53 10000000 		.4byte	.LVL247
 6030 0e57 0100     		.2byte	0x1
 6031 0e59 52       		.byte	0x52
 6032 0e5a 10000000 		.4byte	.LVL247
 6033 0e5e 1A000000 		.4byte	.LVL248
 6034 0e62 0100     		.2byte	0x1
 6035 0e64 58       		.byte	0x58
 6036 0e65 1A000000 		.4byte	.LVL248
 6037 0e69 20000000 		.4byte	.LVL250
 6038 0e6d 0100     		.2byte	0x1
 6039 0e6f 52       		.byte	0x52
 6040 0e70 20000000 		.4byte	.LVL250
 6041 0e74 3E000000 		.4byte	.LVL257
 6042 0e78 0100     		.2byte	0x1
 6043 0e7a 58       		.byte	0x58
 6044 0e7b 3E000000 		.4byte	.LVL257
 6045 0e7f 44000000 		.4byte	.LFE15
 6046 0e83 0400     		.2byte	0x4
 6047 0e85 F3       		.byte	0xf3
 6048 0e86 01       		.uleb128 0x1
 6049 0e87 52       		.byte	0x52
 6050 0e88 9F       		.byte	0x9f
 6051 0e89 00000000 		.4byte	0
 6052 0e8d 00000000 		.4byte	0
 6053              	.LLST95:
 6054 0e91 0C000000 		.4byte	.LVL246
 6055 0e95 10000000 		.4byte	.LVL247
 6056 0e99 0200     		.2byte	0x2
 6057 0e9b 31       		.byte	0x31
 6058 0e9c 9F       		.byte	0x9f
 6059 0e9d 10000000 		.4byte	.LVL247
 6060 0ea1 38000000 		.4byte	.LVL253
 6061 0ea5 0100     		.2byte	0x1
 6062 0ea7 54       		.byte	0x54
 6063 0ea8 38000000 		.4byte	.LVL253
 6064 0eac 3A000000 		.4byte	.LVL254
 6065 0eb0 0100     		.2byte	0x1
 6066 0eb2 53       		.byte	0x53
 6067 0eb3 3A000000 		.4byte	.LVL254
 6068 0eb7 3E000000 		.4byte	.LVL255
 6069 0ebb 0100     		.2byte	0x1
 6070 0ebd 54       		.byte	0x54
 6071 0ebe 3E000000 		.4byte	.LVL255
 6072 0ec2 44000000 		.4byte	.LFE15
 6073 0ec6 0300     		.2byte	0x3
 6074 0ec8 73       		.byte	0x73
 6075 0ec9 7F       		.sleb128 -1
 6076 0eca 9F       		.byte	0x9f
 6077 0ecb 00000000 		.4byte	0
 6078 0ecf 00000000 		.4byte	0
 6079              	.LLST96:
 6080 0ed3 2C000000 		.4byte	.LVL251
 6081 0ed7 2E000000 		.4byte	.LVL252
 6082 0edb 0100     		.2byte	0x1
 6083 0edd 50       		.byte	0x50
ARM GAS  C:\Users\Mayur\AppData\Local\Temp\ccxZLytu.s 			page 144


 6084 0ede 00000000 		.4byte	0
 6085 0ee2 00000000 		.4byte	0
 6086              	.LLST97:
 6087 0ee6 00000000 		.4byte	.LVL258
 6088 0eea 06000000 		.4byte	.LVL260
 6089 0eee 0100     		.2byte	0x1
 6090 0ef0 50       		.byte	0x50
 6091 0ef1 06000000 		.4byte	.LVL260
 6092 0ef5 34000000 		.4byte	.LFE13
 6093 0ef9 0400     		.2byte	0x4
 6094 0efb F3       		.byte	0xf3
 6095 0efc 01       		.uleb128 0x1
 6096 0efd 50       		.byte	0x50
 6097 0efe 9F       		.byte	0x9f
 6098 0eff 00000000 		.4byte	0
 6099 0f03 00000000 		.4byte	0
 6100              	.LLST98:
 6101 0f07 00000000 		.4byte	.LVL258
 6102 0f0b 10000000 		.4byte	.LVL262
 6103 0f0f 0100     		.2byte	0x1
 6104 0f11 51       		.byte	0x51
 6105 0f12 10000000 		.4byte	.LVL262
 6106 0f16 24000000 		.4byte	.LVL266
 6107 0f1a 0100     		.2byte	0x1
 6108 0f1c 54       		.byte	0x54
 6109 0f1d 24000000 		.4byte	.LVL266
 6110 0f21 34000000 		.4byte	.LFE13
 6111 0f25 0400     		.2byte	0x4
 6112 0f27 F3       		.byte	0xf3
 6113 0f28 01       		.uleb128 0x1
 6114 0f29 51       		.byte	0x51
 6115 0f2a 9F       		.byte	0x9f
 6116 0f2b 00000000 		.4byte	0
 6117 0f2f 00000000 		.4byte	0
 6118              	.LLST99:
 6119 0f33 0A000000 		.4byte	.LVL261
 6120 0f37 22000000 		.4byte	.LVL265
 6121 0f3b 0100     		.2byte	0x1
 6122 0f3d 53       		.byte	0x53
 6123 0f3e 00000000 		.4byte	0
 6124 0f42 00000000 		.4byte	0
 6125              	.LLST100:
 6126 0f46 04000000 		.4byte	.LVL259
 6127 0f4a 0A000000 		.4byte	.LVL261
 6128 0f4e 0200     		.2byte	0x2
 6129 0f50 30       		.byte	0x30
 6130 0f51 9F       		.byte	0x9f
 6131 0f52 0A000000 		.4byte	.LVL261
 6132 0f56 16000000 		.4byte	.LVL263
 6133 0f5a 0200     		.2byte	0x2
 6134 0f5c 73       		.byte	0x73
 6135 0f5d 08       		.sleb128 8
 6136 0f5e 16000000 		.4byte	.LVL263
 6137 0f62 2B000000 		.4byte	.LVL267-1
 6138 0f66 0100     		.2byte	0x1
 6139 0f68 51       		.byte	0x51
 6140 0f69 00000000 		.4byte	0
ARM GAS  C:\Users\Mayur\AppData\Local\Temp\ccxZLytu.s 			page 145


 6141 0f6d 00000000 		.4byte	0
 6142              	.LLST101:
 6143 0f71 00000000 		.4byte	.LVL268
 6144 0f75 0B000000 		.4byte	.LVL269-1
 6145 0f79 0100     		.2byte	0x1
 6146 0f7b 50       		.byte	0x50
 6147 0f7c 10000000 		.4byte	.LVL270
 6148 0f80 20000000 		.4byte	.LVL273
 6149 0f84 0100     		.2byte	0x1
 6150 0f86 54       		.byte	0x54
 6151 0f87 00000000 		.4byte	0
 6152 0f8b 00000000 		.4byte	0
 6153              	.LLST102:
 6154 0f8f 00000000 		.4byte	.LVL268
 6155 0f93 0B000000 		.4byte	.LVL269-1
 6156 0f97 0100     		.2byte	0x1
 6157 0f99 51       		.byte	0x51
 6158 0f9a 0B000000 		.4byte	.LVL269-1
 6159 0f9e 20000000 		.4byte	.LVL274
 6160 0fa2 0100     		.2byte	0x1
 6161 0fa4 55       		.byte	0x55
 6162 0fa5 20000000 		.4byte	.LVL274
 6163 0fa9 22000000 		.4byte	.LFE25
 6164 0fad 0400     		.2byte	0x4
 6165 0faf F3       		.byte	0xf3
 6166 0fb0 01       		.uleb128 0x1
 6167 0fb1 51       		.byte	0x51
 6168 0fb2 9F       		.byte	0x9f
 6169 0fb3 00000000 		.4byte	0
 6170 0fb7 00000000 		.4byte	0
 6171              	.LLST103:
 6172 0fbb 00000000 		.4byte	.LVL268
 6173 0fbf 0B000000 		.4byte	.LVL269-1
 6174 0fc3 0100     		.2byte	0x1
 6175 0fc5 52       		.byte	0x52
 6176 0fc6 0B000000 		.4byte	.LVL269-1
 6177 0fca 20000000 		.4byte	.LVL275
 6178 0fce 0100     		.2byte	0x1
 6179 0fd0 56       		.byte	0x56
 6180 0fd1 20000000 		.4byte	.LVL275
 6181 0fd5 22000000 		.4byte	.LFE25
 6182 0fd9 0400     		.2byte	0x4
 6183 0fdb F3       		.byte	0xf3
 6184 0fdc 01       		.uleb128 0x1
 6185 0fdd 52       		.byte	0x52
 6186 0fde 9F       		.byte	0x9f
 6187 0fdf 00000000 		.4byte	0
 6188 0fe3 00000000 		.4byte	0
 6189              	.LLST104:
 6190 0fe7 00000000 		.4byte	.LVL276
 6191 0feb 06000000 		.4byte	.LVL278
 6192 0fef 0100     		.2byte	0x1
 6193 0ff1 50       		.byte	0x50
 6194 0ff2 06000000 		.4byte	.LVL278
 6195 0ff6 34000000 		.4byte	.LFE24
 6196 0ffa 0400     		.2byte	0x4
 6197 0ffc F3       		.byte	0xf3
ARM GAS  C:\Users\Mayur\AppData\Local\Temp\ccxZLytu.s 			page 146


 6198 0ffd 01       		.uleb128 0x1
 6199 0ffe 50       		.byte	0x50
 6200 0fff 9F       		.byte	0x9f
 6201 1000 00000000 		.4byte	0
 6202 1004 00000000 		.4byte	0
 6203              	.LLST105:
 6204 1008 00000000 		.4byte	.LVL276
 6205 100c 10000000 		.4byte	.LVL280
 6206 1010 0100     		.2byte	0x1
 6207 1012 51       		.byte	0x51
 6208 1013 10000000 		.4byte	.LVL280
 6209 1017 24000000 		.4byte	.LVL284
 6210 101b 0100     		.2byte	0x1
 6211 101d 54       		.byte	0x54
 6212 101e 24000000 		.4byte	.LVL284
 6213 1022 34000000 		.4byte	.LFE24
 6214 1026 0400     		.2byte	0x4
 6215 1028 F3       		.byte	0xf3
 6216 1029 01       		.uleb128 0x1
 6217 102a 51       		.byte	0x51
 6218 102b 9F       		.byte	0x9f
 6219 102c 00000000 		.4byte	0
 6220 1030 00000000 		.4byte	0
 6221              	.LLST106:
 6222 1034 0A000000 		.4byte	.LVL279
 6223 1038 22000000 		.4byte	.LVL283
 6224 103c 0100     		.2byte	0x1
 6225 103e 53       		.byte	0x53
 6226 103f 00000000 		.4byte	0
 6227 1043 00000000 		.4byte	0
 6228              	.LLST107:
 6229 1047 04000000 		.4byte	.LVL277
 6230 104b 0A000000 		.4byte	.LVL279
 6231 104f 0200     		.2byte	0x2
 6232 1051 30       		.byte	0x30
 6233 1052 9F       		.byte	0x9f
 6234 1053 0A000000 		.4byte	.LVL279
 6235 1057 16000000 		.4byte	.LVL281
 6236 105b 0200     		.2byte	0x2
 6237 105d 73       		.byte	0x73
 6238 105e 08       		.sleb128 8
 6239 105f 16000000 		.4byte	.LVL281
 6240 1063 2B000000 		.4byte	.LVL285-1
 6241 1067 0100     		.2byte	0x1
 6242 1069 51       		.byte	0x51
 6243 106a 00000000 		.4byte	0
 6244 106e 00000000 		.4byte	0
 6245              		.section	.debug_aranges,"",%progbits
 6246 0000 04010000 		.4byte	0x104
 6247 0004 0200     		.2byte	0x2
 6248 0006 00000000 		.4byte	.Ldebug_info0
 6249 000a 04       		.byte	0x4
 6250 000b 00       		.byte	0
 6251 000c 0000     		.2byte	0
 6252 000e 0000     		.2byte	0
 6253 0010 00000000 		.4byte	.LFB9
 6254 0014 1E000000 		.4byte	.LFE9-.LFB9
ARM GAS  C:\Users\Mayur\AppData\Local\Temp\ccxZLytu.s 			page 147


 6255 0018 00000000 		.4byte	.LFB8
 6256 001c 1E000000 		.4byte	.LFE8-.LFB8
 6257 0020 00000000 		.4byte	.LFB7
 6258 0024 20000000 		.4byte	.LFE7-.LFB7
 6259 0028 00000000 		.4byte	.LFB6
 6260 002c 24000000 		.4byte	.LFE6-.LFB6
 6261 0030 00000000 		.4byte	.LFB5
 6262 0034 16000000 		.4byte	.LFE5-.LFB5
 6263 0038 00000000 		.4byte	.LFB14
 6264 003c 22000000 		.4byte	.LFE14-.LFB14
 6265 0040 00000000 		.4byte	.LFB12
 6266 0044 34000000 		.4byte	.LFE12-.LFB12
 6267 0048 00000000 		.4byte	.LFB18
 6268 004c 28000000 		.4byte	.LFE18-.LFB18
 6269 0050 00000000 		.4byte	.LFB16
 6270 0054 34000000 		.4byte	.LFE16-.LFB16
 6271 0058 00000000 		.4byte	.LFB22
 6272 005c 2C000000 		.4byte	.LFE22-.LFB22
 6273 0060 00000000 		.4byte	.LFB11
 6274 0064 88000000 		.4byte	.LFE11-.LFB11
 6275 0068 00000000 		.4byte	.LFB10
 6276 006c 16000000 		.4byte	.LFE10-.LFB10
 6277 0070 00000000 		.4byte	.LFB0
 6278 0074 08000000 		.4byte	.LFE0-.LFB0
 6279 0078 00000000 		.4byte	.LFB20
 6280 007c 34000000 		.4byte	.LFE20-.LFB20
 6281 0080 00000000 		.4byte	.LFB23
 6282 0084 42000000 		.4byte	.LFE23-.LFB23
 6283 0088 00000000 		.4byte	.LFB21
 6284 008c 34000000 		.4byte	.LFE21-.LFB21
 6285 0090 00000000 		.4byte	.LFB26
 6286 0094 2C000000 		.4byte	.LFE26-.LFB26
 6287 0098 00000000 		.4byte	.LFB27
 6288 009c 2C000000 		.4byte	.LFE27-.LFB27
 6289 00a0 00000000 		.4byte	.LFB28
 6290 00a4 18000000 		.4byte	.LFE28-.LFB28
 6291 00a8 00000000 		.4byte	.LFB19
 6292 00ac 54000000 		.4byte	.LFE19-.LFB19
 6293 00b0 00000000 		.4byte	.LFB17
 6294 00b4 34000000 		.4byte	.LFE17-.LFB17
 6295 00b8 00000000 		.4byte	.LFB29
 6296 00bc 12000000 		.4byte	.LFE29-.LFB29
 6297 00c0 00000000 		.4byte	.LFB4
 6298 00c4 A0000000 		.4byte	.LFE4-.LFB4
 6299 00c8 00000000 		.4byte	.LFB3
 6300 00cc 24000000 		.4byte	.LFE3-.LFB3
 6301 00d0 00000000 		.4byte	.LFB2
 6302 00d4 2C000000 		.4byte	.LFE2-.LFB2
 6303 00d8 00000000 		.4byte	.LFB1
 6304 00dc 1C000000 		.4byte	.LFE1-.LFB1
 6305 00e0 00000000 		.4byte	.LFB15
 6306 00e4 44000000 		.4byte	.LFE15-.LFB15
 6307 00e8 00000000 		.4byte	.LFB13
 6308 00ec 34000000 		.4byte	.LFE13-.LFB13
 6309 00f0 00000000 		.4byte	.LFB25
 6310 00f4 22000000 		.4byte	.LFE25-.LFB25
 6311 00f8 00000000 		.4byte	.LFB24
ARM GAS  C:\Users\Mayur\AppData\Local\Temp\ccxZLytu.s 			page 148


 6312 00fc 34000000 		.4byte	.LFE24-.LFB24
 6313 0100 00000000 		.4byte	0
 6314 0104 00000000 		.4byte	0
 6315              		.section	.debug_ranges,"",%progbits
 6316              	.Ldebug_ranges0:
 6317 0000 00000000 		.4byte	.LFB9
 6318 0004 1E000000 		.4byte	.LFE9
 6319 0008 00000000 		.4byte	.LFB8
 6320 000c 1E000000 		.4byte	.LFE8
 6321 0010 00000000 		.4byte	.LFB7
 6322 0014 20000000 		.4byte	.LFE7
 6323 0018 00000000 		.4byte	.LFB6
 6324 001c 24000000 		.4byte	.LFE6
 6325 0020 00000000 		.4byte	.LFB5
 6326 0024 16000000 		.4byte	.LFE5
 6327 0028 00000000 		.4byte	.LFB14
 6328 002c 22000000 		.4byte	.LFE14
 6329 0030 00000000 		.4byte	.LFB12
 6330 0034 34000000 		.4byte	.LFE12
 6331 0038 00000000 		.4byte	.LFB18
 6332 003c 28000000 		.4byte	.LFE18
 6333 0040 00000000 		.4byte	.LFB16
 6334 0044 34000000 		.4byte	.LFE16
 6335 0048 00000000 		.4byte	.LFB22
 6336 004c 2C000000 		.4byte	.LFE22
 6337 0050 00000000 		.4byte	.LFB11
 6338 0054 88000000 		.4byte	.LFE11
 6339 0058 00000000 		.4byte	.LFB10
 6340 005c 16000000 		.4byte	.LFE10
 6341 0060 00000000 		.4byte	.LFB0
 6342 0064 08000000 		.4byte	.LFE0
 6343 0068 00000000 		.4byte	.LFB20
 6344 006c 34000000 		.4byte	.LFE20
 6345 0070 00000000 		.4byte	.LFB23
 6346 0074 42000000 		.4byte	.LFE23
 6347 0078 00000000 		.4byte	.LFB21
 6348 007c 34000000 		.4byte	.LFE21
 6349 0080 00000000 		.4byte	.LFB26
 6350 0084 2C000000 		.4byte	.LFE26
 6351 0088 00000000 		.4byte	.LFB27
 6352 008c 2C000000 		.4byte	.LFE27
 6353 0090 00000000 		.4byte	.LFB28
 6354 0094 18000000 		.4byte	.LFE28
 6355 0098 00000000 		.4byte	.LFB19
 6356 009c 54000000 		.4byte	.LFE19
 6357 00a0 00000000 		.4byte	.LFB17
 6358 00a4 34000000 		.4byte	.LFE17
 6359 00a8 00000000 		.4byte	.LFB29
 6360 00ac 12000000 		.4byte	.LFE29
 6361 00b0 00000000 		.4byte	.LFB4
 6362 00b4 A0000000 		.4byte	.LFE4
 6363 00b8 00000000 		.4byte	.LFB3
 6364 00bc 24000000 		.4byte	.LFE3
 6365 00c0 00000000 		.4byte	.LFB2
 6366 00c4 2C000000 		.4byte	.LFE2
 6367 00c8 00000000 		.4byte	.LFB1
 6368 00cc 1C000000 		.4byte	.LFE1
ARM GAS  C:\Users\Mayur\AppData\Local\Temp\ccxZLytu.s 			page 149


 6369 00d0 00000000 		.4byte	.LFB15
 6370 00d4 44000000 		.4byte	.LFE15
 6371 00d8 00000000 		.4byte	.LFB13
 6372 00dc 34000000 		.4byte	.LFE13
 6373 00e0 00000000 		.4byte	.LFB25
 6374 00e4 22000000 		.4byte	.LFE25
 6375 00e8 00000000 		.4byte	.LFB24
 6376 00ec 34000000 		.4byte	.LFE24
 6377 00f0 00000000 		.4byte	0
 6378 00f4 00000000 		.4byte	0
 6379              		.section	.debug_line,"",%progbits
 6380              	.Ldebug_line0:
 6381 0000 1B040000 		.section	.debug_str,"MS",%progbits,1
 6381      0200A400 
 6381      00000201 
 6381      FB0E0D00 
 6381      01010101 
 6382              	.LASF103:
 6383 0000 7074724E 		.ascii	"ptrNoiseEnvelope\000"
 6383      6F697365 
 6383      456E7665 
 6383      6C6F7065 
 6383      00
 6384              	.LASF123:
 6385 0011 62617365 		.ascii	"baselineCoeff\000"
 6385      6C696E65 
 6385      436F6566 
 6385      6600
 6386              	.LASF93:
 6387 001f 43617053 		.ascii	"CapSense_1_InitializeAllBaselines\000"
 6387      656E7365 
 6387      5F315F49 
 6387      6E697469 
 6387      616C697A 
 6388              	.LASF70:
 6389 0041 43617053 		.ascii	"CapSense_1_FLASH_WD_STRUCT\000"
 6389      656E7365 
 6389      5F315F46 
 6389      4C415348 
 6389      5F57445F 
 6390              	.LASF76:
 6391 005c 43617053 		.ascii	"CapSense_1_REGULAR_FLTR_CHANNEL_STRUCT\000"
 6391      656E7365 
 6391      5F315F52 
 6391      4547554C 
 6391      41525F46 
 6392              	.LASF8:
 6393 0083 756E7369 		.ascii	"unsigned int\000"
 6393      676E6564 
 6393      20696E74 
 6393      00
 6394              	.LASF92:
 6395 0090 73656E73 		.ascii	"sensorsNumber\000"
 6395      6F72734E 
 6395      756D6265 
 6395      7200
 6396              	.LASF115:
ARM GAS  C:\Users\Mayur\AppData\Local\Temp\ccxZLytu.s 			page 150


 6397 009e 43617053 		.ascii	"CapSense_1_FtIIR1stOrder\000"
 6397      656E7365 
 6397      5F315F46 
 6397      74494952 
 6397      3173744F 
 6398              	.LASF117:
 6399 00b7 70726576 		.ascii	"prevOutput\000"
 6399      4F757470 
 6399      757400
 6400              	.LASF35:
 6401 00c2 43617053 		.ascii	"CapSense_1_WD_TYPE_ENUM\000"
 6401      656E7365 
 6401      5F315F57 
 6401      445F5459 
 6401      50455F45 
 6402              	.LASF113:
 6403 00da 43617053 		.ascii	"CapSense_1_RunMedian\000"
 6403      656E7365 
 6403      5F315F52 
 6403      756E4D65 
 6403      6469616E 
 6404              	.LASF120:
 6405 00ef 43617053 		.ascii	"CapSense_1_FtUpdateBaseline\000"
 6405      656E7365 
 6405      5F315F46 
 6405      74557064 
 6405      61746542 
 6406              	.LASF88:
 6407 010b 73656E73 		.ascii	"sensorId\000"
 6407      6F724964 
 6407      00
 6408              	.LASF131:
 6409 0114 43617053 		.ascii	"CapSense_1_RunIIR\000"
 6409      656E7365 
 6409      5F315F52 
 6409      756E4949 
 6409      5200
 6410              	.LASF111:
 6411 0126 43617053 		.ascii	"CapSense_1_InitializeNoiseEnvelope\000"
 6411      656E7365 
 6411      5F315F49 
 6411      6E697469 
 6411      616C697A 
 6412              	.LASF12:
 6413 0149 666C6F61 		.ascii	"float\000"
 6413      7400
 6414              	.LASF118:
 6415 014f 73686966 		.ascii	"shift\000"
 6415      7400
 6416              	.LASF124:
 6417 0155 72657375 		.ascii	"result\000"
 6417      6C7400
 6418              	.LASF28:
 6419 015c 43617053 		.ascii	"CapSense_1_WD_BUTTON_E\000"
 6419      656E7365 
 6419      5F315F57 
 6419      445F4255 
ARM GAS  C:\Users\Mayur\AppData\Local\Temp\ccxZLytu.s 			page 151


 6419      54544F4E 
 6420              	.LASF7:
 6421 0173 6C6F6E67 		.ascii	"long long unsigned int\000"
 6421      206C6F6E 
 6421      6720756E 
 6421      7369676E 
 6421      65642069 
 6422              	.LASF79:
 6423 018a 70747252 		.ascii	"ptrRegular\000"
 6423      6567756C 
 6423      617200
 6424              	.LASF127:
 6425 0195 43617053 		.ascii	"CapSense_1_UpdateWidgetBaseline\000"
 6425      656E7365 
 6425      5F315F55 
 6425      70646174 
 6425      65576964 
 6426              	.LASF78:
 6427 01b5 43617053 		.ascii	"CapSense_1_REGULAR_FLTR_STRUCT\000"
 6427      656E7365 
 6427      5F315F52 
 6427      4547554C 
 6427      41525F46 
 6428              	.LASF69:
 6429 01d4 70747232 		.ascii	"ptr2NoiseEnvlp\000"
 6429      4E6F6973 
 6429      65456E76 
 6429      6C7000
 6430              	.LASF74:
 6431 01e3 6D656448 		.ascii	"medHistory\000"
 6431      6973746F 
 6431      727900
 6432              	.LASF67:
 6433 01ee 77646774 		.ascii	"wdgtType\000"
 6433      54797065 
 6433      00
 6434              	.LASF40:
 6435 01f7 43617053 		.ascii	"CapSense_1_SENSE_METHOD_ISX_E\000"
 6435      656E7365 
 6435      5F315F53 
 6435      454E5345 
 6435      5F4D4554 
 6436              	.LASF102:
 6437 0215 70747257 		.ascii	"ptrWidgetRam\000"
 6437      69646765 
 6437      7452616D 
 6437      00
 6438              	.LASF19:
 6439 0222 43617053 		.ascii	"CapSense_1_LOW_BSLN_RST_TYPE\000"
 6439      656E7365 
 6439      5F315F4C 
 6439      4F575F42 
 6439      534C4E5F 
 6440              	.LASF136:
 6441 023f 474E5520 		.ascii	"GNU C11 5.4.1 20160609 (release) [ARM/embedded-5-br"
 6441      43313120 
 6441      352E342E 
ARM GAS  C:\Users\Mayur\AppData\Local\Temp\ccxZLytu.s 			page 152


 6441      31203230 
 6441      31363036 
 6442 0272 616E6368 		.ascii	"anch revision 237715] -mcpu=cortex-m0 -mthumb -g -O"
 6442      20726576 
 6442      6973696F 
 6442      6E203233 
 6442      37373135 
 6443 02a5 67202D66 		.ascii	"g -ffunction-sections -ffat-lto-objects\000"
 6443      66756E63 
 6443      74696F6E 
 6443      2D736563 
 6443      74696F6E 
 6444              	.LASF91:
 6445 02cd 43617053 		.ascii	"CapSense_1_InitializeWidgetBaseline\000"
 6445      656E7365 
 6445      5F315F49 
 6445      6E697469 
 6445      616C697A 
 6446              	.LASF77:
 6447 02f1 72656775 		.ascii	"regularChannel\000"
 6447      6C617243 
 6447      68616E6E 
 6447      656C00
 6448              	.LASF85:
 6449 0300 43617053 		.ascii	"CapSense_1_FtInitializeBaseline\000"
 6449      656E7365 
 6449      5F315F46 
 6449      74496E69 
 6449      7469616C 
 6450              	.LASF121:
 6451 0320 7369676E 		.ascii	"sign\000"
 6451      00
 6452              	.LASF52:
 6453 0325 73696750 		.ascii	"sigPFC\000"
 6453      464300
 6454              	.LASF39:
 6455 032c 43617053 		.ascii	"CapSense_1_SENSE_METHOD_BIST_E\000"
 6455      656E7365 
 6455      5F315F53 
 6455      454E5345 
 6455      5F4D4554 
 6456              	.LASF114:
 6457 034b 43617053 		.ascii	"CapSense_1_FtMedian\000"
 6457      656E7365 
 6457      5F315F46 
 6457      744D6564 
 6457      69616E00 
 6458              	.LASF138:
 6459 035f 443A5C53 		.ascii	"D:\\SMD Innovation\\4_1\\Design01.cydsn\000"
 6459      4D442049 
 6459      6E6E6F76 
 6459      6174696F 
 6459      6E5C345F 
 6460              	.LASF80:
 6461 0384 43617053 		.ascii	"CapSense_1_PTR_FILTER_VARIANT\000"
 6461      656E7365 
 6461      5F315F50 
ARM GAS  C:\Users\Mayur\AppData\Local\Temp\ccxZLytu.s 			page 153


 6461      54525F46 
 6461      494C5445 
 6462              	.LASF31:
 6463 03a2 43617053 		.ascii	"CapSense_1_WD_MATRIX_BUTTON_E\000"
 6463      656E7365 
 6463      5F315F57 
 6463      445F4D41 
 6463      54524958 
 6464              	.LASF47:
 6465 03c0 6C6F7742 		.ascii	"lowBslnRst\000"
 6465      736C6E52 
 6465      737400
 6466              	.LASF100:
 6467 03cb 43617053 		.ascii	"CapSense_1_InitializeAverageInternal\000"
 6467      656E7365 
 6467      5F315F49 
 6467      6E697469 
 6467      616C697A 
 6468              	.LASF66:
 6469 03f0 746F7461 		.ascii	"totalNumSns\000"
 6469      6C4E756D 
 6469      536E7300 
 6470              	.LASF101:
 6471 03fc 43617053 		.ascii	"CapSense_1_InitializeWidgetFilter\000"
 6471      656E7365 
 6471      5F315F49 
 6471      6E697469 
 6471      616C697A 
 6472              	.LASF27:
 6473 041e 534D4152 		.ascii	"SMARTSENSE_CSD_NOISE_ENVELOPE_STRUCT\000"
 6473      5453454E 
 6473      53455F43 
 6473      53445F4E 
 6473      4F495345 
 6474              	.LASF94:
 6475 0443 43617053 		.ascii	"CapSense_1_InitializeIIRInternal\000"
 6475      656E7365 
 6475      5F315F49 
 6475      6E697469 
 6475      616C697A 
 6476              	.LASF32:
 6477 0464 43617053 		.ascii	"CapSense_1_WD_TOUCHPAD_E\000"
 6477      656E7365 
 6477      5F315F57 
 6477      445F544F 
 6477      55434850 
 6478              	.LASF97:
 6479 047d 43617053 		.ascii	"CapSense_1_InitializeIIR\000"
 6479      656E7365 
 6479      5F315F49 
 6479      6E697469 
 6479      616C697A 
 6480              	.LASF43:
 6481 0496 6E6F6973 		.ascii	"noiseTh\000"
 6481      65546800 
 6482              	.LASF14:
 6483 049e 63686172 		.ascii	"char\000"
ARM GAS  C:\Users\Mayur\AppData\Local\Temp\ccxZLytu.s 			page 154


 6483      00
 6484              	.LASF98:
 6485 04a3 43617053 		.ascii	"CapSense_1_InitializeMedianInternal\000"
 6485      656E7365 
 6485      5F315F49 
 6485      6E697469 
 6485      616C697A 
 6486              	.LASF81:
 6487 04c7 70747253 		.ascii	"ptrSensor\000"
 6487      656E736F 
 6487      7200
 6488              	.LASF135:
 6489 04d1 536D6172 		.ascii	"SmartSense_RunNoiseEnvelope\000"
 6489      7453656E 
 6489      73655F52 
 6489      756E4E6F 
 6489      69736545 
 6490              	.LASF10:
 6491 04ed 75696E74 		.ascii	"uint16\000"
 6491      313600
 6492              	.LASF41:
 6493 04f4 7265736F 		.ascii	"resolution\000"
 6493      6C757469 
 6493      6F6E00
 6494              	.LASF30:
 6495 04ff 43617053 		.ascii	"CapSense_1_WD_RADIAL_SLIDER_E\000"
 6495      656E7365 
 6495      5F315F57 
 6495      445F5241 
 6495      4449414C 
 6496              	.LASF58:
 6497 051d 69646163 		.ascii	"idacComp\000"
 6497      436F6D70 
 6497      00
 6498              	.LASF109:
 6499 0526 43617053 		.ascii	"CapSense_1_RunAverage\000"
 6499      656E7365 
 6499      5F315F52 
 6499      756E4176 
 6499      65726167 
 6500              	.LASF119:
 6501 053c 66696C74 		.ascii	"filteredOutput\000"
 6501      65726564 
 6501      4F757470 
 6501      757400
 6502              	.LASF6:
 6503 054b 6C6F6E67 		.ascii	"long long int\000"
 6503      206C6F6E 
 6503      6720696E 
 6503      7400
 6504              	.LASF18:
 6505 0559 43617053 		.ascii	"CapSense_1_THRESHOLD_TYPE\000"
 6505      656E7365 
 6505      5F315F54 
 6505      48524553 
 6505      484F4C44 
 6506              	.LASF46:
ARM GAS  C:\Users\Mayur\AppData\Local\Temp\ccxZLytu.s 			page 155


 6507 0573 6F6E4465 		.ascii	"onDebounce\000"
 6507      626F756E 
 6507      636500
 6508              	.LASF84:
 6509 057e 43617053 		.ascii	"CapSense_1_FtInitializeBaselineChannel\000"
 6509      656E7365 
 6509      5F315F46 
 6509      74496E69 
 6509      7469616C 
 6510              	.LASF86:
 6511 05a5 43617053 		.ascii	"CapSense_1_InitializeSensorBaseline\000"
 6511      656E7365 
 6511      5F315F49 
 6511      6E697469 
 6511      616C697A 
 6512              	.LASF44:
 6513 05c9 6E4E6F69 		.ascii	"nNoiseTh\000"
 6513      73655468 
 6513      00
 6514              	.LASF125:
 6515 05d2 68697374 		.ascii	"history\000"
 6515      6F727900 
 6516              	.LASF89:
 6517 05da 66726571 		.ascii	"freqChannel\000"
 6517      4368616E 
 6517      6E656C00 
 6518              	.LASF53:
 6519 05e6 43617053 		.ascii	"CapSense_1_RAM_WD_BASE_STRUCT\000"
 6519      656E7365 
 6519      5F315F52 
 6519      414D5F57 
 6519      445F4241 
 6520              	.LASF11:
 6521 0604 75696E74 		.ascii	"uint32\000"
 6521      333200
 6522              	.LASF45:
 6523 060b 68797374 		.ascii	"hysteresis\000"
 6523      65726573 
 6523      697300
 6524              	.LASF128:
 6525 0616 62736C6E 		.ascii	"bslnStatus\000"
 6525      53746174 
 6525      757300
 6526              	.LASF63:
 6527 0621 70747232 		.ascii	"ptr2FltrHistory\000"
 6527      466C7472 
 6527      48697374 
 6527      6F727900 
 6528              	.LASF36:
 6529 0631 43617053 		.ascii	"CapSense_1_UNDEFINED_E\000"
 6529      656E7365 
 6529      5F315F55 
 6529      4E444546 
 6529      494E4544 
 6530              	.LASF126:
 6531 0648 43617053 		.ascii	"CapSense_1_UpdateSensorBaseline\000"
 6531      656E7365 
ARM GAS  C:\Users\Mayur\AppData\Local\Temp\ccxZLytu.s 			page 156


 6531      5F315F55 
 6531      70646174 
 6531      6553656E 
 6532              	.LASF29:
 6533 0668 43617053 		.ascii	"CapSense_1_WD_LINEAR_SLIDER_E\000"
 6533      656E7365 
 6533      5F315F57 
 6533      445F4C49 
 6533      4E454152 
 6534              	.LASF104:
 6535 0686 43617053 		.ascii	"CapSense_1_InitializeAllFilters\000"
 6535      656E7365 
 6535      5F315F49 
 6535      6E697469 
 6535      616C697A 
 6536              	.LASF134:
 6537 06a6 536D6172 		.ascii	"SmartSense_InitializeNoiseEnvelope\000"
 6537      7453656E 
 6537      73655F49 
 6537      6E697469 
 6537      616C697A 
 6538              	.LASF16:
 6539 06c9 6C6F6E67 		.ascii	"long double\000"
 6539      20646F75 
 6539      626C6500 
 6540              	.LASF62:
 6541 06d5 70747232 		.ascii	"ptr2SnsRam\000"
 6541      536E7352 
 6541      616D00
 6542              	.LASF83:
 6543 06e0 6368616E 		.ascii	"channel\000"
 6543      6E656C00 
 6544              	.LASF33:
 6545 06e8 43617053 		.ascii	"CapSense_1_WD_PROXIMITY_E\000"
 6545      656E7365 
 6545      5F315F57 
 6545      445F5052 
 6545      4F58494D 
 6546              	.LASF34:
 6547 0702 43617053 		.ascii	"CapSense_1_WD_ENCODERDIAL_E\000"
 6547      656E7365 
 6547      5F315F57 
 6547      445F454E 
 6547      434F4445 
 6548              	.LASF75:
 6549 071e 61766748 		.ascii	"avgHistory\000"
 6549      6973746F 
 6549      727900
 6550              	.LASF72:
 6551 0729 43617053 		.ascii	"CapSense_1_FLASH_STRUCT\000"
 6551      656E7365 
 6551      5F315F46 
 6551      4C415348 
 6551      5F535452 
 6552              	.LASF50:
 6553 0741 736E7343 		.ascii	"snsClkSource\000"
 6553      6C6B536F 
ARM GAS  C:\Users\Mayur\AppData\Local\Temp\ccxZLytu.s 			page 157


 6553      75726365 
 6553      00
 6554              	.LASF37:
 6555 074e 43617053 		.ascii	"CapSense_1_SENSE_METHOD_CSD_E\000"
 6555      656E7365 
 6555      5F315F53 
 6555      454E5345 
 6555      5F4D4554 
 6556              	.LASF2:
 6557 076c 73686F72 		.ascii	"short int\000"
 6557      7420696E 
 6557      7400
 6558              	.LASF4:
 6559 0776 6C6F6E67 		.ascii	"long int\000"
 6559      20696E74 
 6559      00
 6560              	.LASF132:
 6561 077f 43617053 		.ascii	"CapSense_1_FtRunEnabledFiltersInternal\000"
 6561      656E7365 
 6561      5F315F46 
 6561      7452756E 
 6561      456E6162 
 6562              	.LASF139:
 6563 07a6 43617053 		.ascii	"CapSense_1_dsFlash\000"
 6563      656E7365 
 6563      5F315F64 
 6563      73466C61 
 6563      736800
 6564              	.LASF56:
 6565 07b9 64696666 		.ascii	"diff\000"
 6565      00
 6566              	.LASF108:
 6567 07be 74656D70 		.ascii	"temp\000"
 6567      00
 6568              	.LASF112:
 6569 07c3 43617053 		.ascii	"CapSense_1_RunMedianInternal\000"
 6569      656E7365 
 6569      5F315F52 
 6569      756E4D65 
 6569      6469616E 
 6570              	.LASF90:
 6571 07e0 70747257 		.ascii	"ptrWidget\000"
 6571      69646765 
 6571      7400
 6572              	.LASF38:
 6573 07ea 43617053 		.ascii	"CapSense_1_SENSE_METHOD_CSX_E\000"
 6573      656E7365 
 6573      5F315F53 
 6573      454E5345 
 6573      5F4D4554 
 6574              	.LASF106:
 6575 0808 43617053 		.ascii	"CapSense_1_InitializeAverage\000"
 6575      656E7365 
 6575      5F315F49 
 6575      6E697469 
 6575      616C697A 
 6576              	.LASF137:
ARM GAS  C:\Users\Mayur\AppData\Local\Temp\ccxZLytu.s 			page 158


 6577 0825 47656E65 		.ascii	"Generated_Source\\PSoC4\\CapSense_1_Filter.c\000"
 6577      72617465 
 6577      645F536F 
 6577      75726365 
 6577      5C50536F 
 6578              	.LASF96:
 6579 0850 70747253 		.ascii	"ptrSensorObj\000"
 6579      656E736F 
 6579      724F626A 
 6579      00
 6580              	.LASF68:
 6581 085d 6E756D43 		.ascii	"numCols\000"
 6581      6F6C7300 
 6582              	.LASF51:
 6583 0865 66696E67 		.ascii	"fingerCap\000"
 6583      65724361 
 6583      7000
 6584              	.LASF107:
 6585 086f 43617053 		.ascii	"CapSense_1_RunAverageInternal\000"
 6585      656E7365 
 6585      5F315F52 
 6585      756E4176 
 6585      65726167 
 6586              	.LASF105:
 6587 088d 43617053 		.ascii	"CapSense_1_FtInitialize\000"
 6587      656E7365 
 6587      5F315F46 
 6587      74496E69 
 6587      7469616C 
 6588              	.LASF17:
 6589 08a5 73697A65 		.ascii	"sizetype\000"
 6589      74797065 
 6589      00
 6590              	.LASF5:
 6591 08ae 6C6F6E67 		.ascii	"long unsigned int\000"
 6591      20756E73 
 6591      69676E65 
 6591      6420696E 
 6591      7400
 6592              	.LASF48:
 6593 08c0 69646163 		.ascii	"idacMod\000"
 6593      4D6F6400 
 6594              	.LASF129:
 6595 08c8 43617053 		.ascii	"CapSense_1_UpdateAllBaselines\000"
 6595      656E7365 
 6595      5F315F55 
 6595      70646174 
 6595      65416C6C 
 6596              	.LASF64:
 6597 08e6 70747232 		.ascii	"ptr2DebounceArr\000"
 6597      4465626F 
 6597      756E6365 
 6597      41727200 
 6598              	.LASF116:
 6599 08f6 696E7075 		.ascii	"input\000"
 6599      7400
 6600              	.LASF42:
ARM GAS  C:\Users\Mayur\AppData\Local\Temp\ccxZLytu.s 			page 159


 6601 08fc 66696E67 		.ascii	"fingerTh\000"
 6601      65725468 
 6601      00
 6602              	.LASF55:
 6603 0905 62736C6E 		.ascii	"bslnExt\000"
 6603      45787400 
 6604              	.LASF110:
 6605 090d 43617053 		.ascii	"CapSense_1_RunNoiseEnvelope\000"
 6605      656E7365 
 6605      5F315F52 
 6605      756E4E6F 
 6605      69736545 
 6606              	.LASF15:
 6607 0929 63797374 		.ascii	"cystatus\000"
 6607      61747573 
 6607      00
 6608              	.LASF1:
 6609 0932 756E7369 		.ascii	"unsigned char\000"
 6609      676E6564 
 6609      20636861 
 6609      7200
 6610              	.LASF65:
 6611 0940 73746174 		.ascii	"staticConfig\000"
 6611      6963436F 
 6611      6E666967 
 6611      00
 6612              	.LASF61:
 6613 094d 70747232 		.ascii	"ptr2WdgtRam\000"
 6613      57646774 
 6613      52616D00 
 6614              	.LASF73:
 6615 0959 69697248 		.ascii	"iirHistory\000"
 6615      6973746F 
 6615      727900
 6616              	.LASF130:
 6617 0964 43617053 		.ascii	"CapSense_1_RunIIRInternal\000"
 6617      656E7365 
 6617      5F315F52 
 6617      756E4949 
 6617      52496E74 
 6618              	.LASF122:
 6619 097e 64696666 		.ascii	"difference\000"
 6619      6572656E 
 6619      636500
 6620              	.LASF49:
 6621 0989 736E7343 		.ascii	"snsClk\000"
 6621      6C6B00
 6622              	.LASF0:
 6623 0990 7369676E 		.ascii	"signed char\000"
 6623      65642063 
 6623      68617200 
 6624              	.LASF54:
 6625 099c 62736C6E 		.ascii	"bsln\000"
 6625      00
 6626              	.LASF3:
 6627 09a1 73686F72 		.ascii	"short unsigned int\000"
 6627      7420756E 
ARM GAS  C:\Users\Mayur\AppData\Local\Temp\ccxZLytu.s 			page 160


 6627      7369676E 
 6627      65642069 
 6627      6E7400
 6628              	.LASF60:
 6629 09b4 70747232 		.ascii	"ptr2SnsFlash\000"
 6629      536E7346 
 6629      6C617368 
 6629      00
 6630              	.LASF9:
 6631 09c1 75696E74 		.ascii	"uint8\000"
 6631      3800
 6632              	.LASF13:
 6633 09c7 646F7562 		.ascii	"double\000"
 6633      6C6500
 6634              	.LASF57:
 6635 09ce 6E656742 		.ascii	"negBslnRstCnt\000"
 6635      736C6E52 
 6635      7374436E 
 6635      7400
 6636              	.LASF59:
 6637 09dc 43617053 		.ascii	"CapSense_1_RAM_SNS_STRUCT\000"
 6637      656E7365 
 6637      5F315F52 
 6637      414D5F53 
 6637      4E535F53 
 6638              	.LASF20:
 6639 09f6 70617261 		.ascii	"param0\000"
 6639      6D3000
 6640              	.LASF21:
 6641 09fd 70617261 		.ascii	"param1\000"
 6641      6D3100
 6642              	.LASF22:
 6643 0a04 70617261 		.ascii	"param2\000"
 6643      6D3200
 6644              	.LASF23:
 6645 0a0b 70617261 		.ascii	"param3\000"
 6645      6D3300
 6646              	.LASF24:
 6647 0a12 70617261 		.ascii	"param4\000"
 6647      6D3400
 6648              	.LASF25:
 6649 0a19 70617261 		.ascii	"param5\000"
 6649      6D3500
 6650              	.LASF26:
 6651 0a20 70617261 		.ascii	"param6\000"
 6651      6D3600
 6652              	.LASF95:
 6653 0a27 70747246 		.ascii	"ptrFilterHistObj\000"
 6653      696C7465 
 6653      72486973 
 6653      744F626A 
 6653      00
 6654              	.LASF99:
 6655 0a38 43617053 		.ascii	"CapSense_1_InitializeMedian\000"
 6655      656E7365 
 6655      5F315F49 
 6655      6E697469 
ARM GAS  C:\Users\Mayur\AppData\Local\Temp\ccxZLytu.s 			page 161


 6655      616C697A 
 6656              	.LASF82:
 6657 0a54 77645479 		.ascii	"wdType\000"
 6657      706500
 6658              	.LASF87:
 6659 0a5b 77696467 		.ascii	"widgetId\000"
 6659      65744964 
 6659      00
 6660              	.LASF133:
 6661 0a64 43617053 		.ascii	"CapSense_1_FtRunEnabledFilters\000"
 6661      656E7365 
 6661      5F315F46 
 6661      7452756E 
 6661      456E6162 
 6662              	.LASF71:
 6663 0a83 77646774 		.ascii	"wdgtArray\000"
 6663      41727261 
 6663      7900
 6664              		.ident	"GCC: (GNU Tools for ARM Embedded Processors) 5.4.1 20160609 (release) [ARM/embedded-5-bran
