ARM GAS  C:\Users\Mayur\AppData\Local\Temp\ccxZLytu.s 			page 1


   1              		.syntax unified
   2              		.cpu cortex-m0
   3              		.fpu softvfp
   4              		.eabi_attribute 20, 1
   5              		.eabi_attribute 21, 1
   6              		.eabi_attribute 23, 3
   7              		.eabi_attribute 24, 1
   8              		.eabi_attribute 25, 1
   9              		.eabi_attribute 26, 1
  10              		.eabi_attribute 30, 1
  11              		.eabi_attribute 34, 0
  12              		.eabi_attribute 18, 4
  13              		.thumb
  14              		.syntax unified
  15              		.file	"CapSense_1_Filter.c"
  16              		.text
  17              	.Ltext0:
  18              		.cfi_sections	.debug_frame
  19              		.section	.text.CapSense_1_FtInitializeBaselineChannel,"ax",%progbits
  20              		.align	2
  21              		.global	CapSense_1_FtInitializeBaselineChannel
  22              		.code	16
  23              		.thumb_func
  24              		.type	CapSense_1_FtInitializeBaselineChannel, %function
  25              	CapSense_1_FtInitializeBaselineChannel:
  26              	.LFB9:
  27              		.file 1 "Generated_Source\\PSoC4\\CapSense_1_Filter.c"
   1:Generated_Source\PSoC4/CapSense_1_Filter.c **** /***************************************************************************//**
   2:Generated_Source\PSoC4/CapSense_1_Filter.c **** * \file CapSense_1_Filter.c
   3:Generated_Source\PSoC4/CapSense_1_Filter.c **** * \version 6.0
   4:Generated_Source\PSoC4/CapSense_1_Filter.c **** *
   5:Generated_Source\PSoC4/CapSense_1_Filter.c **** * \brief
   6:Generated_Source\PSoC4/CapSense_1_Filter.c **** *   This file contains the implementation source code to implement all
   7:Generated_Source\PSoC4/CapSense_1_Filter.c **** *   firmware filters.
   8:Generated_Source\PSoC4/CapSense_1_Filter.c **** *
   9:Generated_Source\PSoC4/CapSense_1_Filter.c **** * \see CapSense_1 v6.0 Datasheet
  10:Generated_Source\PSoC4/CapSense_1_Filter.c **** *
  11:Generated_Source\PSoC4/CapSense_1_Filter.c **** *//*****************************************************************************
  12:Generated_Source\PSoC4/CapSense_1_Filter.c **** * Copyright (2016-2018), Cypress Semiconductor Corporation.
  13:Generated_Source\PSoC4/CapSense_1_Filter.c **** ********************************************************************************
  14:Generated_Source\PSoC4/CapSense_1_Filter.c **** * This software is owned by Cypress Semiconductor Corporation (Cypress) and is
  15:Generated_Source\PSoC4/CapSense_1_Filter.c **** * protected by and subject to worldwide patent protection (United States and
  16:Generated_Source\PSoC4/CapSense_1_Filter.c **** * foreign), United States copyright laws and international treaty provisions.
  17:Generated_Source\PSoC4/CapSense_1_Filter.c **** * Cypress hereby grants to licensee a personal, non-exclusive, non-transferable
  18:Generated_Source\PSoC4/CapSense_1_Filter.c **** * license to copy, use, modify, create derivative works of, and compile the
  19:Generated_Source\PSoC4/CapSense_1_Filter.c **** * Cypress Source Code and derivative works for the sole purpose of creating
  20:Generated_Source\PSoC4/CapSense_1_Filter.c **** * custom software in support of licensee product to be used only in conjunction
  21:Generated_Source\PSoC4/CapSense_1_Filter.c **** * with a Cypress integrated circuit as specified in the applicable agreement.
  22:Generated_Source\PSoC4/CapSense_1_Filter.c **** * Any reproduction, modification, translation, compilation, or representation of
  23:Generated_Source\PSoC4/CapSense_1_Filter.c **** * this software except as specified above is prohibited without the express
  24:Generated_Source\PSoC4/CapSense_1_Filter.c **** * written permission of Cypress.
  25:Generated_Source\PSoC4/CapSense_1_Filter.c **** *
  26:Generated_Source\PSoC4/CapSense_1_Filter.c **** * Disclaimer: CYPRESS MAKES NO WARRANTY OF ANY KIND, EXPRESS OR IMPLIED, WITH
  27:Generated_Source\PSoC4/CapSense_1_Filter.c **** * REGARD TO THIS MATERIAL, INCLUDING, BUT NOT LIMITED TO, THE IMPLIED
  28:Generated_Source\PSoC4/CapSense_1_Filter.c **** * WARRANTIES OF MERCHANTABILITY AND FITNESS FOR A PARTICULAR PURPOSE.
  29:Generated_Source\PSoC4/CapSense_1_Filter.c **** * Cypress reserves the right to make changes without further notice to the
  30:Generated_Source\PSoC4/CapSense_1_Filter.c **** * materials described herein. Cypress does not assume any liability arising out
ARM GAS  C:\Users\Mayur\AppData\Local\Temp\ccxZLytu.s 			page 2


  31:Generated_Source\PSoC4/CapSense_1_Filter.c **** * of the application or use of any product or circuit described herein. Cypress
  32:Generated_Source\PSoC4/CapSense_1_Filter.c **** * does not authorize its products for use as critical components in life-support
  33:Generated_Source\PSoC4/CapSense_1_Filter.c **** * systems where a malfunction or failure may reasonably be expected to result in
  34:Generated_Source\PSoC4/CapSense_1_Filter.c **** * significant injury to the user. The inclusion of Cypress' product in a life-
  35:Generated_Source\PSoC4/CapSense_1_Filter.c **** * support systems application implies that the manufacturer assumes all risk of
  36:Generated_Source\PSoC4/CapSense_1_Filter.c **** * such use and in doing so indemnifies Cypress against all charges. Use may be
  37:Generated_Source\PSoC4/CapSense_1_Filter.c **** * limited by and subject to the applicable Cypress software license agreement.
  38:Generated_Source\PSoC4/CapSense_1_Filter.c **** *******************************************************************************/
  39:Generated_Source\PSoC4/CapSense_1_Filter.c **** 
  40:Generated_Source\PSoC4/CapSense_1_Filter.c **** #include "CapSense_1_Filter.h"
  41:Generated_Source\PSoC4/CapSense_1_Filter.c **** #include "CapSense_1_Configuration.h"
  42:Generated_Source\PSoC4/CapSense_1_Filter.c **** 
  43:Generated_Source\PSoC4/CapSense_1_Filter.c **** #if (0 != (CapSense_1_CSD_AUTOTUNE & CapSense_1_CSD_SS_TH_EN))
  44:Generated_Source\PSoC4/CapSense_1_Filter.c ****     #include "CapSense_1_SmartSense_LL.h"
  45:Generated_Source\PSoC4/CapSense_1_Filter.c **** #endif /* (0 != (CapSense_1_CSD_AUTOTUNE & CapSense_1_CSD_SS_TH_EN)) */
  46:Generated_Source\PSoC4/CapSense_1_Filter.c **** 
  47:Generated_Source\PSoC4/CapSense_1_Filter.c **** #if (CapSense_1_ENABLE == CapSense_1_SELF_TEST_EN)
  48:Generated_Source\PSoC4/CapSense_1_Filter.c ****     #include "CapSense_1_SelfTest.h"
  49:Generated_Source\PSoC4/CapSense_1_Filter.c **** #endif
  50:Generated_Source\PSoC4/CapSense_1_Filter.c **** 
  51:Generated_Source\PSoC4/CapSense_1_Filter.c **** /*******************************************************************************
  52:Generated_Source\PSoC4/CapSense_1_Filter.c **** * Function Name: CapSense_1_FtInitialize
  53:Generated_Source\PSoC4/CapSense_1_Filter.c **** ****************************************************************************//**
  54:Generated_Source\PSoC4/CapSense_1_Filter.c **** *
  55:Generated_Source\PSoC4/CapSense_1_Filter.c **** * \brief
  56:Generated_Source\PSoC4/CapSense_1_Filter.c **** *  Initializes all the firmware filter history, except the baseline filter.
  57:Generated_Source\PSoC4/CapSense_1_Filter.c **** *
  58:Generated_Source\PSoC4/CapSense_1_Filter.c **** * \details
  59:Generated_Source\PSoC4/CapSense_1_Filter.c **** *  Initializes all the firmware filter history, except the baseline filter.
  60:Generated_Source\PSoC4/CapSense_1_Filter.c **** *
  61:Generated_Source\PSoC4/CapSense_1_Filter.c **** *******************************************************************************/
  62:Generated_Source\PSoC4/CapSense_1_Filter.c **** void CapSense_1_FtInitialize(void)
  63:Generated_Source\PSoC4/CapSense_1_Filter.c **** {
  64:Generated_Source\PSoC4/CapSense_1_Filter.c ****     #if ((CapSense_1_ENABLE == CapSense_1_RC_FILTER_EN) || \
  65:Generated_Source\PSoC4/CapSense_1_Filter.c ****          (0u != (CapSense_1_CSD_AUTOTUNE & CapSense_1_CSD_SS_TH_EN)))
  66:Generated_Source\PSoC4/CapSense_1_Filter.c ****         CapSense_1_InitializeAllFilters();
  67:Generated_Source\PSoC4/CapSense_1_Filter.c ****     #endif /* ((CapSense_1_ENABLE == CapSense_1_RC_FILTER_EN) || \
  68:Generated_Source\PSoC4/CapSense_1_Filter.c ****                (0u != (CapSense_1_CSD_AUTOTUNE & CapSense_1_CSD_SS_TH_EN))) */
  69:Generated_Source\PSoC4/CapSense_1_Filter.c **** }
  70:Generated_Source\PSoC4/CapSense_1_Filter.c **** 
  71:Generated_Source\PSoC4/CapSense_1_Filter.c **** 
  72:Generated_Source\PSoC4/CapSense_1_Filter.c **** /*******************************************************************************
  73:Generated_Source\PSoC4/CapSense_1_Filter.c **** * Function Name: CapSense_1_UpdateAllBaselines
  74:Generated_Source\PSoC4/CapSense_1_Filter.c **** ****************************************************************************//**
  75:Generated_Source\PSoC4/CapSense_1_Filter.c **** *
  76:Generated_Source\PSoC4/CapSense_1_Filter.c **** * \brief
  77:Generated_Source\PSoC4/CapSense_1_Filter.c **** *  Updates the baseline for all the sensors in all the widgets.
  78:Generated_Source\PSoC4/CapSense_1_Filter.c **** *
  79:Generated_Source\PSoC4/CapSense_1_Filter.c **** * \details
  80:Generated_Source\PSoC4/CapSense_1_Filter.c **** *  Updates the baseline for all the sensors in all the widgets. Baseline updating is a
  81:Generated_Source\PSoC4/CapSense_1_Filter.c **** *  part of data processing performed by the process functions. So, no need to
  82:Generated_Source\PSoC4/CapSense_1_Filter.c **** *  call this function except a specific process flow is implemented.
  83:Generated_Source\PSoC4/CapSense_1_Filter.c **** *
  84:Generated_Source\PSoC4/CapSense_1_Filter.c **** *  This function ignores the value of the wdgtEnable register. Multiple calling
  85:Generated_Source\PSoC4/CapSense_1_Filter.c **** *  of this function (or any other function with a baseline updating task)
  86:Generated_Source\PSoC4/CapSense_1_Filter.c **** *  without scanning leads to unexpected behavior.
  87:Generated_Source\PSoC4/CapSense_1_Filter.c **** *
ARM GAS  C:\Users\Mayur\AppData\Local\Temp\ccxZLytu.s 			page 3


  88:Generated_Source\PSoC4/CapSense_1_Filter.c **** *  If the Self-test library is enabled, this function executes the baseline duplication
  89:Generated_Source\PSoC4/CapSense_1_Filter.c **** *  test. Refer to CapSense_1_CheckBaselineDuplication() for details.
  90:Generated_Source\PSoC4/CapSense_1_Filter.c **** *
  91:Generated_Source\PSoC4/CapSense_1_Filter.c **** * \return
  92:Generated_Source\PSoC4/CapSense_1_Filter.c **** *  Returns the status of the update baseline operation of all the widgets:
  93:Generated_Source\PSoC4/CapSense_1_Filter.c **** *  - CYRET_SUCCESS - The operation is successfully completed.
  94:Generated_Source\PSoC4/CapSense_1_Filter.c **** *  - CYRET_BAD_DATA - The baseline processing failed.
  95:Generated_Source\PSoC4/CapSense_1_Filter.c **** *
  96:Generated_Source\PSoC4/CapSense_1_Filter.c **** *******************************************************************************/
  97:Generated_Source\PSoC4/CapSense_1_Filter.c **** cystatus CapSense_1_UpdateAllBaselines(void)
  98:Generated_Source\PSoC4/CapSense_1_Filter.c **** {
  99:Generated_Source\PSoC4/CapSense_1_Filter.c ****     uint32 widgetId;
 100:Generated_Source\PSoC4/CapSense_1_Filter.c ****     cystatus bslnStatus = CYRET_SUCCESS;
 101:Generated_Source\PSoC4/CapSense_1_Filter.c **** 
 102:Generated_Source\PSoC4/CapSense_1_Filter.c ****     for(widgetId = CapSense_1_TOTAL_WIDGETS; widgetId-- > 0u;)
 103:Generated_Source\PSoC4/CapSense_1_Filter.c ****     {
 104:Generated_Source\PSoC4/CapSense_1_Filter.c ****         bslnStatus |= CapSense_1_UpdateWidgetBaseline(widgetId);
 105:Generated_Source\PSoC4/CapSense_1_Filter.c ****     }
 106:Generated_Source\PSoC4/CapSense_1_Filter.c **** 
 107:Generated_Source\PSoC4/CapSense_1_Filter.c ****     return(bslnStatus);
 108:Generated_Source\PSoC4/CapSense_1_Filter.c **** }
 109:Generated_Source\PSoC4/CapSense_1_Filter.c **** 
 110:Generated_Source\PSoC4/CapSense_1_Filter.c **** 
 111:Generated_Source\PSoC4/CapSense_1_Filter.c **** /*******************************************************************************
 112:Generated_Source\PSoC4/CapSense_1_Filter.c **** * Function Name: CapSense_1_UpdateWidgetBaseline
 113:Generated_Source\PSoC4/CapSense_1_Filter.c **** ****************************************************************************//**
 114:Generated_Source\PSoC4/CapSense_1_Filter.c **** *
 115:Generated_Source\PSoC4/CapSense_1_Filter.c **** * \brief
 116:Generated_Source\PSoC4/CapSense_1_Filter.c **** *  Updates the baselines for all the sensors in a widget specified by the input
 117:Generated_Source\PSoC4/CapSense_1_Filter.c **** *  parameter.
 118:Generated_Source\PSoC4/CapSense_1_Filter.c **** *
 119:Generated_Source\PSoC4/CapSense_1_Filter.c **** * \details
 120:Generated_Source\PSoC4/CapSense_1_Filter.c **** *  This function performs exactly the same tasks as
 121:Generated_Source\PSoC4/CapSense_1_Filter.c **** *  CapSense_1_UpdateAllBaselines() but only for a specified widget.
 122:Generated_Source\PSoC4/CapSense_1_Filter.c **** *
 123:Generated_Source\PSoC4/CapSense_1_Filter.c **** *  This function ignores the value of the wdgtEnable register. Multiple calling
 124:Generated_Source\PSoC4/CapSense_1_Filter.c **** *  of this function (or any other function with a baseline updating task)
 125:Generated_Source\PSoC4/CapSense_1_Filter.c **** *  without scanning leads to unexpected behavior.
 126:Generated_Source\PSoC4/CapSense_1_Filter.c **** *
 127:Generated_Source\PSoC4/CapSense_1_Filter.c **** *  If the Self-test library is enabled, this function executes the baseline duplication
 128:Generated_Source\PSoC4/CapSense_1_Filter.c **** *  test. Refer to CapSense_1_CheckBaselineDuplication() for details.
 129:Generated_Source\PSoC4/CapSense_1_Filter.c **** *
 130:Generated_Source\PSoC4/CapSense_1_Filter.c **** * \param widgetId
 131:Generated_Source\PSoC4/CapSense_1_Filter.c **** *  Specifies the ID number of the widget to update the baseline of all the sensors
 132:Generated_Source\PSoC4/CapSense_1_Filter.c **** *  in the widget.
 133:Generated_Source\PSoC4/CapSense_1_Filter.c **** *  A macro for the widget ID can be found in the
 134:Generated_Source\PSoC4/CapSense_1_Filter.c **** *  CapSense_1 Configuration header file defined as
 135:Generated_Source\PSoC4/CapSense_1_Filter.c **** *  CapSense_1_<WidgetName>_WDGT_ID.
 136:Generated_Source\PSoC4/CapSense_1_Filter.c **** *
 137:Generated_Source\PSoC4/CapSense_1_Filter.c **** * \return
 138:Generated_Source\PSoC4/CapSense_1_Filter.c **** *  Returns the status of the specified widget update baseline operation:
 139:Generated_Source\PSoC4/CapSense_1_Filter.c **** *  - CYRET_SUCCESS - The operation is successfully completed.
 140:Generated_Source\PSoC4/CapSense_1_Filter.c **** *  - CYRET_BAD_DATA - The baseline processing is failed.
 141:Generated_Source\PSoC4/CapSense_1_Filter.c **** *
 142:Generated_Source\PSoC4/CapSense_1_Filter.c **** *******************************************************************************/
 143:Generated_Source\PSoC4/CapSense_1_Filter.c **** cystatus CapSense_1_UpdateWidgetBaseline(uint32 widgetId)
 144:Generated_Source\PSoC4/CapSense_1_Filter.c **** {
ARM GAS  C:\Users\Mayur\AppData\Local\Temp\ccxZLytu.s 			page 4


 145:Generated_Source\PSoC4/CapSense_1_Filter.c ****     uint32 sensorId;
 146:Generated_Source\PSoC4/CapSense_1_Filter.c ****     uint32 sensorsNumber;
 147:Generated_Source\PSoC4/CapSense_1_Filter.c **** 
 148:Generated_Source\PSoC4/CapSense_1_Filter.c ****     CapSense_1_FLASH_WD_STRUCT const *ptrWidget = &CapSense_1_dsFlash.wdgtArray[widgetId];
 149:Generated_Source\PSoC4/CapSense_1_Filter.c ****     cystatus bslnStatus = CYRET_SUCCESS;
 150:Generated_Source\PSoC4/CapSense_1_Filter.c **** 
 151:Generated_Source\PSoC4/CapSense_1_Filter.c ****     /* Find total amount of sensors in specified widget */
 152:Generated_Source\PSoC4/CapSense_1_Filter.c ****     sensorsNumber = CapSense_1_GET_SNS_CNT_BY_PTR(ptrWidget);
 153:Generated_Source\PSoC4/CapSense_1_Filter.c **** 
 154:Generated_Source\PSoC4/CapSense_1_Filter.c ****     for(sensorId = sensorsNumber; sensorId-- > 0u;)
 155:Generated_Source\PSoC4/CapSense_1_Filter.c ****     {
 156:Generated_Source\PSoC4/CapSense_1_Filter.c ****         bslnStatus |= CapSense_1_UpdateSensorBaseline(widgetId, sensorId);
 157:Generated_Source\PSoC4/CapSense_1_Filter.c ****     }
 158:Generated_Source\PSoC4/CapSense_1_Filter.c **** 
 159:Generated_Source\PSoC4/CapSense_1_Filter.c ****     return(bslnStatus);
 160:Generated_Source\PSoC4/CapSense_1_Filter.c **** }
 161:Generated_Source\PSoC4/CapSense_1_Filter.c **** 
 162:Generated_Source\PSoC4/CapSense_1_Filter.c **** 
 163:Generated_Source\PSoC4/CapSense_1_Filter.c **** /*******************************************************************************
 164:Generated_Source\PSoC4/CapSense_1_Filter.c **** * Function Name: CapSense_1_UpdateSensorBaseline
 165:Generated_Source\PSoC4/CapSense_1_Filter.c **** ****************************************************************************//**
 166:Generated_Source\PSoC4/CapSense_1_Filter.c **** *
 167:Generated_Source\PSoC4/CapSense_1_Filter.c **** * \brief
 168:Generated_Source\PSoC4/CapSense_1_Filter.c **** *  Updates the baseline for a sensor in a widget specified by the input parameters.
 169:Generated_Source\PSoC4/CapSense_1_Filter.c **** *
 170:Generated_Source\PSoC4/CapSense_1_Filter.c **** * \details
 171:Generated_Source\PSoC4/CapSense_1_Filter.c **** *  This function performs exactly the same tasks as
 172:Generated_Source\PSoC4/CapSense_1_Filter.c **** *  CapSense_1_UpdateAllBaselines() and
 173:Generated_Source\PSoC4/CapSense_1_Filter.c **** *  CapSense_1_UpdateWidgetBaseline() but only for a specified sensor.
 174:Generated_Source\PSoC4/CapSense_1_Filter.c **** *
 175:Generated_Source\PSoC4/CapSense_1_Filter.c **** *  This function ignores the value of the wdgtEnable register. Multiple calling
 176:Generated_Source\PSoC4/CapSense_1_Filter.c **** *  of this function (or any other function with a baseline updating task)
 177:Generated_Source\PSoC4/CapSense_1_Filter.c **** *  without scanning leads to unexpected behavior.
 178:Generated_Source\PSoC4/CapSense_1_Filter.c **** *
 179:Generated_Source\PSoC4/CapSense_1_Filter.c **** *  If the Self-test library is enabled, this function executes the baseline duplication
 180:Generated_Source\PSoC4/CapSense_1_Filter.c **** *  test. Refer to CapSense_1_CheckBaselineDuplication() for details.
 181:Generated_Source\PSoC4/CapSense_1_Filter.c **** *
 182:Generated_Source\PSoC4/CapSense_1_Filter.c **** * \param widgetId
 183:Generated_Source\PSoC4/CapSense_1_Filter.c **** *  Specifies the ID number of the widget to update the baseline of the sensor
 184:Generated_Source\PSoC4/CapSense_1_Filter.c **** *  specified by the sensorId argument.
 185:Generated_Source\PSoC4/CapSense_1_Filter.c **** *  A macro for the widget ID can be found in the CapSense_1 Configuration header
 186:Generated_Source\PSoC4/CapSense_1_Filter.c **** *  file defined as CapSense_1_<WidgetName>_WDGT_ID.
 187:Generated_Source\PSoC4/CapSense_1_Filter.c **** *
 188:Generated_Source\PSoC4/CapSense_1_Filter.c **** * \param sensorId
 189:Generated_Source\PSoC4/CapSense_1_Filter.c **** *  Specifies the ID number of the sensor within the widget to update its baseline.
 190:Generated_Source\PSoC4/CapSense_1_Filter.c **** *  A macro for the sensor ID within a specified widget can be found in the
 191:Generated_Source\PSoC4/CapSense_1_Filter.c **** *  CapSense_1 Configuration header file defined as
 192:Generated_Source\PSoC4/CapSense_1_Filter.c **** *  CapSense_1_<WidgetName>_SNS<SensorNumber>_ID.
 193:Generated_Source\PSoC4/CapSense_1_Filter.c **** *
 194:Generated_Source\PSoC4/CapSense_1_Filter.c **** * \return
 195:Generated_Source\PSoC4/CapSense_1_Filter.c **** *  Returns the status of the specified sensor update baseline operation:
 196:Generated_Source\PSoC4/CapSense_1_Filter.c **** *  - CYRET_SUCCESS - The operation is successfully completed.
 197:Generated_Source\PSoC4/CapSense_1_Filter.c **** *  - CYRET_BAD_DATA - The baseline processing failed.
 198:Generated_Source\PSoC4/CapSense_1_Filter.c **** *
 199:Generated_Source\PSoC4/CapSense_1_Filter.c **** *******************************************************************************/
 200:Generated_Source\PSoC4/CapSense_1_Filter.c **** cystatus CapSense_1_UpdateSensorBaseline(uint32 widgetId, uint32 sensorId)
 201:Generated_Source\PSoC4/CapSense_1_Filter.c **** {
ARM GAS  C:\Users\Mayur\AppData\Local\Temp\ccxZLytu.s 			page 5


 202:Generated_Source\PSoC4/CapSense_1_Filter.c ****     uint32 result = CYRET_SUCCESS;
 203:Generated_Source\PSoC4/CapSense_1_Filter.c **** 
 204:Generated_Source\PSoC4/CapSense_1_Filter.c ****     CapSense_1_RAM_SNS_STRUCT *ptrSensor = NULL;
 205:Generated_Source\PSoC4/CapSense_1_Filter.c ****     CapSense_1_FLASH_WD_STRUCT const *ptrWidget = &CapSense_1_dsFlash.wdgtArray[widgetId];
 206:Generated_Source\PSoC4/CapSense_1_Filter.c ****     CapSense_1_RAM_WD_BASE_STRUCT *ptrWidgetRam = (CapSense_1_RAM_WD_BASE_STRUCT *)ptrWidget->ptr2W
 207:Generated_Source\PSoC4/CapSense_1_Filter.c **** 
 208:Generated_Source\PSoC4/CapSense_1_Filter.c ****     /* Find pointer to specified sensor object */
 209:Generated_Source\PSoC4/CapSense_1_Filter.c ****     ptrSensor = ptrWidget->ptr2SnsRam;
 210:Generated_Source\PSoC4/CapSense_1_Filter.c ****     ptrSensor = &ptrSensor[sensorId];
 211:Generated_Source\PSoC4/CapSense_1_Filter.c ****     result = CapSense_1_FtUpdateBaseline(ptrWidgetRam, ptrSensor, (uint32)ptrWidget->wdgtType);
 212:Generated_Source\PSoC4/CapSense_1_Filter.c **** 
 213:Generated_Source\PSoC4/CapSense_1_Filter.c ****     #if (CapSense_1_ENABLE == CapSense_1_TST_BSLN_DUPLICATION_EN)
 214:Generated_Source\PSoC4/CapSense_1_Filter.c ****         if (CYRET_SUCCESS != result)
 215:Generated_Source\PSoC4/CapSense_1_Filter.c ****         {
 216:Generated_Source\PSoC4/CapSense_1_Filter.c ****             result = CYRET_BAD_DATA;
 217:Generated_Source\PSoC4/CapSense_1_Filter.c ****             CapSense_1_UpdateTestResultBaselineDuplication(widgetId, sensorId);
 218:Generated_Source\PSoC4/CapSense_1_Filter.c ****         }
 219:Generated_Source\PSoC4/CapSense_1_Filter.c ****     #endif /* (CapSense_1_ENABLE == CapSense_1_TST_BSLN_DUPLICATION_EN) */
 220:Generated_Source\PSoC4/CapSense_1_Filter.c **** 
 221:Generated_Source\PSoC4/CapSense_1_Filter.c ****     return result;
 222:Generated_Source\PSoC4/CapSense_1_Filter.c **** }
 223:Generated_Source\PSoC4/CapSense_1_Filter.c **** 
 224:Generated_Source\PSoC4/CapSense_1_Filter.c **** /*******************************************************************************
 225:Generated_Source\PSoC4/CapSense_1_Filter.c **** * Function Name: CapSense_1_FtUpdateBaseline
 226:Generated_Source\PSoC4/CapSense_1_Filter.c **** ****************************************************************************//**
 227:Generated_Source\PSoC4/CapSense_1_Filter.c **** *
 228:Generated_Source\PSoC4/CapSense_1_Filter.c **** * \brief
 229:Generated_Source\PSoC4/CapSense_1_Filter.c **** *  Updates the baseline for a sensor specified by an input parameter.
 230:Generated_Source\PSoC4/CapSense_1_Filter.c **** *
 231:Generated_Source\PSoC4/CapSense_1_Filter.c **** * \details
 232:Generated_Source\PSoC4/CapSense_1_Filter.c **** *  Check a matching of present baseline and its inverse duplication. If they
 233:Generated_Source\PSoC4/CapSense_1_Filter.c **** *  match then updates the baseline for a sensor specified by an input parameter.
 234:Generated_Source\PSoC4/CapSense_1_Filter.c **** *  If don't match the function return CapSense_1_TST_BSLN_DUPLICATION
 235:Generated_Source\PSoC4/CapSense_1_Filter.c **** *  result and don't update baseline.
 236:Generated_Source\PSoC4/CapSense_1_Filter.c **** *
 237:Generated_Source\PSoC4/CapSense_1_Filter.c **** * \param ptrWidgetRam
 238:Generated_Source\PSoC4/CapSense_1_Filter.c **** *  The pointer to the widget RAM structure where all the widget parameters
 239:Generated_Source\PSoC4/CapSense_1_Filter.c **** *  are stored.
 240:Generated_Source\PSoC4/CapSense_1_Filter.c **** *
 241:Generated_Source\PSoC4/CapSense_1_Filter.c **** * \param ptrSensor
 242:Generated_Source\PSoC4/CapSense_1_Filter.c **** *  The pointer to the sensor RAM structure where all the sensor parameters
 243:Generated_Source\PSoC4/CapSense_1_Filter.c **** *  are stored.
 244:Generated_Source\PSoC4/CapSense_1_Filter.c **** *
 245:Generated_Source\PSoC4/CapSense_1_Filter.c **** * \param wdType
 246:Generated_Source\PSoC4/CapSense_1_Filter.c **** *  Specifies the type of a widget.
 247:Generated_Source\PSoC4/CapSense_1_Filter.c **** *
 248:Generated_Source\PSoC4/CapSense_1_Filter.c **** * \return
 249:Generated_Source\PSoC4/CapSense_1_Filter.c **** *  Returns a status indicating whether the baseline has been updated:
 250:Generated_Source\PSoC4/CapSense_1_Filter.c **** *  - CYRET_SUCCESS if baseline updating was successful.
 251:Generated_Source\PSoC4/CapSense_1_Filter.c **** *  - CapSense_1_PROCESS_BASELINE_FAILED if present sensor's any channel
 252:Generated_Source\PSoC4/CapSense_1_Filter.c **** *    baseline and its inversion doesn't matched.
 253:Generated_Source\PSoC4/CapSense_1_Filter.c **** *
 254:Generated_Source\PSoC4/CapSense_1_Filter.c **** *******************************************************************************/
 255:Generated_Source\PSoC4/CapSense_1_Filter.c **** uint32 CapSense_1_FtUpdateBaseline(
 256:Generated_Source\PSoC4/CapSense_1_Filter.c ****                                 CapSense_1_RAM_WD_BASE_STRUCT *ptrWidgetRam,
 257:Generated_Source\PSoC4/CapSense_1_Filter.c ****                                 CapSense_1_RAM_SNS_STRUCT *ptrSensor,
 258:Generated_Source\PSoC4/CapSense_1_Filter.c ****                                 uint32 wdType)
ARM GAS  C:\Users\Mayur\AppData\Local\Temp\ccxZLytu.s 			page 6


 259:Generated_Source\PSoC4/CapSense_1_Filter.c **** {
 260:Generated_Source\PSoC4/CapSense_1_Filter.c ****     uint32 sign;
 261:Generated_Source\PSoC4/CapSense_1_Filter.c ****     uint32 difference;
 262:Generated_Source\PSoC4/CapSense_1_Filter.c ****     uint32 freqChannel;
 263:Generated_Source\PSoC4/CapSense_1_Filter.c ****     uint32 baselineCoeff;
 264:Generated_Source\PSoC4/CapSense_1_Filter.c ****     uint32 result = CYRET_SUCCESS;
 265:Generated_Source\PSoC4/CapSense_1_Filter.c **** 
 266:Generated_Source\PSoC4/CapSense_1_Filter.c ****     #if (CapSense_1_TOTAL_WIDGETS)
 267:Generated_Source\PSoC4/CapSense_1_Filter.c ****         uint32 history;
 268:Generated_Source\PSoC4/CapSense_1_Filter.c ****     #endif /* (CapSense_1_TOTAL_WIDGETS) */
 269:Generated_Source\PSoC4/CapSense_1_Filter.c **** 
 270:Generated_Source\PSoC4/CapSense_1_Filter.c ****     /* Apply baseline to every channel in sensor */
 271:Generated_Source\PSoC4/CapSense_1_Filter.c ****     for(freqChannel = CapSense_1_NUM_SCAN_FREQS; freqChannel-- > 0u;)
 272:Generated_Source\PSoC4/CapSense_1_Filter.c ****     {
 273:Generated_Source\PSoC4/CapSense_1_Filter.c ****         #if (CapSense_1_ENABLE == CapSense_1_TST_BSLN_DUPLICATION_EN)
 274:Generated_Source\PSoC4/CapSense_1_Filter.c ****             if (ptrSensor->bslnInv[freqChannel] != ((uint16) ~(ptrSensor->bsln[freqChannel])))
 275:Generated_Source\PSoC4/CapSense_1_Filter.c ****             {
 276:Generated_Source\PSoC4/CapSense_1_Filter.c ****                 result = CapSense_1_PROCESS_BASELINE_FAILED;
 277:Generated_Source\PSoC4/CapSense_1_Filter.c ****             }
 278:Generated_Source\PSoC4/CapSense_1_Filter.c ****             else
 279:Generated_Source\PSoC4/CapSense_1_Filter.c ****             {
 280:Generated_Source\PSoC4/CapSense_1_Filter.c ****         #endif /* (CapSense_1_ENABLE == CapSense_1_TST_BSLN_DUPLICATION_EN) */
 281:Generated_Source\PSoC4/CapSense_1_Filter.c **** 
 282:Generated_Source\PSoC4/CapSense_1_Filter.c ****         /* Calculate signal value and its sign */
 283:Generated_Source\PSoC4/CapSense_1_Filter.c ****         if(ptrSensor->raw[freqChannel] >= ptrSensor->bsln[freqChannel])
 284:Generated_Source\PSoC4/CapSense_1_Filter.c ****         {
 285:Generated_Source\PSoC4/CapSense_1_Filter.c ****             difference = (uint32)ptrSensor->raw[freqChannel] - (uint32)ptrSensor->bsln[freqChannel]
 286:Generated_Source\PSoC4/CapSense_1_Filter.c ****             sign = 1u;
 287:Generated_Source\PSoC4/CapSense_1_Filter.c ****             ptrSensor->negBslnRstCnt[freqChannel] = 0u;
 288:Generated_Source\PSoC4/CapSense_1_Filter.c ****         }
 289:Generated_Source\PSoC4/CapSense_1_Filter.c ****         else
 290:Generated_Source\PSoC4/CapSense_1_Filter.c ****         {
 291:Generated_Source\PSoC4/CapSense_1_Filter.c ****             difference = (uint32)ptrSensor->bsln[freqChannel] - (uint32)ptrSensor->raw[freqChannel]
 292:Generated_Source\PSoC4/CapSense_1_Filter.c ****             sign = 0u;
 293:Generated_Source\PSoC4/CapSense_1_Filter.c ****         }
 294:Generated_Source\PSoC4/CapSense_1_Filter.c **** 
 295:Generated_Source\PSoC4/CapSense_1_Filter.c ****         /* Reset baseline if condition is met */
 296:Generated_Source\PSoC4/CapSense_1_Filter.c ****         if((sign == 0u) && (difference > (uint32) ptrWidgetRam->nNoiseTh))
 297:Generated_Source\PSoC4/CapSense_1_Filter.c ****         {
 298:Generated_Source\PSoC4/CapSense_1_Filter.c ****             if(ptrSensor->negBslnRstCnt[freqChannel] >= ptrWidgetRam->lowBslnRst)
 299:Generated_Source\PSoC4/CapSense_1_Filter.c ****             {
 300:Generated_Source\PSoC4/CapSense_1_Filter.c ****                 CapSense_1_FtInitializeBaselineChannel(ptrSensor, wdType, freqChannel);
 301:Generated_Source\PSoC4/CapSense_1_Filter.c ****             }
 302:Generated_Source\PSoC4/CapSense_1_Filter.c ****             else
 303:Generated_Source\PSoC4/CapSense_1_Filter.c ****             {
 304:Generated_Source\PSoC4/CapSense_1_Filter.c ****                 ptrSensor->negBslnRstCnt[freqChannel]++;
 305:Generated_Source\PSoC4/CapSense_1_Filter.c ****             }
 306:Generated_Source\PSoC4/CapSense_1_Filter.c ****         }
 307:Generated_Source\PSoC4/CapSense_1_Filter.c ****         else
 308:Generated_Source\PSoC4/CapSense_1_Filter.c ****         {
 309:Generated_Source\PSoC4/CapSense_1_Filter.c ****             #if (!CapSense_1_SENSOR_AUTO_RESET_EN)
 310:Generated_Source\PSoC4/CapSense_1_Filter.c ****                 /* Update baseline only if signal is in range between noiseThreshold and negativeno
 311:Generated_Source\PSoC4/CapSense_1_Filter.c ****                 if ((difference <= (uint32)ptrWidgetRam->noiseTh) ||
 312:Generated_Source\PSoC4/CapSense_1_Filter.c ****                     ((difference < (uint32) ptrWidgetRam->nNoiseTh) && (sign == 0u)))
 313:Generated_Source\PSoC4/CapSense_1_Filter.c ****                 {
 314:Generated_Source\PSoC4/CapSense_1_Filter.c ****             #endif /* (CapSense_1_CSD_AUTO_RESET == CapSense_1_CSD_AUTO_RESET_DISABLE) */
 315:Generated_Source\PSoC4/CapSense_1_Filter.c **** 
ARM GAS  C:\Users\Mayur\AppData\Local\Temp\ccxZLytu.s 			page 7


 316:Generated_Source\PSoC4/CapSense_1_Filter.c ****             #if (CapSense_1_BASELINE_TYPE == CapSense_1_IIR_BASELINE)
 317:Generated_Source\PSoC4/CapSense_1_Filter.c ****                 /* Calculate baseline value */
 318:Generated_Source\PSoC4/CapSense_1_Filter.c ****                 if ((CapSense_1_WD_TYPE_ENUM)wdType != CapSense_1_WD_PROXIMITY_E)
 319:Generated_Source\PSoC4/CapSense_1_Filter.c ****                 {
 320:Generated_Source\PSoC4/CapSense_1_Filter.c ****                     #if (CapSense_1_REGULAR_SENSOR_EN)
 321:Generated_Source\PSoC4/CapSense_1_Filter.c ****                         #if (CapSense_1_REGULAR_IIR_BL_TYPE == CapSense_1_IIR_FILTER_PERFORMANCE)
 322:Generated_Source\PSoC4/CapSense_1_Filter.c ****                             history = (uint32) ptrSensor->bsln[freqChannel] << 8u;
 323:Generated_Source\PSoC4/CapSense_1_Filter.c ****                             history |= ptrSensor->bslnExt[freqChannel];
 324:Generated_Source\PSoC4/CapSense_1_Filter.c ****                         #else
 325:Generated_Source\PSoC4/CapSense_1_Filter.c ****                             history = ptrSensor->bsln[freqChannel];
 326:Generated_Source\PSoC4/CapSense_1_Filter.c ****                         #endif /* (CapSense_1_REGULAR_IIR_BL_TYPE == CapSense_1_IIR_FILTER_PERFORMA
 327:Generated_Source\PSoC4/CapSense_1_Filter.c **** 
 328:Generated_Source\PSoC4/CapSense_1_Filter.c ****                         #if (CapSense_1_ENABLE == CapSense_1_WD_BSLN_COEFF_EN)
 329:Generated_Source\PSoC4/CapSense_1_Filter.c ****                             baselineCoeff = ptrWidgetRam->bslnCoeff;
 330:Generated_Source\PSoC4/CapSense_1_Filter.c ****                         #else /* (CapSense_1_ENABLE == CapSense_1_WD_BSLN_COEFF_EN) */
 331:Generated_Source\PSoC4/CapSense_1_Filter.c ****                             baselineCoeff = CapSense_1_REGULAR_IIR_BL_N;
 332:Generated_Source\PSoC4/CapSense_1_Filter.c ****                         #endif /* (CapSense_1_ENABLE == CapSense_1_WD_BSLN_COEFF_EN) */
 333:Generated_Source\PSoC4/CapSense_1_Filter.c **** 
 334:Generated_Source\PSoC4/CapSense_1_Filter.c ****                         history =  CapSense_1_FtIIR1stOrder(
 335:Generated_Source\PSoC4/CapSense_1_Filter.c ****                                         (uint32)ptrSensor->raw[freqChannel],
 336:Generated_Source\PSoC4/CapSense_1_Filter.c ****                                         history, baselineCoeff,
 337:Generated_Source\PSoC4/CapSense_1_Filter.c ****                                         CapSense_1_REGULAR_IIR_BL_SHIFT);
 338:Generated_Source\PSoC4/CapSense_1_Filter.c **** 
 339:Generated_Source\PSoC4/CapSense_1_Filter.c ****                         #if (CapSense_1_REGULAR_IIR_BL_TYPE == CapSense_1_IIR_FILTER_PERFORMANCE)
 340:Generated_Source\PSoC4/CapSense_1_Filter.c ****                             ptrSensor->bsln[freqChannel] = LO16(history >> 8u);
 341:Generated_Source\PSoC4/CapSense_1_Filter.c ****                             ptrSensor->bslnExt[freqChannel] = LO8(history);
 342:Generated_Source\PSoC4/CapSense_1_Filter.c ****                         #else
 343:Generated_Source\PSoC4/CapSense_1_Filter.c ****                             ptrSensor->bsln[freqChannel] = LO16(history);
 344:Generated_Source\PSoC4/CapSense_1_Filter.c ****                         #endif /* (CapSense_1_REGULAR_IIR_BL_TYPE == CapSense_1_IIR_FILTER_PERFORMA
 345:Generated_Source\PSoC4/CapSense_1_Filter.c ****                     #endif /* (CapSense_1_REGULAR_SENSOR_EN) */
 346:Generated_Source\PSoC4/CapSense_1_Filter.c ****                 }
 347:Generated_Source\PSoC4/CapSense_1_Filter.c ****                 else
 348:Generated_Source\PSoC4/CapSense_1_Filter.c ****                 {
 349:Generated_Source\PSoC4/CapSense_1_Filter.c ****                     #if (CapSense_1_PROXIMITY_SENSOR_EN)
 350:Generated_Source\PSoC4/CapSense_1_Filter.c ****                         #if (CapSense_1_PROX_IIR_BL_TYPE == CapSense_1_IIR_FILTER_PERFORMANCE)
 351:Generated_Source\PSoC4/CapSense_1_Filter.c ****                             history = (uint32) ptrSensor->bsln[freqChannel] << 8u;
 352:Generated_Source\PSoC4/CapSense_1_Filter.c ****                             history |= ptrSensor->bslnExt[freqChannel];
 353:Generated_Source\PSoC4/CapSense_1_Filter.c ****                         #else
 354:Generated_Source\PSoC4/CapSense_1_Filter.c ****                             history = (uint32) ptrSensor->bsln[freqChannel];
 355:Generated_Source\PSoC4/CapSense_1_Filter.c ****                         #endif /* (CapSense_1_PROX_IIR_BL_TYPE == CapSense_1_IIR_FILTER_PERFORMANCE
 356:Generated_Source\PSoC4/CapSense_1_Filter.c **** 
 357:Generated_Source\PSoC4/CapSense_1_Filter.c ****                         #if (CapSense_1_ENABLE == CapSense_1_WD_BSLN_COEFF_EN)
 358:Generated_Source\PSoC4/CapSense_1_Filter.c ****                             baselineCoeff = ptrWidgetRam->bslnCoeff;
 359:Generated_Source\PSoC4/CapSense_1_Filter.c ****                         #else /* (CapSense_1_ENABLE == CapSense_1_WD_BSLN_COEFF_EN) */
 360:Generated_Source\PSoC4/CapSense_1_Filter.c ****                             baselineCoeff = CapSense_1_PROX_IIR_BL_N;
 361:Generated_Source\PSoC4/CapSense_1_Filter.c ****                         #endif /* (CapSense_1_ENABLE == CapSense_1_WD_BSLN_COEFF_EN) */
 362:Generated_Source\PSoC4/CapSense_1_Filter.c **** 
 363:Generated_Source\PSoC4/CapSense_1_Filter.c ****                         history = CapSense_1_FtIIR1stOrder(
 364:Generated_Source\PSoC4/CapSense_1_Filter.c ****                                         (uint32)ptrSensor->raw[freqChannel],
 365:Generated_Source\PSoC4/CapSense_1_Filter.c ****                                         history, baselineCoeff,
 366:Generated_Source\PSoC4/CapSense_1_Filter.c ****                                         CapSense_1_PROX_IIR_BL_SHIFT);
 367:Generated_Source\PSoC4/CapSense_1_Filter.c **** 
 368:Generated_Source\PSoC4/CapSense_1_Filter.c ****                         #if (CapSense_1_PROX_IIR_BL_TYPE == CapSense_1_IIR_FILTER_PERFORMANCE)
 369:Generated_Source\PSoC4/CapSense_1_Filter.c ****                             ptrSensor->bsln[freqChannel] = LO16(history >> 8u);
 370:Generated_Source\PSoC4/CapSense_1_Filter.c ****                             ptrSensor->bslnExt[freqChannel] = LO8(history);
 371:Generated_Source\PSoC4/CapSense_1_Filter.c ****                         #else
 372:Generated_Source\PSoC4/CapSense_1_Filter.c ****                             ptrSensor->bsln[freqChannel] = LO16(history);
ARM GAS  C:\Users\Mayur\AppData\Local\Temp\ccxZLytu.s 			page 8


 373:Generated_Source\PSoC4/CapSense_1_Filter.c ****                         #endif /* (CapSense_1_PROX_IIR_BL_TYPE == CapSense_1_IIR_FILTER_PERFORMANCE
 374:Generated_Source\PSoC4/CapSense_1_Filter.c ****                     #endif /* (CapSense_1_PROX_SENSOR_EN) */
 375:Generated_Source\PSoC4/CapSense_1_Filter.c ****                 }
 376:Generated_Source\PSoC4/CapSense_1_Filter.c ****             #else /* (CapSense_1_CSD_BASELINE_TYPE == CapSense_1_IIR_BASELINE) */
 377:Generated_Source\PSoC4/CapSense_1_Filter.c **** 
 378:Generated_Source\PSoC4/CapSense_1_Filter.c ****                 /******************************************************************
 379:Generated_Source\PSoC4/CapSense_1_Filter.c ****                 * This is the place where the bucket algorithm should be implemented.
 380:Generated_Source\PSoC4/CapSense_1_Filter.c ****                 * The bucket method will be implemented in future Component version.
 381:Generated_Source\PSoC4/CapSense_1_Filter.c ****                 *******************************************************************/
 382:Generated_Source\PSoC4/CapSense_1_Filter.c **** 
 383:Generated_Source\PSoC4/CapSense_1_Filter.c ****             #endif /* (CapSense_1_CSD_BASELINE_TYPE == CapSense_1_IIR_BASELINE) */
 384:Generated_Source\PSoC4/CapSense_1_Filter.c **** 
 385:Generated_Source\PSoC4/CapSense_1_Filter.c ****             #if (!CapSense_1_SENSOR_AUTO_RESET_EN)
 386:Generated_Source\PSoC4/CapSense_1_Filter.c ****                 }
 387:Generated_Source\PSoC4/CapSense_1_Filter.c ****             #endif /* (!CapSense_1_SENSOR_AUTO_RESET_EN) */
 388:Generated_Source\PSoC4/CapSense_1_Filter.c ****         }
 389:Generated_Source\PSoC4/CapSense_1_Filter.c **** 
 390:Generated_Source\PSoC4/CapSense_1_Filter.c ****         #if (CapSense_1_ENABLE == CapSense_1_TST_BSLN_DUPLICATION_EN)
 391:Generated_Source\PSoC4/CapSense_1_Filter.c ****             /* Update baseline inversion of every channel in sensor */
 392:Generated_Source\PSoC4/CapSense_1_Filter.c ****             ptrSensor->bslnInv[freqChannel] = ~(ptrSensor->bsln[freqChannel]);
 393:Generated_Source\PSoC4/CapSense_1_Filter.c ****             }
 394:Generated_Source\PSoC4/CapSense_1_Filter.c ****         #endif /* (CapSense_1_ENABLE == CapSense_1_TST_BSLN_DUPLICATION_EN) */
 395:Generated_Source\PSoC4/CapSense_1_Filter.c **** 
 396:Generated_Source\PSoC4/CapSense_1_Filter.c ****     }
 397:Generated_Source\PSoC4/CapSense_1_Filter.c ****     return result;
 398:Generated_Source\PSoC4/CapSense_1_Filter.c **** }
 399:Generated_Source\PSoC4/CapSense_1_Filter.c **** 
 400:Generated_Source\PSoC4/CapSense_1_Filter.c **** 
 401:Generated_Source\PSoC4/CapSense_1_Filter.c **** /*******************************************************************************
 402:Generated_Source\PSoC4/CapSense_1_Filter.c **** * Function Name: CapSense_1_InitializeAllBaselines
 403:Generated_Source\PSoC4/CapSense_1_Filter.c **** ****************************************************************************//**
 404:Generated_Source\PSoC4/CapSense_1_Filter.c **** *
 405:Generated_Source\PSoC4/CapSense_1_Filter.c **** * \brief
 406:Generated_Source\PSoC4/CapSense_1_Filter.c **** *  Initializes (or re-initializes) the baselines of all the sensors of all the widgets.
 407:Generated_Source\PSoC4/CapSense_1_Filter.c **** *
 408:Generated_Source\PSoC4/CapSense_1_Filter.c **** * \details
 409:Generated_Source\PSoC4/CapSense_1_Filter.c **** *  Initializes the baseline for all the sensors of all the widgets. Also, this function
 410:Generated_Source\PSoC4/CapSense_1_Filter.c **** *  can be used to re-initialize baselines. CapSense_1_Start() calls this
 411:Generated_Source\PSoC4/CapSense_1_Filter.c **** *  API as part of CapSense_1 operation initialization.
 412:Generated_Source\PSoC4/CapSense_1_Filter.c **** *
 413:Generated_Source\PSoC4/CapSense_1_Filter.c **** *  If any raw count filter is enabled, make sure the raw count filter history is
 414:Generated_Source\PSoC4/CapSense_1_Filter.c **** *  initialized as well using one of these functions:
 415:Generated_Source\PSoC4/CapSense_1_Filter.c **** *  - CapSense_1_InitializeAllFilters().
 416:Generated_Source\PSoC4/CapSense_1_Filter.c **** *  - CapSense_1_InitializeWidgetFilter().
 417:Generated_Source\PSoC4/CapSense_1_Filter.c **** *
 418:Generated_Source\PSoC4/CapSense_1_Filter.c **** *******************************************************************************/
 419:Generated_Source\PSoC4/CapSense_1_Filter.c **** void CapSense_1_InitializeAllBaselines(void)
 420:Generated_Source\PSoC4/CapSense_1_Filter.c **** {
 421:Generated_Source\PSoC4/CapSense_1_Filter.c ****     uint32 widgetId;
 422:Generated_Source\PSoC4/CapSense_1_Filter.c **** 
 423:Generated_Source\PSoC4/CapSense_1_Filter.c ****     for(widgetId = CapSense_1_TOTAL_WIDGETS; widgetId-- > 0u;)
 424:Generated_Source\PSoC4/CapSense_1_Filter.c ****     {
 425:Generated_Source\PSoC4/CapSense_1_Filter.c ****         CapSense_1_InitializeWidgetBaseline(widgetId);
 426:Generated_Source\PSoC4/CapSense_1_Filter.c ****     }
 427:Generated_Source\PSoC4/CapSense_1_Filter.c **** }
 428:Generated_Source\PSoC4/CapSense_1_Filter.c **** 
 429:Generated_Source\PSoC4/CapSense_1_Filter.c **** 
ARM GAS  C:\Users\Mayur\AppData\Local\Temp\ccxZLytu.s 			page 9


 430:Generated_Source\PSoC4/CapSense_1_Filter.c **** /*******************************************************************************
 431:Generated_Source\PSoC4/CapSense_1_Filter.c **** * Function Name: CapSense_1_InitializeWidgetBaseline
 432:Generated_Source\PSoC4/CapSense_1_Filter.c **** ****************************************************************************//**
 433:Generated_Source\PSoC4/CapSense_1_Filter.c **** *
 434:Generated_Source\PSoC4/CapSense_1_Filter.c **** * \brief
 435:Generated_Source\PSoC4/CapSense_1_Filter.c **** *  Initializes (or re-initializes) the baselines of all the sensors in a widget
 436:Generated_Source\PSoC4/CapSense_1_Filter.c **** *  specified by the input parameter.
 437:Generated_Source\PSoC4/CapSense_1_Filter.c **** *
 438:Generated_Source\PSoC4/CapSense_1_Filter.c **** * \details
 439:Generated_Source\PSoC4/CapSense_1_Filter.c **** *  Initializes (or re-initializes) the baseline for all the sensors of the
 440:Generated_Source\PSoC4/CapSense_1_Filter.c **** *  specified widget.
 441:Generated_Source\PSoC4/CapSense_1_Filter.c **** *
 442:Generated_Source\PSoC4/CapSense_1_Filter.c **** *  If any raw count filter is enabled, make sure the raw count filter history is
 443:Generated_Source\PSoC4/CapSense_1_Filter.c **** *  initialized as well using one of these functions:
 444:Generated_Source\PSoC4/CapSense_1_Filter.c **** *  - CapSense_1_InitializeAllFilters().
 445:Generated_Source\PSoC4/CapSense_1_Filter.c **** *  - CapSense_1_InitializeWidgetFilter().
 446:Generated_Source\PSoC4/CapSense_1_Filter.c **** *
 447:Generated_Source\PSoC4/CapSense_1_Filter.c **** * \param widgetId
 448:Generated_Source\PSoC4/CapSense_1_Filter.c **** *  Specifies the ID number of a widget to initialize the baseline of all the sensors
 449:Generated_Source\PSoC4/CapSense_1_Filter.c **** *  in the widget.
 450:Generated_Source\PSoC4/CapSense_1_Filter.c **** *  A macro for the widget ID can be found in the
 451:Generated_Source\PSoC4/CapSense_1_Filter.c **** *  CapSense_1 Configuration header file defined as
 452:Generated_Source\PSoC4/CapSense_1_Filter.c **** *  CapSense_1_<WidgetName>_WDGT_ID.
 453:Generated_Source\PSoC4/CapSense_1_Filter.c **** *
 454:Generated_Source\PSoC4/CapSense_1_Filter.c **** *******************************************************************************/
 455:Generated_Source\PSoC4/CapSense_1_Filter.c **** void CapSense_1_InitializeWidgetBaseline(uint32 widgetId)
 456:Generated_Source\PSoC4/CapSense_1_Filter.c **** {
 457:Generated_Source\PSoC4/CapSense_1_Filter.c ****     uint32 sensorId;
 458:Generated_Source\PSoC4/CapSense_1_Filter.c ****     uint32 sensorsNumber;
 459:Generated_Source\PSoC4/CapSense_1_Filter.c **** 
 460:Generated_Source\PSoC4/CapSense_1_Filter.c ****     CapSense_1_FLASH_WD_STRUCT const *ptrWidget = &CapSense_1_dsFlash.wdgtArray[widgetId];
 461:Generated_Source\PSoC4/CapSense_1_Filter.c **** 
 462:Generated_Source\PSoC4/CapSense_1_Filter.c ****     /* Find total amount of sensors in specified widget */
 463:Generated_Source\PSoC4/CapSense_1_Filter.c ****     sensorsNumber = CapSense_1_GET_SNS_CNT_BY_PTR(ptrWidget);
 464:Generated_Source\PSoC4/CapSense_1_Filter.c **** 
 465:Generated_Source\PSoC4/CapSense_1_Filter.c ****     for(sensorId = sensorsNumber; sensorId-- > 0u;)
 466:Generated_Source\PSoC4/CapSense_1_Filter.c ****     {
 467:Generated_Source\PSoC4/CapSense_1_Filter.c ****         CapSense_1_InitializeSensorBaseline(widgetId, sensorId);
 468:Generated_Source\PSoC4/CapSense_1_Filter.c ****     }
 469:Generated_Source\PSoC4/CapSense_1_Filter.c **** }
 470:Generated_Source\PSoC4/CapSense_1_Filter.c **** 
 471:Generated_Source\PSoC4/CapSense_1_Filter.c **** 
 472:Generated_Source\PSoC4/CapSense_1_Filter.c **** /*******************************************************************************
 473:Generated_Source\PSoC4/CapSense_1_Filter.c **** * Function Name: CapSense_1_InitializeSensorBaseline
 474:Generated_Source\PSoC4/CapSense_1_Filter.c **** ****************************************************************************//**
 475:Generated_Source\PSoC4/CapSense_1_Filter.c **** *
 476:Generated_Source\PSoC4/CapSense_1_Filter.c **** * \brief
 477:Generated_Source\PSoC4/CapSense_1_Filter.c **** *  Initializes (or re-initializes) the baseline of a sensor in a widget specified
 478:Generated_Source\PSoC4/CapSense_1_Filter.c **** *  by the input parameters.
 479:Generated_Source\PSoC4/CapSense_1_Filter.c **** *
 480:Generated_Source\PSoC4/CapSense_1_Filter.c **** * \details
 481:Generated_Source\PSoC4/CapSense_1_Filter.c **** *  Initializes (or re-initializes) the baseline for a specified sensor within
 482:Generated_Source\PSoC4/CapSense_1_Filter.c **** *  a specified widget.
 483:Generated_Source\PSoC4/CapSense_1_Filter.c **** *
 484:Generated_Source\PSoC4/CapSense_1_Filter.c **** * \param widgetId
 485:Generated_Source\PSoC4/CapSense_1_Filter.c **** *  Specifies the ID number of a widget to initialize the baseline of the sensor
 486:Generated_Source\PSoC4/CapSense_1_Filter.c **** *  in the widget.
ARM GAS  C:\Users\Mayur\AppData\Local\Temp\ccxZLytu.s 			page 10


 487:Generated_Source\PSoC4/CapSense_1_Filter.c **** *  A macro for the widget ID can be found in the
 488:Generated_Source\PSoC4/CapSense_1_Filter.c **** *  CapSense_1 Configuration header file defined as
 489:Generated_Source\PSoC4/CapSense_1_Filter.c **** *  CapSense_1_<WidgetName>_WDGT_ID.
 490:Generated_Source\PSoC4/CapSense_1_Filter.c **** *
 491:Generated_Source\PSoC4/CapSense_1_Filter.c **** * \param sensorId
 492:Generated_Source\PSoC4/CapSense_1_Filter.c **** *  Specifies the ID number of the sensor within the widget to initialize its
 493:Generated_Source\PSoC4/CapSense_1_Filter.c **** *  baseline.
 494:Generated_Source\PSoC4/CapSense_1_Filter.c **** *  A macro for the sensor ID within a specified widget can be found in the
 495:Generated_Source\PSoC4/CapSense_1_Filter.c **** *  CapSense_1 Configuration header file defined as
 496:Generated_Source\PSoC4/CapSense_1_Filter.c **** *  CapSense_1_<WidgetName>_SNS<SensorNumber>_ID.
 497:Generated_Source\PSoC4/CapSense_1_Filter.c **** *
 498:Generated_Source\PSoC4/CapSense_1_Filter.c **** *******************************************************************************/
 499:Generated_Source\PSoC4/CapSense_1_Filter.c **** void CapSense_1_InitializeSensorBaseline(uint32 widgetId, uint32 sensorId)
 500:Generated_Source\PSoC4/CapSense_1_Filter.c **** {
 501:Generated_Source\PSoC4/CapSense_1_Filter.c ****     CapSense_1_RAM_SNS_STRUCT *ptrSensor = NULL;
 502:Generated_Source\PSoC4/CapSense_1_Filter.c ****     CapSense_1_FLASH_WD_STRUCT const *ptrWidget = NULL;
 503:Generated_Source\PSoC4/CapSense_1_Filter.c ****     ptrWidget = &CapSense_1_dsFlash.wdgtArray[widgetId];
 504:Generated_Source\PSoC4/CapSense_1_Filter.c **** 
 505:Generated_Source\PSoC4/CapSense_1_Filter.c ****     /* Find pointer to specified sensor object */
 506:Generated_Source\PSoC4/CapSense_1_Filter.c ****     ptrSensor = ptrWidget->ptr2SnsRam;
 507:Generated_Source\PSoC4/CapSense_1_Filter.c ****     ptrSensor = &ptrSensor[sensorId];
 508:Generated_Source\PSoC4/CapSense_1_Filter.c **** 
 509:Generated_Source\PSoC4/CapSense_1_Filter.c ****     CapSense_1_FtInitializeBaseline(ptrSensor, (uint32)ptrWidget->wdgtType);
 510:Generated_Source\PSoC4/CapSense_1_Filter.c **** }
 511:Generated_Source\PSoC4/CapSense_1_Filter.c **** 
 512:Generated_Source\PSoC4/CapSense_1_Filter.c **** 
 513:Generated_Source\PSoC4/CapSense_1_Filter.c **** /*******************************************************************************
 514:Generated_Source\PSoC4/CapSense_1_Filter.c **** * Function Name: CapSense_1_FtInitializeBaseline
 515:Generated_Source\PSoC4/CapSense_1_Filter.c **** ****************************************************************************//**
 516:Generated_Source\PSoC4/CapSense_1_Filter.c **** *
 517:Generated_Source\PSoC4/CapSense_1_Filter.c **** * \brief
 518:Generated_Source\PSoC4/CapSense_1_Filter.c **** *  Initializes the baseline history for a sensor indicated by an input
 519:Generated_Source\PSoC4/CapSense_1_Filter.c **** *  parameter.
 520:Generated_Source\PSoC4/CapSense_1_Filter.c **** *
 521:Generated_Source\PSoC4/CapSense_1_Filter.c **** * \details
 522:Generated_Source\PSoC4/CapSense_1_Filter.c **** *  Initializes the baseline history for a sensor indicated by an input
 523:Generated_Source\PSoC4/CapSense_1_Filter.c **** *  parameter.
 524:Generated_Source\PSoC4/CapSense_1_Filter.c **** *
 525:Generated_Source\PSoC4/CapSense_1_Filter.c **** * \param *ptrSensor
 526:Generated_Source\PSoC4/CapSense_1_Filter.c **** *  The pointer to the sensor RAM object.
 527:Generated_Source\PSoC4/CapSense_1_Filter.c **** *
 528:Generated_Source\PSoC4/CapSense_1_Filter.c **** * \param wdType
 529:Generated_Source\PSoC4/CapSense_1_Filter.c **** *  Specifies the type of a widget.
 530:Generated_Source\PSoC4/CapSense_1_Filter.c **** *
 531:Generated_Source\PSoC4/CapSense_1_Filter.c **** *******************************************************************************/
 532:Generated_Source\PSoC4/CapSense_1_Filter.c **** void CapSense_1_FtInitializeBaseline(CapSense_1_RAM_SNS_STRUCT *ptrSensor, uint32 wdType)
 533:Generated_Source\PSoC4/CapSense_1_Filter.c **** {
 534:Generated_Source\PSoC4/CapSense_1_Filter.c ****     uint32 freqChannel;
 535:Generated_Source\PSoC4/CapSense_1_Filter.c **** 
 536:Generated_Source\PSoC4/CapSense_1_Filter.c ****     /* Apply baseline initialization to every channel in sensor */
 537:Generated_Source\PSoC4/CapSense_1_Filter.c ****     for(freqChannel = CapSense_1_NUM_SCAN_FREQS; freqChannel-- > 0u;)
 538:Generated_Source\PSoC4/CapSense_1_Filter.c ****     {
 539:Generated_Source\PSoC4/CapSense_1_Filter.c ****         CapSense_1_FtInitializeBaselineChannel(ptrSensor, wdType, freqChannel);
 540:Generated_Source\PSoC4/CapSense_1_Filter.c ****     }
 541:Generated_Source\PSoC4/CapSense_1_Filter.c **** }
 542:Generated_Source\PSoC4/CapSense_1_Filter.c **** 
 543:Generated_Source\PSoC4/CapSense_1_Filter.c **** 
ARM GAS  C:\Users\Mayur\AppData\Local\Temp\ccxZLytu.s 			page 11


 544:Generated_Source\PSoC4/CapSense_1_Filter.c **** /*******************************************************************************
 545:Generated_Source\PSoC4/CapSense_1_Filter.c **** * Function Name: CapSense_1_FtInitializeBaselineChannel
 546:Generated_Source\PSoC4/CapSense_1_Filter.c **** ****************************************************************************//**
 547:Generated_Source\PSoC4/CapSense_1_Filter.c **** *
 548:Generated_Source\PSoC4/CapSense_1_Filter.c **** * \brief
 549:Generated_Source\PSoC4/CapSense_1_Filter.c **** *  Initializes the baseline history for a sensor indicated by an input
 550:Generated_Source\PSoC4/CapSense_1_Filter.c **** *  parameter.
 551:Generated_Source\PSoC4/CapSense_1_Filter.c **** *
 552:Generated_Source\PSoC4/CapSense_1_Filter.c **** * \details
 553:Generated_Source\PSoC4/CapSense_1_Filter.c **** *  Initializes the baseline history for a sensor indicated by an input
 554:Generated_Source\PSoC4/CapSense_1_Filter.c **** *  parameter.
 555:Generated_Source\PSoC4/CapSense_1_Filter.c **** *
 556:Generated_Source\PSoC4/CapSense_1_Filter.c **** * \param *ptrSensor
 557:Generated_Source\PSoC4/CapSense_1_Filter.c **** *  The pointer to the sensor RAM object.
 558:Generated_Source\PSoC4/CapSense_1_Filter.c **** *
 559:Generated_Source\PSoC4/CapSense_1_Filter.c **** * \param wdType
 560:Generated_Source\PSoC4/CapSense_1_Filter.c **** *  Specifies the type of a widget.
 561:Generated_Source\PSoC4/CapSense_1_Filter.c **** *
 562:Generated_Source\PSoC4/CapSense_1_Filter.c **** * \param channel
 563:Generated_Source\PSoC4/CapSense_1_Filter.c **** *  Specifies the number of the channel to be initialized.
 564:Generated_Source\PSoC4/CapSense_1_Filter.c **** *
 565:Generated_Source\PSoC4/CapSense_1_Filter.c **** *******************************************************************************/
 566:Generated_Source\PSoC4/CapSense_1_Filter.c **** void CapSense_1_FtInitializeBaselineChannel(CapSense_1_RAM_SNS_STRUCT *ptrSensor, uint32 wdType, ui
 567:Generated_Source\PSoC4/CapSense_1_Filter.c **** {
  28              		.loc 1 567 0
  29              		.cfi_startproc
  30              		@ args = 0, pretend = 0, frame = 0
  31              		@ frame_needed = 0, uses_anonymous_args = 0
  32              		@ link register save eliminated.
  33              	.LVL0:
 568:Generated_Source\PSoC4/CapSense_1_Filter.c ****     #if (CapSense_1_BASELINE_TYPE == CapSense_1_IIR_BASELINE)
 569:Generated_Source\PSoC4/CapSense_1_Filter.c ****         if ((CapSense_1_WD_TYPE_ENUM)wdType != CapSense_1_WD_PROXIMITY_E)
  34              		.loc 1 569 0
  35 0000 FF23     		movs	r3, #255
  36 0002 1940     		ands	r1, r3
  37              	.LVL1:
  38 0004 0629     		cmp	r1, #6
  39 0006 02D0     		beq	.L2
 570:Generated_Source\PSoC4/CapSense_1_Filter.c ****         {
 571:Generated_Source\PSoC4/CapSense_1_Filter.c ****             #if (CapSense_1_REGULAR_SENSOR_EN)
 572:Generated_Source\PSoC4/CapSense_1_Filter.c ****                 #if (CapSense_1_REGULAR_IIR_BL_TYPE == CapSense_1_IIR_FILTER_PERFORMANCE)
 573:Generated_Source\PSoC4/CapSense_1_Filter.c ****                     ptrSensor->bslnExt[channel] = 0u;
  40              		.loc 1 573 0
  41 0008 8318     		adds	r3, r0, r2
  42 000a 0021     		movs	r1, #0
  43 000c 1971     		strb	r1, [r3, #4]
  44              	.L2:
 574:Generated_Source\PSoC4/CapSense_1_Filter.c ****                 #endif /* (CapSense_1_REGULAR_IIR_BL_TYPE == CapSense_1_IIR_FILTER_PERFORMANCE) */
 575:Generated_Source\PSoC4/CapSense_1_Filter.c ****             #endif /* (CapSense_1_REGULAR_SENSOR_EN) */
 576:Generated_Source\PSoC4/CapSense_1_Filter.c ****         }
 577:Generated_Source\PSoC4/CapSense_1_Filter.c ****         else
 578:Generated_Source\PSoC4/CapSense_1_Filter.c ****         {
 579:Generated_Source\PSoC4/CapSense_1_Filter.c ****             #if (CapSense_1_PROXIMITY_SENSOR_EN)
 580:Generated_Source\PSoC4/CapSense_1_Filter.c ****                 #if (CapSense_1_PROX_IIR_BL_TYPE == CapSense_1_IIR_FILTER_PERFORMANCE)
 581:Generated_Source\PSoC4/CapSense_1_Filter.c ****                     ptrSensor->bslnExt[channel] = 0u;
 582:Generated_Source\PSoC4/CapSense_1_Filter.c ****                 #endif /* (CapSense_1_PROX_IIR_BL_TYPE == CapSense_1_IIR_FILTER_PERFORMANCE) */
 583:Generated_Source\PSoC4/CapSense_1_Filter.c ****             #endif /* (CapSense_1_PROX_SENSOR_EN) */
ARM GAS  C:\Users\Mayur\AppData\Local\Temp\ccxZLytu.s 			page 12


 584:Generated_Source\PSoC4/CapSense_1_Filter.c ****         }
 585:Generated_Source\PSoC4/CapSense_1_Filter.c ****     #else
 586:Generated_Source\PSoC4/CapSense_1_Filter.c ****         /* CapSense_1_BASELINE_TYPE == CapSense_1_BUCKET_BASELINE */
 587:Generated_Source\PSoC4/CapSense_1_Filter.c ****         ptrSensor->bslnExt[channel] = 0u;
 588:Generated_Source\PSoC4/CapSense_1_Filter.c ****     #endif /* (CapSense_1_BASELINE_TYPE == CapSense_1_IIR_BASELINE) */
 589:Generated_Source\PSoC4/CapSense_1_Filter.c **** 
 590:Generated_Source\PSoC4/CapSense_1_Filter.c ****     ptrSensor->bsln[channel] = ptrSensor->raw[channel];
  45              		.loc 1 590 0
  46 000e 5300     		lsls	r3, r2, #1
  47 0010 195A     		ldrh	r1, [r3, r0]
  48 0012 C318     		adds	r3, r0, r3
  49 0014 5980     		strh	r1, [r3, #2]
 591:Generated_Source\PSoC4/CapSense_1_Filter.c **** 
 592:Generated_Source\PSoC4/CapSense_1_Filter.c ****     #if (CapSense_1_ENABLE == CapSense_1_TST_BSLN_DUPLICATION_EN)
 593:Generated_Source\PSoC4/CapSense_1_Filter.c ****     /* Update baseline inversion of the channel in sensor */
 594:Generated_Source\PSoC4/CapSense_1_Filter.c ****         ptrSensor->bslnInv[channel] = ~(ptrSensor->bsln[channel]);
 595:Generated_Source\PSoC4/CapSense_1_Filter.c ****     #endif /* (CapSense_1_ENABLE == CapSense_1_TST_BSLN_DUPLICATION_EN) */
 596:Generated_Source\PSoC4/CapSense_1_Filter.c **** 
 597:Generated_Source\PSoC4/CapSense_1_Filter.c ****     ptrSensor->negBslnRstCnt[channel] = 0u;
  50              		.loc 1 597 0
  51 0016 8218     		adds	r2, r0, r2
  52              	.LVL2:
  53 0018 0023     		movs	r3, #0
  54 001a 1372     		strb	r3, [r2, #8]
 598:Generated_Source\PSoC4/CapSense_1_Filter.c **** }
  55              		.loc 1 598 0
  56              		@ sp needed
  57 001c 7047     		bx	lr
  58              		.cfi_endproc
  59              	.LFE9:
  60              		.size	CapSense_1_FtInitializeBaselineChannel, .-CapSense_1_FtInitializeBaselineChannel
  61 001e C046     		.section	.text.CapSense_1_FtInitializeBaseline,"ax",%progbits
  62              		.align	2
  63              		.global	CapSense_1_FtInitializeBaseline
  64              		.code	16
  65              		.thumb_func
  66              		.type	CapSense_1_FtInitializeBaseline, %function
  67              	CapSense_1_FtInitializeBaseline:
  68              	.LFB8:
 533:Generated_Source\PSoC4/CapSense_1_Filter.c ****     uint32 freqChannel;
  69              		.loc 1 533 0
  70              		.cfi_startproc
  71              		@ args = 0, pretend = 0, frame = 0
  72              		@ frame_needed = 0, uses_anonymous_args = 0
  73              	.LVL3:
  74 0000 70B5     		push	{r4, r5, r6, lr}
  75              		.cfi_def_cfa_offset 16
  76              		.cfi_offset 4, -16
  77              		.cfi_offset 5, -12
  78              		.cfi_offset 6, -8
  79              		.cfi_offset 14, -4
  80 0002 0600     		movs	r6, r0
  81 0004 0D00     		movs	r5, r1
  82              	.LVL4:
 537:Generated_Source\PSoC4/CapSense_1_Filter.c ****     {
  83              		.loc 1 537 0
  84 0006 0123     		movs	r3, #1
ARM GAS  C:\Users\Mayur\AppData\Local\Temp\ccxZLytu.s 			page 13


  85 0008 05E0     		b	.L4
  86              	.LVL5:
  87              	.L5:
 539:Generated_Source\PSoC4/CapSense_1_Filter.c ****     }
  88              		.loc 1 539 0
  89 000a 2200     		movs	r2, r4
  90 000c 2900     		movs	r1, r5
  91 000e 3000     		movs	r0, r6
  92 0010 FFF7FEFF 		bl	CapSense_1_FtInitializeBaselineChannel
  93              	.LVL6:
 537:Generated_Source\PSoC4/CapSense_1_Filter.c ****     {
  94              		.loc 1 537 0
  95 0014 2300     		movs	r3, r4
  96              	.LVL7:
  97              	.L4:
 537:Generated_Source\PSoC4/CapSense_1_Filter.c ****     {
  98              		.loc 1 537 0 is_stmt 0 discriminator 1
  99 0016 5C1E     		subs	r4, r3, #1
 100              	.LVL8:
 101 0018 002B     		cmp	r3, #0
 102 001a F6D1     		bne	.L5
 541:Generated_Source\PSoC4/CapSense_1_Filter.c **** 
 103              		.loc 1 541 0 is_stmt 1
 104              		@ sp needed
 105              	.LVL9:
 106              	.LVL10:
 107              	.LVL11:
 108 001c 70BD     		pop	{r4, r5, r6, pc}
 109              		.cfi_endproc
 110              	.LFE8:
 111              		.size	CapSense_1_FtInitializeBaseline, .-CapSense_1_FtInitializeBaseline
 112 001e C046     		.section	.text.CapSense_1_InitializeSensorBaseline,"ax",%progbits
 113              		.align	2
 114              		.global	CapSense_1_InitializeSensorBaseline
 115              		.code	16
 116              		.thumb_func
 117              		.type	CapSense_1_InitializeSensorBaseline, %function
 118              	CapSense_1_InitializeSensorBaseline:
 119              	.LFB7:
 500:Generated_Source\PSoC4/CapSense_1_Filter.c ****     CapSense_1_RAM_SNS_STRUCT *ptrSensor = NULL;
 120              		.loc 1 500 0
 121              		.cfi_startproc
 122              		@ args = 0, pretend = 0, frame = 0
 123              		@ frame_needed = 0, uses_anonymous_args = 0
 124              	.LVL12:
 125 0000 10B5     		push	{r4, lr}
 126              		.cfi_def_cfa_offset 8
 127              		.cfi_offset 4, -8
 128              		.cfi_offset 14, -4
 129              	.LVL13:
 506:Generated_Source\PSoC4/CapSense_1_Filter.c ****     ptrSensor = &ptrSensor[sensorId];
 130              		.loc 1 506 0
 131 0002 4001     		lsls	r0, r0, #5
 132              	.LVL14:
 133 0004 054B     		ldr	r3, .L7
 134 0006 1B18     		adds	r3, r3, r0
 135              	.LVL15:
ARM GAS  C:\Users\Mayur\AppData\Local\Temp\ccxZLytu.s 			page 14


 507:Generated_Source\PSoC4/CapSense_1_Filter.c **** 
 136              		.loc 1 507 0
 137 0008 8A00     		lsls	r2, r1, #2
 138 000a 5118     		adds	r1, r2, r1
 139              	.LVL16:
 140 000c 4800     		lsls	r0, r1, #1
 141 000e 9A68     		ldr	r2, [r3, #8]
 142 0010 9446     		mov	ip, r2
 143 0012 6044     		add	r0, r0, ip
 144              	.LVL17:
 509:Generated_Source\PSoC4/CapSense_1_Filter.c **** }
 145              		.loc 1 509 0
 146 0014 997E     		ldrb	r1, [r3, #26]
 147 0016 FFF7FEFF 		bl	CapSense_1_FtInitializeBaseline
 148              	.LVL18:
 510:Generated_Source\PSoC4/CapSense_1_Filter.c **** 
 149              		.loc 1 510 0
 150              		@ sp needed
 151 001a 10BD     		pop	{r4, pc}
 152              	.L8:
 153              		.align	2
 154              	.L7:
 155 001c 00000000 		.word	CapSense_1_dsFlash
 156              		.cfi_endproc
 157              	.LFE7:
 158              		.size	CapSense_1_InitializeSensorBaseline, .-CapSense_1_InitializeSensorBaseline
 159              		.section	.text.CapSense_1_InitializeWidgetBaseline,"ax",%progbits
 160              		.align	2
 161              		.global	CapSense_1_InitializeWidgetBaseline
 162              		.code	16
 163              		.thumb_func
 164              		.type	CapSense_1_InitializeWidgetBaseline, %function
 165              	CapSense_1_InitializeWidgetBaseline:
 166              	.LFB6:
 456:Generated_Source\PSoC4/CapSense_1_Filter.c ****     uint32 sensorId;
 167              		.loc 1 456 0
 168              		.cfi_startproc
 169              		@ args = 0, pretend = 0, frame = 0
 170              		@ frame_needed = 0, uses_anonymous_args = 0
 171              	.LVL19:
 172 0000 70B5     		push	{r4, r5, r6, lr}
 173              		.cfi_def_cfa_offset 16
 174              		.cfi_offset 4, -16
 175              		.cfi_offset 5, -12
 176              		.cfi_offset 6, -8
 177              		.cfi_offset 14, -4
 178 0002 0500     		movs	r5, r0
 179              	.LVL20:
 463:Generated_Source\PSoC4/CapSense_1_Filter.c **** 
 180              		.loc 1 463 0
 181 0004 4301     		lsls	r3, r0, #5
 182 0006 064A     		ldr	r2, .L12
 183 0008 D318     		adds	r3, r2, r3
 184              	.LVL21:
 185 000a 1B8B     		ldrh	r3, [r3, #24]
 186              	.LVL22:
 465:Generated_Source\PSoC4/CapSense_1_Filter.c ****     {
ARM GAS  C:\Users\Mayur\AppData\Local\Temp\ccxZLytu.s 			page 15


 187              		.loc 1 465 0
 188 000c 04E0     		b	.L10
 189              	.LVL23:
 190              	.L11:
 467:Generated_Source\PSoC4/CapSense_1_Filter.c ****     }
 191              		.loc 1 467 0
 192 000e 2100     		movs	r1, r4
 193 0010 2800     		movs	r0, r5
 194 0012 FFF7FEFF 		bl	CapSense_1_InitializeSensorBaseline
 195              	.LVL24:
 465:Generated_Source\PSoC4/CapSense_1_Filter.c ****     {
 196              		.loc 1 465 0
 197 0016 2300     		movs	r3, r4
 198              	.LVL25:
 199              	.L10:
 465:Generated_Source\PSoC4/CapSense_1_Filter.c ****     {
 200              		.loc 1 465 0 is_stmt 0 discriminator 1
 201 0018 5C1E     		subs	r4, r3, #1
 202              	.LVL26:
 203 001a 002B     		cmp	r3, #0
 204 001c F7D1     		bne	.L11
 469:Generated_Source\PSoC4/CapSense_1_Filter.c **** 
 205              		.loc 1 469 0 is_stmt 1
 206              		@ sp needed
 207              	.LVL27:
 208              	.LVL28:
 209 001e 70BD     		pop	{r4, r5, r6, pc}
 210              	.L13:
 211              		.align	2
 212              	.L12:
 213 0020 00000000 		.word	CapSense_1_dsFlash
 214              		.cfi_endproc
 215              	.LFE6:
 216              		.size	CapSense_1_InitializeWidgetBaseline, .-CapSense_1_InitializeWidgetBaseline
 217              		.section	.text.CapSense_1_InitializeAllBaselines,"ax",%progbits
 218              		.align	2
 219              		.global	CapSense_1_InitializeAllBaselines
 220              		.code	16
 221              		.thumb_func
 222              		.type	CapSense_1_InitializeAllBaselines, %function
 223              	CapSense_1_InitializeAllBaselines:
 224              	.LFB5:
 420:Generated_Source\PSoC4/CapSense_1_Filter.c ****     uint32 widgetId;
 225              		.loc 1 420 0
 226              		.cfi_startproc
 227              		@ args = 0, pretend = 0, frame = 0
 228              		@ frame_needed = 0, uses_anonymous_args = 0
 229 0000 10B5     		push	{r4, lr}
 230              		.cfi_def_cfa_offset 8
 231              		.cfi_offset 4, -8
 232              		.cfi_offset 14, -4
 233              	.LVL29:
 423:Generated_Source\PSoC4/CapSense_1_Filter.c ****     {
 234              		.loc 1 423 0
 235 0002 0823     		movs	r3, #8
 236 0004 03E0     		b	.L15
 237              	.LVL30:
ARM GAS  C:\Users\Mayur\AppData\Local\Temp\ccxZLytu.s 			page 16


 238              	.L16:
 425:Generated_Source\PSoC4/CapSense_1_Filter.c ****     }
 239              		.loc 1 425 0
 240 0006 2000     		movs	r0, r4
 241 0008 FFF7FEFF 		bl	CapSense_1_InitializeWidgetBaseline
 242              	.LVL31:
 423:Generated_Source\PSoC4/CapSense_1_Filter.c ****     {
 243              		.loc 1 423 0
 244 000c 2300     		movs	r3, r4
 245              	.LVL32:
 246              	.L15:
 423:Generated_Source\PSoC4/CapSense_1_Filter.c ****     {
 247              		.loc 1 423 0 is_stmt 0 discriminator 1
 248 000e 5C1E     		subs	r4, r3, #1
 249              	.LVL33:
 250 0010 002B     		cmp	r3, #0
 251 0012 F8D1     		bne	.L16
 427:Generated_Source\PSoC4/CapSense_1_Filter.c **** 
 252              		.loc 1 427 0 is_stmt 1
 253              		@ sp needed
 254              	.LVL34:
 255 0014 10BD     		pop	{r4, pc}
 256              		.cfi_endproc
 257              	.LFE5:
 258              		.size	CapSense_1_InitializeAllBaselines, .-CapSense_1_InitializeAllBaselines
 259 0016 C046     		.section	.text.CapSense_1_InitializeIIRInternal,"ax",%progbits
 260              		.align	2
 261              		.global	CapSense_1_InitializeIIRInternal
 262              		.code	16
 263              		.thumb_func
 264              		.type	CapSense_1_InitializeIIRInternal, %function
 265              	CapSense_1_InitializeIIRInternal:
 266              	.LFB14:
 599:Generated_Source\PSoC4/CapSense_1_Filter.c **** 
 600:Generated_Source\PSoC4/CapSense_1_Filter.c **** #if ((CapSense_1_ENABLE == CapSense_1_RC_FILTER_EN) || \
 601:Generated_Source\PSoC4/CapSense_1_Filter.c ****      (0u != (CapSense_1_CSD_AUTOTUNE & CapSense_1_CSD_SS_TH_EN)))
 602:Generated_Source\PSoC4/CapSense_1_Filter.c **** /*******************************************************************************
 603:Generated_Source\PSoC4/CapSense_1_Filter.c **** * Function Name: CapSense_1_InitializeAllFilters
 604:Generated_Source\PSoC4/CapSense_1_Filter.c **** ****************************************************************************//**
 605:Generated_Source\PSoC4/CapSense_1_Filter.c **** *
 606:Generated_Source\PSoC4/CapSense_1_Filter.c **** * \brief
 607:Generated_Source\PSoC4/CapSense_1_Filter.c **** *  Initializes (or re-initializes) the raw count filter history of all the
 608:Generated_Source\PSoC4/CapSense_1_Filter.c **** *  sensors of all the widgets.
 609:Generated_Source\PSoC4/CapSense_1_Filter.c **** *
 610:Generated_Source\PSoC4/CapSense_1_Filter.c **** * \details
 611:Generated_Source\PSoC4/CapSense_1_Filter.c **** *  Initializes the raw count filter history for all the sensors of all the
 612:Generated_Source\PSoC4/CapSense_1_Filter.c **** *  widgets. Also, this function can be used to re-initialize baselines.
 613:Generated_Source\PSoC4/CapSense_1_Filter.c **** *  CapSense_1_Start() calls this API as part of CapSense_1
 614:Generated_Source\PSoC4/CapSense_1_Filter.c **** *  operation initialization.
 615:Generated_Source\PSoC4/CapSense_1_Filter.c **** *
 616:Generated_Source\PSoC4/CapSense_1_Filter.c **** *******************************************************************************/
 617:Generated_Source\PSoC4/CapSense_1_Filter.c **** void CapSense_1_InitializeAllFilters(void)
 618:Generated_Source\PSoC4/CapSense_1_Filter.c **** {
 619:Generated_Source\PSoC4/CapSense_1_Filter.c ****     uint32 widgetId;
 620:Generated_Source\PSoC4/CapSense_1_Filter.c **** 
 621:Generated_Source\PSoC4/CapSense_1_Filter.c ****     for(widgetId = CapSense_1_TOTAL_WIDGETS; widgetId-- > 0u;)
 622:Generated_Source\PSoC4/CapSense_1_Filter.c ****     {
ARM GAS  C:\Users\Mayur\AppData\Local\Temp\ccxZLytu.s 			page 17


 623:Generated_Source\PSoC4/CapSense_1_Filter.c ****         CapSense_1_InitializeWidgetFilter(widgetId);
 624:Generated_Source\PSoC4/CapSense_1_Filter.c ****     }
 625:Generated_Source\PSoC4/CapSense_1_Filter.c **** }
 626:Generated_Source\PSoC4/CapSense_1_Filter.c **** 
 627:Generated_Source\PSoC4/CapSense_1_Filter.c **** /*******************************************************************************
 628:Generated_Source\PSoC4/CapSense_1_Filter.c **** * Function Name: CapSense_1_InitializeWidgetFilter
 629:Generated_Source\PSoC4/CapSense_1_Filter.c **** ****************************************************************************//**
 630:Generated_Source\PSoC4/CapSense_1_Filter.c **** *
 631:Generated_Source\PSoC4/CapSense_1_Filter.c **** * \brief
 632:Generated_Source\PSoC4/CapSense_1_Filter.c **** *  Initializes (or re-initializes) the raw count filter history of all the sensors
 633:Generated_Source\PSoC4/CapSense_1_Filter.c **** *  in a widget specified by the input parameter.
 634:Generated_Source\PSoC4/CapSense_1_Filter.c **** *
 635:Generated_Source\PSoC4/CapSense_1_Filter.c **** * \details
 636:Generated_Source\PSoC4/CapSense_1_Filter.c **** *  Initializes (or re-initializes) the raw count filter history of all the sensors
 637:Generated_Source\PSoC4/CapSense_1_Filter.c **** *  in a widget specified by the input parameter.
 638:Generated_Source\PSoC4/CapSense_1_Filter.c **** *
 639:Generated_Source\PSoC4/CapSense_1_Filter.c **** * \param widgetId
 640:Generated_Source\PSoC4/CapSense_1_Filter.c **** *  Specifies the ID number of a widget to initialize the filter history of all
 641:Generated_Source\PSoC4/CapSense_1_Filter.c **** *  the sensors in the widget.
 642:Generated_Source\PSoC4/CapSense_1_Filter.c **** *  A macro for the widget ID can be found in the
 643:Generated_Source\PSoC4/CapSense_1_Filter.c **** *  CapSense_1 Configuration header file defined as
 644:Generated_Source\PSoC4/CapSense_1_Filter.c **** *  CapSense_1_<WidgetName>_WDGT_ID.
 645:Generated_Source\PSoC4/CapSense_1_Filter.c **** *
 646:Generated_Source\PSoC4/CapSense_1_Filter.c **** *******************************************************************************/
 647:Generated_Source\PSoC4/CapSense_1_Filter.c **** void CapSense_1_InitializeWidgetFilter(uint32 widgetId)
 648:Generated_Source\PSoC4/CapSense_1_Filter.c **** {
 649:Generated_Source\PSoC4/CapSense_1_Filter.c ****     uint32 sensorId;
 650:Generated_Source\PSoC4/CapSense_1_Filter.c ****     uint32 sensorsNumber;
 651:Generated_Source\PSoC4/CapSense_1_Filter.c **** 
 652:Generated_Source\PSoC4/CapSense_1_Filter.c ****     CapSense_1_FLASH_WD_STRUCT const *ptrWidget;
 653:Generated_Source\PSoC4/CapSense_1_Filter.c ****     CapSense_1_RAM_SNS_STRUCT *ptrSensor = NULL;
 654:Generated_Source\PSoC4/CapSense_1_Filter.c ****     #if (CapSense_1_ENABLE == CapSense_1_RC_FILTER_EN)
 655:Generated_Source\PSoC4/CapSense_1_Filter.c ****         CapSense_1_PTR_FILTER_VARIANT ptrFilterHistObj;
 656:Generated_Source\PSoC4/CapSense_1_Filter.c ****     #endif
 657:Generated_Source\PSoC4/CapSense_1_Filter.c **** 
 658:Generated_Source\PSoC4/CapSense_1_Filter.c ****     #if (0u != (CapSense_1_CSD_AUTOTUNE & CapSense_1_CSD_SS_TH_EN))
 659:Generated_Source\PSoC4/CapSense_1_Filter.c ****         CapSense_1_RAM_WD_BASE_STRUCT *ptrWidgetRam;
 660:Generated_Source\PSoC4/CapSense_1_Filter.c ****         SMARTSENSE_CSD_NOISE_ENVELOPE_STRUCT *ptrNoiseEnvelope = NULL;
 661:Generated_Source\PSoC4/CapSense_1_Filter.c ****     #endif /* (0u != (CapSense_1_CSD_AUTOTUNE & CapSense_1_CSD_SS_TH_EN)) */
 662:Generated_Source\PSoC4/CapSense_1_Filter.c **** 
 663:Generated_Source\PSoC4/CapSense_1_Filter.c ****     ptrWidget = &CapSense_1_dsFlash.wdgtArray[widgetId];
 664:Generated_Source\PSoC4/CapSense_1_Filter.c **** 
 665:Generated_Source\PSoC4/CapSense_1_Filter.c ****     #if (0u != (CapSense_1_CSD_AUTOTUNE & CapSense_1_CSD_SS_TH_EN))
 666:Generated_Source\PSoC4/CapSense_1_Filter.c ****         ptrWidgetRam = ptrWidget->ptr2WdgtRam;
 667:Generated_Source\PSoC4/CapSense_1_Filter.c ****     #endif /* (0u != (CapSense_1_CSD_AUTOTUNE & CapSense_1_CSD_SS_TH_EN)) */
 668:Generated_Source\PSoC4/CapSense_1_Filter.c **** 
 669:Generated_Source\PSoC4/CapSense_1_Filter.c ****     /* Find total amount of sensors in specified widget */
 670:Generated_Source\PSoC4/CapSense_1_Filter.c ****     sensorsNumber = CapSense_1_GET_SNS_CNT_BY_PTR(ptrWidget);
 671:Generated_Source\PSoC4/CapSense_1_Filter.c **** 
 672:Generated_Source\PSoC4/CapSense_1_Filter.c ****     for (sensorId = sensorsNumber; sensorId-- > 0u;)
 673:Generated_Source\PSoC4/CapSense_1_Filter.c ****     {
 674:Generated_Source\PSoC4/CapSense_1_Filter.c ****         /* Find pointer to specified sensor object */
 675:Generated_Source\PSoC4/CapSense_1_Filter.c ****         ptrSensor = ptrWidget->ptr2SnsRam;
 676:Generated_Source\PSoC4/CapSense_1_Filter.c ****         ptrSensor = &ptrSensor[sensorId];
 677:Generated_Source\PSoC4/CapSense_1_Filter.c **** 
 678:Generated_Source\PSoC4/CapSense_1_Filter.c ****         #if (CapSense_1_ENABLE == CapSense_1_RC_FILTER_EN)
 679:Generated_Source\PSoC4/CapSense_1_Filter.c ****             /* Find pointer to to specified filter sensor object */
ARM GAS  C:\Users\Mayur\AppData\Local\Temp\ccxZLytu.s 			page 18


 680:Generated_Source\PSoC4/CapSense_1_Filter.c ****             ptrFilterHistObj.ptr = ptrWidget->ptr2FltrHistory;
 681:Generated_Source\PSoC4/CapSense_1_Filter.c ****         #endif
 682:Generated_Source\PSoC4/CapSense_1_Filter.c **** 
 683:Generated_Source\PSoC4/CapSense_1_Filter.c ****         #if (0u != (CapSense_1_CSD_AUTOTUNE & CapSense_1_CSD_SS_TH_EN))
 684:Generated_Source\PSoC4/CapSense_1_Filter.c ****             /* Find pointer to specified noise envelope sensor object */
 685:Generated_Source\PSoC4/CapSense_1_Filter.c ****             ptrNoiseEnvelope = ptrWidget->ptr2NoiseEnvlp;
 686:Generated_Source\PSoC4/CapSense_1_Filter.c ****             ptrNoiseEnvelope = &ptrNoiseEnvelope[sensorId];
 687:Generated_Source\PSoC4/CapSense_1_Filter.c ****         #endif /* (0u != (CapSense_1_CSD_AUTOTUNE & CapSense_1_CSD_SS_TH_EN)) */
 688:Generated_Source\PSoC4/CapSense_1_Filter.c **** 
 689:Generated_Source\PSoC4/CapSense_1_Filter.c ****         if ((CapSense_1_WD_TYPE_ENUM)ptrWidget->wdgtType != CapSense_1_WD_PROXIMITY_E)
 690:Generated_Source\PSoC4/CapSense_1_Filter.c ****         {
 691:Generated_Source\PSoC4/CapSense_1_Filter.c ****             #if (0u != CapSense_1_REGULAR_RC_ALP_FILTER_EN)
 692:Generated_Source\PSoC4/CapSense_1_Filter.c ****                 ptrFilterHistObj.ptrAlp = &ptrFilterHistObj.ptrAlp[sensorId];
 693:Generated_Source\PSoC4/CapSense_1_Filter.c ****             #elif (0u != CapSense_1_REGULAR_RC_FILTER_EN)
 694:Generated_Source\PSoC4/CapSense_1_Filter.c ****                 ptrFilterHistObj.ptrRegular = &ptrFilterHistObj.ptrRegular[sensorId];
 695:Generated_Source\PSoC4/CapSense_1_Filter.c ****             #endif
 696:Generated_Source\PSoC4/CapSense_1_Filter.c ****         }
 697:Generated_Source\PSoC4/CapSense_1_Filter.c ****         else
 698:Generated_Source\PSoC4/CapSense_1_Filter.c ****         {
 699:Generated_Source\PSoC4/CapSense_1_Filter.c ****             #if (0u != CapSense_1_PROX_RC_ALP_FILTER_EN)
 700:Generated_Source\PSoC4/CapSense_1_Filter.c ****                 ptrFilterHistObj.ptrAlp = &ptrFilterHistObj.ptrAlp[sensorId];
 701:Generated_Source\PSoC4/CapSense_1_Filter.c ****             #elif (0u != CapSense_1_PROX_RC_FILTER_EN)
 702:Generated_Source\PSoC4/CapSense_1_Filter.c ****                 ptrFilterHistObj.ptrProx = &ptrFilterHistObj.ptrProx[sensorId];
 703:Generated_Source\PSoC4/CapSense_1_Filter.c ****             #endif /* #if (0u != CapSense_1_PROX_RC_FILTER_EN) */
 704:Generated_Source\PSoC4/CapSense_1_Filter.c ****         }
 705:Generated_Source\PSoC4/CapSense_1_Filter.c **** 
 706:Generated_Source\PSoC4/CapSense_1_Filter.c ****         #if (CapSense_1_REGULAR_RC_IIR_FILTER_EN || CapSense_1_PROX_RC_IIR_FILTER_EN)
 707:Generated_Source\PSoC4/CapSense_1_Filter.c ****             CapSense_1_InitializeIIRInternal(ptrFilterHistObj, ptrSensor, (uint32)ptrWidget->wdgtTy
 708:Generated_Source\PSoC4/CapSense_1_Filter.c ****         #endif /* (CapSense_1_REGULAR_RC_IIR_FILTER_EN || CapSense_1_PROX_RC_IIR_FILTER_EN) */
 709:Generated_Source\PSoC4/CapSense_1_Filter.c **** 
 710:Generated_Source\PSoC4/CapSense_1_Filter.c ****         #if (CapSense_1_REGULAR_RC_MEDIAN_FILTER_EN || CapSense_1_PROX_RC_MEDIAN_FILTER_EN)
 711:Generated_Source\PSoC4/CapSense_1_Filter.c ****             CapSense_1_InitializeMedianInternal(ptrFilterHistObj, ptrSensor, (uint32)ptrWidget->wdg
 712:Generated_Source\PSoC4/CapSense_1_Filter.c ****         #endif /* (CapSense_1_REGULAR_RC_MEDIAN_FILTER_EN || CapSense_1_PROX_RC_MEDIAN_FILTER_EN) *
 713:Generated_Source\PSoC4/CapSense_1_Filter.c **** 
 714:Generated_Source\PSoC4/CapSense_1_Filter.c ****         #if (CapSense_1_REGULAR_RC_AVERAGE_FILTER_EN || CapSense_1_PROX_RC_AVERAGE_FILTER_EN)
 715:Generated_Source\PSoC4/CapSense_1_Filter.c ****             CapSense_1_InitializeAverageInternal(ptrFilterHistObj, ptrSensor, (uint32)ptrWidget->wd
 716:Generated_Source\PSoC4/CapSense_1_Filter.c ****         #endif /* (CapSense_1_REGULAR_RC_AVERAGE_FILTER_EN || CapSense_1_PROX_RC_AVERAGE_FILTER_EN)
 717:Generated_Source\PSoC4/CapSense_1_Filter.c **** 
 718:Generated_Source\PSoC4/CapSense_1_Filter.c ****         #if (CapSense_1_ALP_FILTER_EN)
 719:Generated_Source\PSoC4/CapSense_1_Filter.c ****             CapSense_1_InitializeALPInternal(ptrFilterHistObj, ptrSensor, (uint32)ptrWidget->wdgtTy
 720:Generated_Source\PSoC4/CapSense_1_Filter.c ****         #endif
 721:Generated_Source\PSoC4/CapSense_1_Filter.c **** 
 722:Generated_Source\PSoC4/CapSense_1_Filter.c ****         #if (0u != (CapSense_1_CSD_AUTOTUNE & CapSense_1_CSD_SS_TH_EN))
 723:Generated_Source\PSoC4/CapSense_1_Filter.c ****             if (CapSense_1_SENSE_METHOD_CSD_E ==
 724:Generated_Source\PSoC4/CapSense_1_Filter.c ****                 CapSense_1_GET_SENSE_METHOD(&CapSense_1_dsFlash.wdgtArray[widgetId]))
 725:Generated_Source\PSoC4/CapSense_1_Filter.c ****             {
 726:Generated_Source\PSoC4/CapSense_1_Filter.c ****                 SmartSense_InitializeNoiseEnvelope(ptrSensor->raw[0u], ptrWidgetRam->sigPFC, ptrNoi
 727:Generated_Source\PSoC4/CapSense_1_Filter.c ****             }
 728:Generated_Source\PSoC4/CapSense_1_Filter.c ****         #endif /* (0u != (CapSense_1_CSD_AUTOTUNE & CapSense_1_CSD_SS_TH_EN)) */
 729:Generated_Source\PSoC4/CapSense_1_Filter.c ****     }
 730:Generated_Source\PSoC4/CapSense_1_Filter.c **** }
 731:Generated_Source\PSoC4/CapSense_1_Filter.c **** #endif /* ((CapSense_1_ENABLE == CapSense_1_RC_FILTER_EN) || \
 732:Generated_Source\PSoC4/CapSense_1_Filter.c ****            (0u != (CapSense_1_CSD_AUTOTUNE & CapSense_1_CSD_SS_TH_EN))) */
 733:Generated_Source\PSoC4/CapSense_1_Filter.c **** 
 734:Generated_Source\PSoC4/CapSense_1_Filter.c **** #if (CapSense_1_REGULAR_RC_IIR_FILTER_EN || CapSense_1_PROX_RC_IIR_FILTER_EN)
 735:Generated_Source\PSoC4/CapSense_1_Filter.c **** /*******************************************************************************
 736:Generated_Source\PSoC4/CapSense_1_Filter.c **** * Function Name: CapSense_1_InitializeIIR
ARM GAS  C:\Users\Mayur\AppData\Local\Temp\ccxZLytu.s 			page 19


 737:Generated_Source\PSoC4/CapSense_1_Filter.c **** ****************************************************************************//**
 738:Generated_Source\PSoC4/CapSense_1_Filter.c **** *
 739:Generated_Source\PSoC4/CapSense_1_Filter.c **** * \brief
 740:Generated_Source\PSoC4/CapSense_1_Filter.c **** *  Initialize the IIR filter history.
 741:Generated_Source\PSoC4/CapSense_1_Filter.c **** *
 742:Generated_Source\PSoC4/CapSense_1_Filter.c **** * \details
 743:Generated_Source\PSoC4/CapSense_1_Filter.c **** *  Initialize the IIR filter history.
 744:Generated_Source\PSoC4/CapSense_1_Filter.c **** *
 745:Generated_Source\PSoC4/CapSense_1_Filter.c **** * \param widgetId
 746:Generated_Source\PSoC4/CapSense_1_Filter.c **** *  Specifies the ID number of the widget.
 747:Generated_Source\PSoC4/CapSense_1_Filter.c **** *
 748:Generated_Source\PSoC4/CapSense_1_Filter.c **** * \param sensorId
 749:Generated_Source\PSoC4/CapSense_1_Filter.c **** *  Specifies the ID number of the sensor in the widget.
 750:Generated_Source\PSoC4/CapSense_1_Filter.c **** *
 751:Generated_Source\PSoC4/CapSense_1_Filter.c **** *******************************************************************************/
 752:Generated_Source\PSoC4/CapSense_1_Filter.c **** void CapSense_1_InitializeIIR(uint32 widgetId, uint32 sensorId)
 753:Generated_Source\PSoC4/CapSense_1_Filter.c **** {
 754:Generated_Source\PSoC4/CapSense_1_Filter.c ****     CapSense_1_FLASH_WD_STRUCT const *ptrWidget = &CapSense_1_dsFlash.wdgtArray[widgetId];
 755:Generated_Source\PSoC4/CapSense_1_Filter.c ****     CapSense_1_RAM_SNS_STRUCT *ptrSensor = NULL;
 756:Generated_Source\PSoC4/CapSense_1_Filter.c ****     CapSense_1_PTR_FILTER_VARIANT ptrFilterHistObj;
 757:Generated_Source\PSoC4/CapSense_1_Filter.c **** 
 758:Generated_Source\PSoC4/CapSense_1_Filter.c ****     /* Find pointer to specified sensor object */
 759:Generated_Source\PSoC4/CapSense_1_Filter.c ****     ptrSensor = ptrWidget->ptr2SnsRam;
 760:Generated_Source\PSoC4/CapSense_1_Filter.c ****     ptrSensor = &ptrSensor[sensorId];
 761:Generated_Source\PSoC4/CapSense_1_Filter.c **** 
 762:Generated_Source\PSoC4/CapSense_1_Filter.c ****     /* Find pointer to specified filter sensor object */
 763:Generated_Source\PSoC4/CapSense_1_Filter.c ****     ptrFilterHistObj.ptr = ptrWidget->ptr2FltrHistory;
 764:Generated_Source\PSoC4/CapSense_1_Filter.c **** 
 765:Generated_Source\PSoC4/CapSense_1_Filter.c ****     if ((CapSense_1_WD_TYPE_ENUM)ptrWidget->wdgtType != CapSense_1_WD_PROXIMITY_E)
 766:Generated_Source\PSoC4/CapSense_1_Filter.c ****     {
 767:Generated_Source\PSoC4/CapSense_1_Filter.c ****         #if (CapSense_1_REGULAR_SENSOR_EN)
 768:Generated_Source\PSoC4/CapSense_1_Filter.c ****             ptrFilterHistObj.ptrRegular = &ptrFilterHistObj.ptrRegular[sensorId];
 769:Generated_Source\PSoC4/CapSense_1_Filter.c ****         #endif /* (CapSense_1_REGULAR_SENSOR_EN) */
 770:Generated_Source\PSoC4/CapSense_1_Filter.c ****     }
 771:Generated_Source\PSoC4/CapSense_1_Filter.c ****     else
 772:Generated_Source\PSoC4/CapSense_1_Filter.c ****     {
 773:Generated_Source\PSoC4/CapSense_1_Filter.c ****         #if (CapSense_1_PROXIMITY_SENSOR_EN)
 774:Generated_Source\PSoC4/CapSense_1_Filter.c ****             ptrFilterHistObj.ptrProx = &ptrFilterHistObj.ptrProx[sensorId];
 775:Generated_Source\PSoC4/CapSense_1_Filter.c ****         #endif /* (CapSense_1_PROXIMITY_SENSOR_EN) */
 776:Generated_Source\PSoC4/CapSense_1_Filter.c ****     }
 777:Generated_Source\PSoC4/CapSense_1_Filter.c **** 
 778:Generated_Source\PSoC4/CapSense_1_Filter.c ****     CapSense_1_InitializeIIRInternal(ptrFilterHistObj, ptrSensor, (uint32)ptrWidget->wdgtType);
 779:Generated_Source\PSoC4/CapSense_1_Filter.c **** }
 780:Generated_Source\PSoC4/CapSense_1_Filter.c **** 
 781:Generated_Source\PSoC4/CapSense_1_Filter.c **** 
 782:Generated_Source\PSoC4/CapSense_1_Filter.c **** /*******************************************************************************
 783:Generated_Source\PSoC4/CapSense_1_Filter.c **** * Function Name: CapSense_1_RunIIR
 784:Generated_Source\PSoC4/CapSense_1_Filter.c **** ****************************************************************************//**
 785:Generated_Source\PSoC4/CapSense_1_Filter.c **** *
 786:Generated_Source\PSoC4/CapSense_1_Filter.c **** * \brief
 787:Generated_Source\PSoC4/CapSense_1_Filter.c **** *  Executes the IIR filter algorithm on a sensor indicated by an input
 788:Generated_Source\PSoC4/CapSense_1_Filter.c **** *  parameter.
 789:Generated_Source\PSoC4/CapSense_1_Filter.c **** *
 790:Generated_Source\PSoC4/CapSense_1_Filter.c **** * \details
 791:Generated_Source\PSoC4/CapSense_1_Filter.c **** *  Executes the IIR filter algorithm on a sensor indicated by an input
 792:Generated_Source\PSoC4/CapSense_1_Filter.c **** *  parameter.
 793:Generated_Source\PSoC4/CapSense_1_Filter.c **** *
ARM GAS  C:\Users\Mayur\AppData\Local\Temp\ccxZLytu.s 			page 20


 794:Generated_Source\PSoC4/CapSense_1_Filter.c **** * \param widgetId
 795:Generated_Source\PSoC4/CapSense_1_Filter.c **** *  Specifies the ID number of the widget.
 796:Generated_Source\PSoC4/CapSense_1_Filter.c **** *
 797:Generated_Source\PSoC4/CapSense_1_Filter.c **** * \param sensorId
 798:Generated_Source\PSoC4/CapSense_1_Filter.c **** *  Specifies the ID number of the sensor in the widget.
 799:Generated_Source\PSoC4/CapSense_1_Filter.c **** *
 800:Generated_Source\PSoC4/CapSense_1_Filter.c **** *******************************************************************************/
 801:Generated_Source\PSoC4/CapSense_1_Filter.c **** void CapSense_1_RunIIR(uint32 widgetId, uint32 sensorId)
 802:Generated_Source\PSoC4/CapSense_1_Filter.c **** {
 803:Generated_Source\PSoC4/CapSense_1_Filter.c ****     CapSense_1_FLASH_WD_STRUCT const *ptrWidget = &CapSense_1_dsFlash.wdgtArray[widgetId];
 804:Generated_Source\PSoC4/CapSense_1_Filter.c ****     CapSense_1_RAM_SNS_STRUCT *ptrSensor = NULL;
 805:Generated_Source\PSoC4/CapSense_1_Filter.c ****     CapSense_1_PTR_FILTER_VARIANT ptrFilterHistObj;
 806:Generated_Source\PSoC4/CapSense_1_Filter.c **** 
 807:Generated_Source\PSoC4/CapSense_1_Filter.c ****     /* Find pointer to specified sensor object */
 808:Generated_Source\PSoC4/CapSense_1_Filter.c ****     ptrSensor = ptrWidget->ptr2SnsRam;
 809:Generated_Source\PSoC4/CapSense_1_Filter.c ****     ptrSensor = &ptrSensor[sensorId];
 810:Generated_Source\PSoC4/CapSense_1_Filter.c **** 
 811:Generated_Source\PSoC4/CapSense_1_Filter.c ****     /* Find pointer to specified filter sensor object */
 812:Generated_Source\PSoC4/CapSense_1_Filter.c ****     ptrFilterHistObj.ptr = ptrWidget->ptr2FltrHistory;
 813:Generated_Source\PSoC4/CapSense_1_Filter.c **** 
 814:Generated_Source\PSoC4/CapSense_1_Filter.c ****     if ((CapSense_1_WD_TYPE_ENUM)ptrWidget->wdgtType != CapSense_1_WD_PROXIMITY_E)
 815:Generated_Source\PSoC4/CapSense_1_Filter.c ****     {
 816:Generated_Source\PSoC4/CapSense_1_Filter.c ****         #if (CapSense_1_REGULAR_SENSOR_EN)
 817:Generated_Source\PSoC4/CapSense_1_Filter.c ****             ptrFilterHistObj.ptrRegular = &ptrFilterHistObj.ptrRegular[sensorId];
 818:Generated_Source\PSoC4/CapSense_1_Filter.c ****         #endif /* (CapSense_1_REGULAR_SENSOR_EN) */
 819:Generated_Source\PSoC4/CapSense_1_Filter.c ****     }
 820:Generated_Source\PSoC4/CapSense_1_Filter.c ****     else
 821:Generated_Source\PSoC4/CapSense_1_Filter.c ****     {
 822:Generated_Source\PSoC4/CapSense_1_Filter.c ****         #if (CapSense_1_PROXIMITY_SENSOR_EN)
 823:Generated_Source\PSoC4/CapSense_1_Filter.c ****             ptrFilterHistObj.ptrProx = &ptrFilterHistObj.ptrProx[sensorId];
 824:Generated_Source\PSoC4/CapSense_1_Filter.c ****         #endif /* (CapSense_1_PROXIMITY_SENSOR_EN) */
 825:Generated_Source\PSoC4/CapSense_1_Filter.c ****     }
 826:Generated_Source\PSoC4/CapSense_1_Filter.c **** 
 827:Generated_Source\PSoC4/CapSense_1_Filter.c ****     CapSense_1_RunIIRInternal(ptrFilterHistObj, ptrSensor, (uint32)ptrWidget->wdgtType);
 828:Generated_Source\PSoC4/CapSense_1_Filter.c **** }
 829:Generated_Source\PSoC4/CapSense_1_Filter.c **** 
 830:Generated_Source\PSoC4/CapSense_1_Filter.c **** /*******************************************************************************
 831:Generated_Source\PSoC4/CapSense_1_Filter.c **** * Function Name: CapSense_1_InitializeIIRInternal
 832:Generated_Source\PSoC4/CapSense_1_Filter.c **** ****************************************************************************//**
 833:Generated_Source\PSoC4/CapSense_1_Filter.c **** *
 834:Generated_Source\PSoC4/CapSense_1_Filter.c **** * \brief
 835:Generated_Source\PSoC4/CapSense_1_Filter.c **** *  Initializes the IIR filter history.
 836:Generated_Source\PSoC4/CapSense_1_Filter.c **** *
 837:Generated_Source\PSoC4/CapSense_1_Filter.c **** * \details
 838:Generated_Source\PSoC4/CapSense_1_Filter.c **** *  Initializes the IIR filter history.
 839:Generated_Source\PSoC4/CapSense_1_Filter.c **** *
 840:Generated_Source\PSoC4/CapSense_1_Filter.c **** * \param ptrFilterHistObj
 841:Generated_Source\PSoC4/CapSense_1_Filter.c **** *  The pointer to the filter RAM object of the sensor.
 842:Generated_Source\PSoC4/CapSense_1_Filter.c **** *
 843:Generated_Source\PSoC4/CapSense_1_Filter.c **** * \param ptrSensorObj
 844:Generated_Source\PSoC4/CapSense_1_Filter.c **** *  The pointer to the sensor RAM object of the sensor.
 845:Generated_Source\PSoC4/CapSense_1_Filter.c **** *
 846:Generated_Source\PSoC4/CapSense_1_Filter.c **** * \param wdType
 847:Generated_Source\PSoC4/CapSense_1_Filter.c **** *  Specifies the type of a widget.
 848:Generated_Source\PSoC4/CapSense_1_Filter.c **** *
 849:Generated_Source\PSoC4/CapSense_1_Filter.c **** *******************************************************************************/
 850:Generated_Source\PSoC4/CapSense_1_Filter.c **** void CapSense_1_InitializeIIRInternal(CapSense_1_PTR_FILTER_VARIANT ptrFilterHistObj,
ARM GAS  C:\Users\Mayur\AppData\Local\Temp\ccxZLytu.s 			page 21


 851:Generated_Source\PSoC4/CapSense_1_Filter.c ****                                             CapSense_1_RAM_SNS_STRUCT *ptrSensorObj, uint32 wdType)
 852:Generated_Source\PSoC4/CapSense_1_Filter.c **** {
 267              		.loc 1 852 0
 268              		.cfi_startproc
 269              		@ args = 0, pretend = 0, frame = 0
 270              		@ frame_needed = 0, uses_anonymous_args = 0
 271              	.LVL35:
 272 0000 70B5     		push	{r4, r5, r6, lr}
 273              		.cfi_def_cfa_offset 16
 274              		.cfi_offset 4, -16
 275              		.cfi_offset 5, -12
 276              		.cfi_offset 6, -8
 277              		.cfi_offset 14, -4
 278              	.LVL36:
 853:Generated_Source\PSoC4/CapSense_1_Filter.c ****     uint32 freqChannel;
 854:Generated_Source\PSoC4/CapSense_1_Filter.c **** 
 855:Generated_Source\PSoC4/CapSense_1_Filter.c ****     for(freqChannel = CapSense_1_NUM_SCAN_FREQS; freqChannel-- > 0u;)
 279              		.loc 1 855 0
 280 0002 0123     		movs	r3, #1
 281 0004 09E0     		b	.L18
 282              	.LVL37:
 283              	.L20:
 856:Generated_Source\PSoC4/CapSense_1_Filter.c ****     {
 857:Generated_Source\PSoC4/CapSense_1_Filter.c ****         if ((CapSense_1_WD_TYPE_ENUM)wdType != CapSense_1_WD_PROXIMITY_E)
 284              		.loc 1 857 0
 285 0006 FF23     		movs	r3, #255
 286 0008 1340     		ands	r3, r2
 287 000a 062B     		cmp	r3, #6
 288 000c 04D0     		beq	.L19
 858:Generated_Source\PSoC4/CapSense_1_Filter.c ****         {
 859:Generated_Source\PSoC4/CapSense_1_Filter.c ****             #if (CapSense_1_REGULAR_SENSOR_EN && CapSense_1_REGULAR_RC_IIR_FILTER_EN)
 860:Generated_Source\PSoC4/CapSense_1_Filter.c ****                 #if (CapSense_1_REGULAR_IIR_RC_TYPE == CapSense_1_IIR_FILTER_PERFORMANCE)
 861:Generated_Source\PSoC4/CapSense_1_Filter.c ****                     ptrFilterHistObj.ptrRegular->regularChannel[freqChannel].iirHistory = ptrSensor
 862:Generated_Source\PSoC4/CapSense_1_Filter.c ****                     ptrFilterHistObj.ptrRegular->regularChannel[freqChannel].iirHistoryLow = 0u;
 863:Generated_Source\PSoC4/CapSense_1_Filter.c ****                 #else
 864:Generated_Source\PSoC4/CapSense_1_Filter.c ****                     ptrFilterHistObj.ptrRegular->regularChannel[freqChannel].iirHistory = ptrSensor
 289              		.loc 1 864 0
 290 000e 6300     		lsls	r3, r4, #1
 291 0010 5E5A     		ldrh	r6, [r3, r1]
 292 0012 1B19     		adds	r3, r3, r4
 293 0014 9D00     		lsls	r5, r3, #2
 294 0016 2E52     		strh	r6, [r5, r0]
 295              	.L19:
 852:Generated_Source\PSoC4/CapSense_1_Filter.c ****     uint32 freqChannel;
 296              		.loc 1 852 0 discriminator 1
 297 0018 2300     		movs	r3, r4
 298              	.LVL38:
 299              	.L18:
 855:Generated_Source\PSoC4/CapSense_1_Filter.c ****     {
 300              		.loc 1 855 0 discriminator 1
 301 001a 5C1E     		subs	r4, r3, #1
 302              	.LVL39:
 303 001c 002B     		cmp	r3, #0
 304 001e F2D1     		bne	.L20
 865:Generated_Source\PSoC4/CapSense_1_Filter.c ****                 #endif /* (CapSense_1_REGULAR_IIR_RC_TYPE == CapSense_1_IIR_FILTER_PERFORMANCE) */
 866:Generated_Source\PSoC4/CapSense_1_Filter.c ****             #endif /* (CapSense_1_REGULAR_SENSOR_EN) */
 867:Generated_Source\PSoC4/CapSense_1_Filter.c ****         }
ARM GAS  C:\Users\Mayur\AppData\Local\Temp\ccxZLytu.s 			page 22


 868:Generated_Source\PSoC4/CapSense_1_Filter.c ****         else
 869:Generated_Source\PSoC4/CapSense_1_Filter.c ****         {
 870:Generated_Source\PSoC4/CapSense_1_Filter.c ****             #if (CapSense_1_PROXIMITY_SENSOR_EN && CapSense_1_PROX_RC_IIR_FILTER_EN)
 871:Generated_Source\PSoC4/CapSense_1_Filter.c ****                 #if (CapSense_1_PROX_IIR_RC_TYPE == CapSense_1_IIR_FILTER_PERFORMANCE)
 872:Generated_Source\PSoC4/CapSense_1_Filter.c ****                     ptrFilterHistObj.ptrProx->proxChannel[freqChannel].iirHistory = ptrSensorObj->r
 873:Generated_Source\PSoC4/CapSense_1_Filter.c ****                     ptrFilterHistObj.ptrProx->proxChannel[freqChannel].iirHistoryLow = 0u;
 874:Generated_Source\PSoC4/CapSense_1_Filter.c ****                 #else
 875:Generated_Source\PSoC4/CapSense_1_Filter.c ****                     ptrFilterHistObj.ptrProx->proxChannel[freqChannel].iirHistory = ptrSensorObj->r
 876:Generated_Source\PSoC4/CapSense_1_Filter.c ****                 #endif /* (CapSense_1_PROX_IIR_RC_TYPE == CapSense_1_IIR_FILTER_PERFORMANCE) */
 877:Generated_Source\PSoC4/CapSense_1_Filter.c ****             #endif /* (CapSense_1_PROX_SENSOR_EN) */
 878:Generated_Source\PSoC4/CapSense_1_Filter.c ****         }
 879:Generated_Source\PSoC4/CapSense_1_Filter.c ****     }
 880:Generated_Source\PSoC4/CapSense_1_Filter.c **** }
 305              		.loc 1 880 0
 306              		@ sp needed
 307              	.LVL40:
 308 0020 70BD     		pop	{r4, r5, r6, pc}
 309              		.cfi_endproc
 310              	.LFE14:
 311              		.size	CapSense_1_InitializeIIRInternal, .-CapSense_1_InitializeIIRInternal
 312 0022 C046     		.section	.text.CapSense_1_InitializeIIR,"ax",%progbits
 313              		.align	2
 314              		.global	CapSense_1_InitializeIIR
 315              		.code	16
 316              		.thumb_func
 317              		.type	CapSense_1_InitializeIIR, %function
 318              	CapSense_1_InitializeIIR:
 319              	.LFB12:
 753:Generated_Source\PSoC4/CapSense_1_Filter.c ****     CapSense_1_FLASH_WD_STRUCT const *ptrWidget = &CapSense_1_dsFlash.wdgtArray[widgetId];
 320              		.loc 1 753 0
 321              		.cfi_startproc
 322              		@ args = 0, pretend = 0, frame = 0
 323              		@ frame_needed = 0, uses_anonymous_args = 0
 324              	.LVL41:
 325 0000 70B5     		push	{r4, r5, r6, lr}
 326              		.cfi_def_cfa_offset 16
 327              		.cfi_offset 4, -16
 328              		.cfi_offset 5, -12
 329              		.cfi_offset 6, -8
 330              		.cfi_offset 14, -4
 331 0002 0C00     		movs	r4, r1
 332              	.LVL42:
 759:Generated_Source\PSoC4/CapSense_1_Filter.c ****     ptrSensor = &ptrSensor[sensorId];
 333              		.loc 1 759 0
 334 0004 4001     		lsls	r0, r0, #5
 335              	.LVL43:
 336 0006 0A4B     		ldr	r3, .L23
 337 0008 1B18     		adds	r3, r3, r0
 338              	.LVL44:
 760:Generated_Source\PSoC4/CapSense_1_Filter.c **** 
 339              		.loc 1 760 0
 340 000a 8A00     		lsls	r2, r1, #2
 341 000c 5218     		adds	r2, r2, r1
 342 000e 5100     		lsls	r1, r2, #1
 343              	.LVL45:
 344 0010 9A68     		ldr	r2, [r3, #8]
 345 0012 9446     		mov	ip, r2
ARM GAS  C:\Users\Mayur\AppData\Local\Temp\ccxZLytu.s 			page 23


 346 0014 6144     		add	r1, r1, ip
 347              	.LVL46:
 763:Generated_Source\PSoC4/CapSense_1_Filter.c **** 
 348              		.loc 1 763 0
 349 0016 DD68     		ldr	r5, [r3, #12]
 350 0018 2800     		movs	r0, r5
 351              	.LVL47:
 765:Generated_Source\PSoC4/CapSense_1_Filter.c ****     {
 352              		.loc 1 765 0
 353 001a 9A7E     		ldrb	r2, [r3, #26]
 354 001c 062A     		cmp	r2, #6
 355 001e 03D0     		beq	.L22
 768:Generated_Source\PSoC4/CapSense_1_Filter.c ****         #endif /* (CapSense_1_REGULAR_SENSOR_EN) */
 356              		.loc 1 768 0
 357 0020 6300     		lsls	r3, r4, #1
 358              	.LVL48:
 359 0022 1C19     		adds	r4, r3, r4
 360              	.LVL49:
 361 0024 A000     		lsls	r0, r4, #2
 362 0026 2818     		adds	r0, r5, r0
 363              	.L22:
 778:Generated_Source\PSoC4/CapSense_1_Filter.c **** }
 364              		.loc 1 778 0
 365 0028 FFF7FEFF 		bl	CapSense_1_InitializeIIRInternal
 366              	.LVL50:
 779:Generated_Source\PSoC4/CapSense_1_Filter.c **** 
 367              		.loc 1 779 0
 368              		@ sp needed
 369 002c 70BD     		pop	{r4, r5, r6, pc}
 370              	.L24:
 371 002e C046     		.align	2
 372              	.L23:
 373 0030 00000000 		.word	CapSense_1_dsFlash
 374              		.cfi_endproc
 375              	.LFE12:
 376              		.size	CapSense_1_InitializeIIR, .-CapSense_1_InitializeIIR
 377              		.section	.text.CapSense_1_InitializeMedianInternal,"ax",%progbits
 378              		.align	2
 379              		.global	CapSense_1_InitializeMedianInternal
 380              		.code	16
 381              		.thumb_func
 382              		.type	CapSense_1_InitializeMedianInternal, %function
 383              	CapSense_1_InitializeMedianInternal:
 384              	.LFB18:
 881:Generated_Source\PSoC4/CapSense_1_Filter.c **** 
 882:Generated_Source\PSoC4/CapSense_1_Filter.c **** 
 883:Generated_Source\PSoC4/CapSense_1_Filter.c **** /*******************************************************************************
 884:Generated_Source\PSoC4/CapSense_1_Filter.c **** * Function Name: CapSense_1_RunIIRInternal
 885:Generated_Source\PSoC4/CapSense_1_Filter.c **** ****************************************************************************//**
 886:Generated_Source\PSoC4/CapSense_1_Filter.c **** *
 887:Generated_Source\PSoC4/CapSense_1_Filter.c **** * \brief
 888:Generated_Source\PSoC4/CapSense_1_Filter.c **** *  Run the IIR filter.
 889:Generated_Source\PSoC4/CapSense_1_Filter.c **** *
 890:Generated_Source\PSoC4/CapSense_1_Filter.c **** * \details
 891:Generated_Source\PSoC4/CapSense_1_Filter.c **** *  Run the IIR filter.
 892:Generated_Source\PSoC4/CapSense_1_Filter.c **** *
 893:Generated_Source\PSoC4/CapSense_1_Filter.c **** * \param ptrFilterHistObj
ARM GAS  C:\Users\Mayur\AppData\Local\Temp\ccxZLytu.s 			page 24


 894:Generated_Source\PSoC4/CapSense_1_Filter.c **** *  The pointer to the filter RAM object of the sensor.
 895:Generated_Source\PSoC4/CapSense_1_Filter.c **** *
 896:Generated_Source\PSoC4/CapSense_1_Filter.c **** * \param ptrSensorObj
 897:Generated_Source\PSoC4/CapSense_1_Filter.c **** *  The pointer to the sensor RAM object of the sensor.
 898:Generated_Source\PSoC4/CapSense_1_Filter.c **** *
 899:Generated_Source\PSoC4/CapSense_1_Filter.c **** * \param wdType
 900:Generated_Source\PSoC4/CapSense_1_Filter.c **** *  Specifies the type of a widget.
 901:Generated_Source\PSoC4/CapSense_1_Filter.c **** *
 902:Generated_Source\PSoC4/CapSense_1_Filter.c **** *******************************************************************************/
 903:Generated_Source\PSoC4/CapSense_1_Filter.c **** void CapSense_1_RunIIRInternal(CapSense_1_PTR_FILTER_VARIANT ptrFilterHistObj,
 904:Generated_Source\PSoC4/CapSense_1_Filter.c ****                                      CapSense_1_RAM_SNS_STRUCT *ptrSensorObj, uint32 wdType)
 905:Generated_Source\PSoC4/CapSense_1_Filter.c **** {
 906:Generated_Source\PSoC4/CapSense_1_Filter.c ****     uint32 freqChannel;
 907:Generated_Source\PSoC4/CapSense_1_Filter.c ****     uint32 temp;
 908:Generated_Source\PSoC4/CapSense_1_Filter.c **** 
 909:Generated_Source\PSoC4/CapSense_1_Filter.c ****     for(freqChannel = CapSense_1_NUM_SCAN_FREQS; freqChannel-- > 0u;)
 910:Generated_Source\PSoC4/CapSense_1_Filter.c ****     {
 911:Generated_Source\PSoC4/CapSense_1_Filter.c ****         if ((CapSense_1_WD_TYPE_ENUM)wdType != CapSense_1_WD_PROXIMITY_E)
 912:Generated_Source\PSoC4/CapSense_1_Filter.c ****         {
 913:Generated_Source\PSoC4/CapSense_1_Filter.c ****             #if (CapSense_1_REGULAR_SENSOR_EN && CapSense_1_REGULAR_RC_IIR_FILTER_EN)
 914:Generated_Source\PSoC4/CapSense_1_Filter.c ****                 #if (CapSense_1_REGULAR_IIR_RC_TYPE == CapSense_1_IIR_FILTER_PERFORMANCE)
 915:Generated_Source\PSoC4/CapSense_1_Filter.c ****                     temp = ((uint32)ptrFilterHistObj.ptrRegular->regularChannel[freqChannel].iirHis
 916:Generated_Source\PSoC4/CapSense_1_Filter.c ****                     temp |= ptrFilterHistObj.ptrRegular->regularChannel[freqChannel].iirHistoryLow;
 917:Generated_Source\PSoC4/CapSense_1_Filter.c ****                     temp = CapSense_1_FtIIR1stOrder((uint32)ptrSensorObj->raw[freqChannel],
 918:Generated_Source\PSoC4/CapSense_1_Filter.c ****                                                         temp,
 919:Generated_Source\PSoC4/CapSense_1_Filter.c ****                                                         CapSense_1_REGULAR_IIR_RC_N,
 920:Generated_Source\PSoC4/CapSense_1_Filter.c ****                                                         CapSense_1_REGULAR_IIR_RC_SHIFT);
 921:Generated_Source\PSoC4/CapSense_1_Filter.c ****                     ptrFilterHistObj.ptrRegular->regularChannel[freqChannel].iirHistory = LO16(temp
 922:Generated_Source\PSoC4/CapSense_1_Filter.c ****                     ptrFilterHistObj.ptrRegular->regularChannel[freqChannel].iirHistoryLow = LO8(te
 923:Generated_Source\PSoC4/CapSense_1_Filter.c ****                     ptrSensorObj->raw[freqChannel] = LO16(temp >>CapSense_1_REGULAR_IIR_RC_SHIFT);
 924:Generated_Source\PSoC4/CapSense_1_Filter.c ****                 #else
 925:Generated_Source\PSoC4/CapSense_1_Filter.c ****                     temp =CapSense_1_FtIIR1stOrder((uint32)ptrSensorObj->raw[freqChannel],
 926:Generated_Source\PSoC4/CapSense_1_Filter.c ****                                                         (uint32)ptrFilterHistObj.ptrRegular->regula
 927:Generated_Source\PSoC4/CapSense_1_Filter.c ****                                                         CapSense_1_REGULAR_IIR_RC_N,
 928:Generated_Source\PSoC4/CapSense_1_Filter.c ****                                                         CapSense_1_REGULAR_IIR_RC_SHIFT);
 929:Generated_Source\PSoC4/CapSense_1_Filter.c ****                     ptrFilterHistObj.ptrRegular->regularChannel[freqChannel].iirHistory = LO16(temp
 930:Generated_Source\PSoC4/CapSense_1_Filter.c ****                     ptrSensorObj->raw[freqChannel] = LO16(temp >>CapSense_1_REGULAR_IIR_RC_SHIFT);
 931:Generated_Source\PSoC4/CapSense_1_Filter.c ****                 #endif /* (CapSense_1_REGULAR_IIR_RC_TYPE == CapSense_1_IIR_FILTER_PERFORMANCE) */
 932:Generated_Source\PSoC4/CapSense_1_Filter.c ****             #endif /* (CapSense_1_REGULAR_SENSOR_EN) */
 933:Generated_Source\PSoC4/CapSense_1_Filter.c ****         }
 934:Generated_Source\PSoC4/CapSense_1_Filter.c ****         else
 935:Generated_Source\PSoC4/CapSense_1_Filter.c ****         {
 936:Generated_Source\PSoC4/CapSense_1_Filter.c ****             #if (CapSense_1_PROXIMITY_SENSOR_EN && CapSense_1_PROX_RC_IIR_FILTER_EN)
 937:Generated_Source\PSoC4/CapSense_1_Filter.c ****                 #if (CapSense_1_PROX_IIR_RC_TYPE == CapSense_1_IIR_FILTER_PERFORMANCE)
 938:Generated_Source\PSoC4/CapSense_1_Filter.c ****                     temp =  ptrFilterHistObj.ptrProx->proxChannel[freqChannel].iirHistory << CapSen
 939:Generated_Source\PSoC4/CapSense_1_Filter.c ****                     temp |= ptrFilterHistObj.ptrProx->proxChannel[freqChannel].iirHistoryLow;
 940:Generated_Source\PSoC4/CapSense_1_Filter.c ****                     temp =CapSense_1_FtIIR1stOrder((uint32)ptrSensorObj->raw[freqChannel],
 941:Generated_Source\PSoC4/CapSense_1_Filter.c ****                                                         temp,
 942:Generated_Source\PSoC4/CapSense_1_Filter.c ****                                                         CapSense_1_PROX_IIR_RC_N,
 943:Generated_Source\PSoC4/CapSense_1_Filter.c ****                                                         CapSense_1_PROX_IIR_RC_SHIFT);
 944:Generated_Source\PSoC4/CapSense_1_Filter.c ****                     ptrFilterHistObj.ptrProx->proxChannel[freqChannel].iirHistory = LO16(temp >>Cap
 945:Generated_Source\PSoC4/CapSense_1_Filter.c ****                     ptrFilterHistObj.ptrProx->proxChannel[freqChannel].iirHistoryLow = LO8(temp);
 946:Generated_Source\PSoC4/CapSense_1_Filter.c ****                     ptrSensorObj->raw[freqChannel] = LO16(temp >>CapSense_1_PROX_IIR_RC_SHIFT);
 947:Generated_Source\PSoC4/CapSense_1_Filter.c ****                 #else
 948:Generated_Source\PSoC4/CapSense_1_Filter.c ****                     temp =CapSense_1_FtIIR1stOrder((uint32)ptrSensorObj->raw[freqChannel],
 949:Generated_Source\PSoC4/CapSense_1_Filter.c ****                                                         (uint32)ptrFilterHistObj.ptrProx->proxChann
 950:Generated_Source\PSoC4/CapSense_1_Filter.c ****                                                         CapSense_1_PROX_IIR_RC_N,
ARM GAS  C:\Users\Mayur\AppData\Local\Temp\ccxZLytu.s 			page 25


 951:Generated_Source\PSoC4/CapSense_1_Filter.c ****                                                         CapSense_1_PROX_IIR_RC_SHIFT);
 952:Generated_Source\PSoC4/CapSense_1_Filter.c ****                     ptrFilterHistObj.ptrProx->proxChannel[freqChannel].iirHistory = LO16(temp);
 953:Generated_Source\PSoC4/CapSense_1_Filter.c ****                     ptrSensorObj->raw[freqChannel] = LO16(temp >>CapSense_1_PROX_IIR_RC_SHIFT);
 954:Generated_Source\PSoC4/CapSense_1_Filter.c ****                 #endif /* (CapSense_1_PROX_IIR_RC_TYPE == CapSense_1_IIR_FILTER_PERFORMANCE) */
 955:Generated_Source\PSoC4/CapSense_1_Filter.c ****             #endif /* (CapSense_1_PROX_SENSOR_EN) */
 956:Generated_Source\PSoC4/CapSense_1_Filter.c ****         }
 957:Generated_Source\PSoC4/CapSense_1_Filter.c ****     }
 958:Generated_Source\PSoC4/CapSense_1_Filter.c **** }
 959:Generated_Source\PSoC4/CapSense_1_Filter.c **** #endif /* #if (CapSense_1_REGULAR_RC_IIR_FILTER_EN || CapSense_1_PROX_RC_IIR_FILTER_EN) */
 960:Generated_Source\PSoC4/CapSense_1_Filter.c **** 
 961:Generated_Source\PSoC4/CapSense_1_Filter.c **** 
 962:Generated_Source\PSoC4/CapSense_1_Filter.c **** #if (CapSense_1_REGULAR_RC_MEDIAN_FILTER_EN || CapSense_1_PROX_RC_MEDIAN_FILTER_EN)
 963:Generated_Source\PSoC4/CapSense_1_Filter.c **** 
 964:Generated_Source\PSoC4/CapSense_1_Filter.c **** /*******************************************************************************
 965:Generated_Source\PSoC4/CapSense_1_Filter.c **** * Function Name: CapSense_1_InitializeMedian
 966:Generated_Source\PSoC4/CapSense_1_Filter.c **** ****************************************************************************//**
 967:Generated_Source\PSoC4/CapSense_1_Filter.c **** *
 968:Generated_Source\PSoC4/CapSense_1_Filter.c **** * \brief
 969:Generated_Source\PSoC4/CapSense_1_Filter.c **** *  Initializes the Median filter history.
 970:Generated_Source\PSoC4/CapSense_1_Filter.c **** *
 971:Generated_Source\PSoC4/CapSense_1_Filter.c **** * \details
 972:Generated_Source\PSoC4/CapSense_1_Filter.c **** *  Initializes the Median filter history.
 973:Generated_Source\PSoC4/CapSense_1_Filter.c **** *
 974:Generated_Source\PSoC4/CapSense_1_Filter.c **** * \param widgetId
 975:Generated_Source\PSoC4/CapSense_1_Filter.c **** *  Specifies the ID number of the widget.
 976:Generated_Source\PSoC4/CapSense_1_Filter.c **** *
 977:Generated_Source\PSoC4/CapSense_1_Filter.c **** * \param sensorId
 978:Generated_Source\PSoC4/CapSense_1_Filter.c **** *  Specifies the ID number of the sensor in the widget.
 979:Generated_Source\PSoC4/CapSense_1_Filter.c **** *
 980:Generated_Source\PSoC4/CapSense_1_Filter.c **** *******************************************************************************/
 981:Generated_Source\PSoC4/CapSense_1_Filter.c **** void CapSense_1_InitializeMedian(uint32 widgetId, uint32 sensorId)
 982:Generated_Source\PSoC4/CapSense_1_Filter.c **** {
 983:Generated_Source\PSoC4/CapSense_1_Filter.c ****     CapSense_1_FLASH_WD_STRUCT const *ptrWidget = &CapSense_1_dsFlash.wdgtArray[widgetId];
 984:Generated_Source\PSoC4/CapSense_1_Filter.c ****     CapSense_1_RAM_SNS_STRUCT *ptrSensor = NULL;
 985:Generated_Source\PSoC4/CapSense_1_Filter.c ****     CapSense_1_PTR_FILTER_VARIANT ptrFilterHistObj;
 986:Generated_Source\PSoC4/CapSense_1_Filter.c **** 
 987:Generated_Source\PSoC4/CapSense_1_Filter.c ****     /* Find pointer to specified sensor object */
 988:Generated_Source\PSoC4/CapSense_1_Filter.c ****     ptrSensor = ptrWidget->ptr2SnsRam;
 989:Generated_Source\PSoC4/CapSense_1_Filter.c ****     ptrSensor = &ptrSensor[sensorId];
 990:Generated_Source\PSoC4/CapSense_1_Filter.c **** 
 991:Generated_Source\PSoC4/CapSense_1_Filter.c ****     /* Find pointer to specified filter sensor object */
 992:Generated_Source\PSoC4/CapSense_1_Filter.c ****     ptrFilterHistObj.ptr = ptrWidget->ptr2FltrHistory;
 993:Generated_Source\PSoC4/CapSense_1_Filter.c **** 
 994:Generated_Source\PSoC4/CapSense_1_Filter.c ****     if ((CapSense_1_WD_TYPE_ENUM)ptrWidget->wdgtType != CapSense_1_WD_PROXIMITY_E)
 995:Generated_Source\PSoC4/CapSense_1_Filter.c ****     {
 996:Generated_Source\PSoC4/CapSense_1_Filter.c ****         #if (CapSense_1_REGULAR_SENSOR_EN)
 997:Generated_Source\PSoC4/CapSense_1_Filter.c ****             ptrFilterHistObj.ptrRegular = &ptrFilterHistObj.ptrRegular[sensorId];
 998:Generated_Source\PSoC4/CapSense_1_Filter.c ****         #endif /* (CapSense_1_REGULAR_SENSOR_EN) */
 999:Generated_Source\PSoC4/CapSense_1_Filter.c ****     }
1000:Generated_Source\PSoC4/CapSense_1_Filter.c ****     else
1001:Generated_Source\PSoC4/CapSense_1_Filter.c ****     {
1002:Generated_Source\PSoC4/CapSense_1_Filter.c ****         #if (CapSense_1_PROXIMITY_SENSOR_EN)
1003:Generated_Source\PSoC4/CapSense_1_Filter.c ****             ptrFilterHistObj.ptrProx = &ptrFilterHistObj.ptrProx[sensorId];
1004:Generated_Source\PSoC4/CapSense_1_Filter.c ****         #endif /* (CapSense_1_PROXIMITY_SENSOR_EN) */
1005:Generated_Source\PSoC4/CapSense_1_Filter.c ****     }
1006:Generated_Source\PSoC4/CapSense_1_Filter.c **** 
1007:Generated_Source\PSoC4/CapSense_1_Filter.c ****     CapSense_1_InitializeMedianInternal(ptrFilterHistObj, ptrSensor, (uint32)ptrWidget->wdgtType);
ARM GAS  C:\Users\Mayur\AppData\Local\Temp\ccxZLytu.s 			page 26


1008:Generated_Source\PSoC4/CapSense_1_Filter.c **** }
1009:Generated_Source\PSoC4/CapSense_1_Filter.c **** 
1010:Generated_Source\PSoC4/CapSense_1_Filter.c **** 
1011:Generated_Source\PSoC4/CapSense_1_Filter.c **** /*******************************************************************************
1012:Generated_Source\PSoC4/CapSense_1_Filter.c **** * Function Name: CapSense_1_RunMedian
1013:Generated_Source\PSoC4/CapSense_1_Filter.c **** ****************************************************************************//**
1014:Generated_Source\PSoC4/CapSense_1_Filter.c **** *
1015:Generated_Source\PSoC4/CapSense_1_Filter.c **** * \brief
1016:Generated_Source\PSoC4/CapSense_1_Filter.c **** *  Executes the Median filter algorithm on a sensor indicated by an input
1017:Generated_Source\PSoC4/CapSense_1_Filter.c **** *  parameter.
1018:Generated_Source\PSoC4/CapSense_1_Filter.c **** *
1019:Generated_Source\PSoC4/CapSense_1_Filter.c **** * \details
1020:Generated_Source\PSoC4/CapSense_1_Filter.c **** *  Executes the Median filter algorithm on a sensor indicated by an input
1021:Generated_Source\PSoC4/CapSense_1_Filter.c **** *  parameter.
1022:Generated_Source\PSoC4/CapSense_1_Filter.c **** *
1023:Generated_Source\PSoC4/CapSense_1_Filter.c **** * \param widgetId
1024:Generated_Source\PSoC4/CapSense_1_Filter.c **** *  Specifies the ID number of the widget.
1025:Generated_Source\PSoC4/CapSense_1_Filter.c **** *
1026:Generated_Source\PSoC4/CapSense_1_Filter.c **** * \param sensorId
1027:Generated_Source\PSoC4/CapSense_1_Filter.c **** *  Specifies the ID number of the sensor in the widget.
1028:Generated_Source\PSoC4/CapSense_1_Filter.c **** *
1029:Generated_Source\PSoC4/CapSense_1_Filter.c **** *******************************************************************************/
1030:Generated_Source\PSoC4/CapSense_1_Filter.c **** void CapSense_1_RunMedian(uint32 widgetId, uint32 sensorId)
1031:Generated_Source\PSoC4/CapSense_1_Filter.c **** {
1032:Generated_Source\PSoC4/CapSense_1_Filter.c ****     CapSense_1_FLASH_WD_STRUCT const *ptrWidget = &CapSense_1_dsFlash.wdgtArray[widgetId];
1033:Generated_Source\PSoC4/CapSense_1_Filter.c ****     CapSense_1_RAM_SNS_STRUCT *ptrSensor = NULL;
1034:Generated_Source\PSoC4/CapSense_1_Filter.c ****     CapSense_1_PTR_FILTER_VARIANT ptrFilterHistObj;
1035:Generated_Source\PSoC4/CapSense_1_Filter.c **** 
1036:Generated_Source\PSoC4/CapSense_1_Filter.c ****     /* Find pointer to specified sensor object */
1037:Generated_Source\PSoC4/CapSense_1_Filter.c ****     ptrSensor = ptrWidget->ptr2SnsRam;
1038:Generated_Source\PSoC4/CapSense_1_Filter.c ****     ptrSensor = &ptrSensor[sensorId];
1039:Generated_Source\PSoC4/CapSense_1_Filter.c **** 
1040:Generated_Source\PSoC4/CapSense_1_Filter.c ****     /* Find pointer to specified filter sensor object */
1041:Generated_Source\PSoC4/CapSense_1_Filter.c ****     ptrFilterHistObj.ptr = ptrWidget->ptr2FltrHistory;
1042:Generated_Source\PSoC4/CapSense_1_Filter.c **** 
1043:Generated_Source\PSoC4/CapSense_1_Filter.c ****     if ((CapSense_1_WD_TYPE_ENUM)ptrWidget->wdgtType != CapSense_1_WD_PROXIMITY_E)
1044:Generated_Source\PSoC4/CapSense_1_Filter.c ****     {
1045:Generated_Source\PSoC4/CapSense_1_Filter.c ****         #if (CapSense_1_REGULAR_SENSOR_EN)
1046:Generated_Source\PSoC4/CapSense_1_Filter.c ****             ptrFilterHistObj.ptrRegular = &ptrFilterHistObj.ptrRegular[sensorId];
1047:Generated_Source\PSoC4/CapSense_1_Filter.c ****         #endif /* (CapSense_1_REGULAR_SENSOR_EN) */
1048:Generated_Source\PSoC4/CapSense_1_Filter.c ****     }
1049:Generated_Source\PSoC4/CapSense_1_Filter.c ****     else
1050:Generated_Source\PSoC4/CapSense_1_Filter.c ****     {
1051:Generated_Source\PSoC4/CapSense_1_Filter.c ****         #if (CapSense_1_PROXIMITY_SENSOR_EN)
1052:Generated_Source\PSoC4/CapSense_1_Filter.c ****             ptrFilterHistObj.ptrProx = &ptrFilterHistObj.ptrProx[sensorId];
1053:Generated_Source\PSoC4/CapSense_1_Filter.c ****         #endif /* (CapSense_1_PROXIMITY_SENSOR_EN) */
1054:Generated_Source\PSoC4/CapSense_1_Filter.c ****     }
1055:Generated_Source\PSoC4/CapSense_1_Filter.c **** 
1056:Generated_Source\PSoC4/CapSense_1_Filter.c ****     CapSense_1_RunMedianInternal(ptrFilterHistObj, ptrSensor, (uint32)ptrWidget->wdgtType);
1057:Generated_Source\PSoC4/CapSense_1_Filter.c **** }
1058:Generated_Source\PSoC4/CapSense_1_Filter.c **** 
1059:Generated_Source\PSoC4/CapSense_1_Filter.c **** 
1060:Generated_Source\PSoC4/CapSense_1_Filter.c **** /*******************************************************************************
1061:Generated_Source\PSoC4/CapSense_1_Filter.c **** * Function Name: CapSense_1_InitializeMedianInternal
1062:Generated_Source\PSoC4/CapSense_1_Filter.c **** ****************************************************************************//**
1063:Generated_Source\PSoC4/CapSense_1_Filter.c **** *
1064:Generated_Source\PSoC4/CapSense_1_Filter.c **** * \brief
ARM GAS  C:\Users\Mayur\AppData\Local\Temp\ccxZLytu.s 			page 27


1065:Generated_Source\PSoC4/CapSense_1_Filter.c **** *  Initializes the Median filter.
1066:Generated_Source\PSoC4/CapSense_1_Filter.c **** *
1067:Generated_Source\PSoC4/CapSense_1_Filter.c **** * \details
1068:Generated_Source\PSoC4/CapSense_1_Filter.c **** *  Initializes the Median filter.
1069:Generated_Source\PSoC4/CapSense_1_Filter.c **** *
1070:Generated_Source\PSoC4/CapSense_1_Filter.c **** * \param ptrFilterHistObj
1071:Generated_Source\PSoC4/CapSense_1_Filter.c **** *  The pointer to the filter RAM object of the sensor.
1072:Generated_Source\PSoC4/CapSense_1_Filter.c **** *
1073:Generated_Source\PSoC4/CapSense_1_Filter.c **** * \param ptrSensorObj
1074:Generated_Source\PSoC4/CapSense_1_Filter.c **** *  The pointer to the sensor RAM object of the sensor.
1075:Generated_Source\PSoC4/CapSense_1_Filter.c **** *
1076:Generated_Source\PSoC4/CapSense_1_Filter.c **** * \param wdType
1077:Generated_Source\PSoC4/CapSense_1_Filter.c **** *  Specifies the type of a widget.
1078:Generated_Source\PSoC4/CapSense_1_Filter.c **** *
1079:Generated_Source\PSoC4/CapSense_1_Filter.c **** *******************************************************************************/
1080:Generated_Source\PSoC4/CapSense_1_Filter.c **** void CapSense_1_InitializeMedianInternal(CapSense_1_PTR_FILTER_VARIANT ptrFilterHistObj,
1081:Generated_Source\PSoC4/CapSense_1_Filter.c ****                                                CapSense_1_RAM_SNS_STRUCT *ptrSensorObj, uint32 wdTy
1082:Generated_Source\PSoC4/CapSense_1_Filter.c **** {
 385              		.loc 1 1082 0
 386              		.cfi_startproc
 387              		@ args = 0, pretend = 0, frame = 0
 388              		@ frame_needed = 0, uses_anonymous_args = 0
 389              	.LVL51:
 390 0000 F0B5     		push	{r4, r5, r6, r7, lr}
 391              		.cfi_def_cfa_offset 20
 392              		.cfi_offset 4, -20
 393              		.cfi_offset 5, -16
 394              		.cfi_offset 6, -12
 395              		.cfi_offset 7, -8
 396              		.cfi_offset 14, -4
 397              	.LVL52:
1083:Generated_Source\PSoC4/CapSense_1_Filter.c ****     uint32 freqChannel;
1084:Generated_Source\PSoC4/CapSense_1_Filter.c **** 
1085:Generated_Source\PSoC4/CapSense_1_Filter.c ****     for(freqChannel = CapSense_1_NUM_SCAN_FREQS; freqChannel-- > 0u;)
 398              		.loc 1 1085 0
 399 0002 0123     		movs	r3, #1
 400 0004 0CE0     		b	.L26
 401              	.LVL53:
 402              	.L28:
1086:Generated_Source\PSoC4/CapSense_1_Filter.c ****     {
1087:Generated_Source\PSoC4/CapSense_1_Filter.c ****         if ((CapSense_1_WD_TYPE_ENUM)wdType != CapSense_1_WD_PROXIMITY_E)
 403              		.loc 1 1087 0
 404 0006 FF23     		movs	r3, #255
 405 0008 1340     		ands	r3, r2
 406 000a 062B     		cmp	r3, #6
 407 000c 07D0     		beq	.L27
1088:Generated_Source\PSoC4/CapSense_1_Filter.c ****         {
1089:Generated_Source\PSoC4/CapSense_1_Filter.c ****             #if (CapSense_1_REGULAR_SENSOR_EN && CapSense_1_REGULAR_RC_MEDIAN_FILTER_EN)
1090:Generated_Source\PSoC4/CapSense_1_Filter.c ****                 ptrFilterHistObj.ptrRegular->regularChannel[freqChannel].medHistory[0u] = ptrSensor
 408              		.loc 1 1090 0
 409 000e 6500     		lsls	r5, r4, #1
 410 0010 6F5A     		ldrh	r7, [r5, r1]
 411 0012 2E19     		adds	r6, r5, r4
 412 0014 B300     		lsls	r3, r6, #2
 413 0016 C318     		adds	r3, r0, r3
 414 0018 5F80     		strh	r7, [r3, #2]
1091:Generated_Source\PSoC4/CapSense_1_Filter.c ****                 ptrFilterHistObj.ptrRegular->regularChannel[freqChannel].medHistory[1u] = ptrSensor
ARM GAS  C:\Users\Mayur\AppData\Local\Temp\ccxZLytu.s 			page 28


 415              		.loc 1 1091 0
 416 001a 6D5A     		ldrh	r5, [r5, r1]
 417 001c 9D80     		strh	r5, [r3, #4]
 418              	.L27:
1082:Generated_Source\PSoC4/CapSense_1_Filter.c ****     uint32 freqChannel;
 419              		.loc 1 1082 0 discriminator 1
 420 001e 2300     		movs	r3, r4
 421              	.LVL54:
 422              	.L26:
1085:Generated_Source\PSoC4/CapSense_1_Filter.c ****     {
 423              		.loc 1 1085 0 discriminator 1
 424 0020 5C1E     		subs	r4, r3, #1
 425              	.LVL55:
 426 0022 002B     		cmp	r3, #0
 427 0024 EFD1     		bne	.L28
1092:Generated_Source\PSoC4/CapSense_1_Filter.c ****             #endif /* (CapSense_1_REGULAR_SENSOR_EN) */
1093:Generated_Source\PSoC4/CapSense_1_Filter.c ****         }
1094:Generated_Source\PSoC4/CapSense_1_Filter.c ****         else
1095:Generated_Source\PSoC4/CapSense_1_Filter.c ****         {
1096:Generated_Source\PSoC4/CapSense_1_Filter.c ****             #if (CapSense_1_PROXIMITY_SENSOR_EN && CapSense_1_PROX_RC_MEDIAN_FILTER_EN)
1097:Generated_Source\PSoC4/CapSense_1_Filter.c ****                 ptrFilterHistObj.ptrProx->proxChannel[freqChannel].medHistory[0u] = ptrSensorObj->r
1098:Generated_Source\PSoC4/CapSense_1_Filter.c ****                 ptrFilterHistObj.ptrProx->proxChannel[freqChannel].medHistory[1u] = ptrSensorObj->r
1099:Generated_Source\PSoC4/CapSense_1_Filter.c ****             #endif /* (CapSense_1_PROXIMITY_SENSOR_EN) */
1100:Generated_Source\PSoC4/CapSense_1_Filter.c ****         }
1101:Generated_Source\PSoC4/CapSense_1_Filter.c ****     }
1102:Generated_Source\PSoC4/CapSense_1_Filter.c **** }
 428              		.loc 1 1102 0
 429              		@ sp needed
 430              	.LVL56:
 431 0026 F0BD     		pop	{r4, r5, r6, r7, pc}
 432              		.cfi_endproc
 433              	.LFE18:
 434              		.size	CapSense_1_InitializeMedianInternal, .-CapSense_1_InitializeMedianInternal
 435              		.section	.text.CapSense_1_InitializeMedian,"ax",%progbits
 436              		.align	2
 437              		.global	CapSense_1_InitializeMedian
 438              		.code	16
 439              		.thumb_func
 440              		.type	CapSense_1_InitializeMedian, %function
 441              	CapSense_1_InitializeMedian:
 442              	.LFB16:
 982:Generated_Source\PSoC4/CapSense_1_Filter.c ****     CapSense_1_FLASH_WD_STRUCT const *ptrWidget = &CapSense_1_dsFlash.wdgtArray[widgetId];
 443              		.loc 1 982 0
 444              		.cfi_startproc
 445              		@ args = 0, pretend = 0, frame = 0
 446              		@ frame_needed = 0, uses_anonymous_args = 0
 447              	.LVL57:
 448 0000 70B5     		push	{r4, r5, r6, lr}
 449              		.cfi_def_cfa_offset 16
 450              		.cfi_offset 4, -16
 451              		.cfi_offset 5, -12
 452              		.cfi_offset 6, -8
 453              		.cfi_offset 14, -4
 454 0002 0C00     		movs	r4, r1
 455              	.LVL58:
 988:Generated_Source\PSoC4/CapSense_1_Filter.c ****     ptrSensor = &ptrSensor[sensorId];
 456              		.loc 1 988 0
ARM GAS  C:\Users\Mayur\AppData\Local\Temp\ccxZLytu.s 			page 29


 457 0004 4001     		lsls	r0, r0, #5
 458              	.LVL59:
 459 0006 0A4B     		ldr	r3, .L31
 460 0008 1B18     		adds	r3, r3, r0
 461              	.LVL60:
 989:Generated_Source\PSoC4/CapSense_1_Filter.c **** 
 462              		.loc 1 989 0
 463 000a 8A00     		lsls	r2, r1, #2
 464 000c 5218     		adds	r2, r2, r1
 465 000e 5100     		lsls	r1, r2, #1
 466              	.LVL61:
 467 0010 9A68     		ldr	r2, [r3, #8]
 468 0012 9446     		mov	ip, r2
 469 0014 6144     		add	r1, r1, ip
 470              	.LVL62:
 992:Generated_Source\PSoC4/CapSense_1_Filter.c **** 
 471              		.loc 1 992 0
 472 0016 DD68     		ldr	r5, [r3, #12]
 473 0018 2800     		movs	r0, r5
 474              	.LVL63:
 994:Generated_Source\PSoC4/CapSense_1_Filter.c ****     {
 475              		.loc 1 994 0
 476 001a 9A7E     		ldrb	r2, [r3, #26]
 477 001c 062A     		cmp	r2, #6
 478 001e 03D0     		beq	.L30
 997:Generated_Source\PSoC4/CapSense_1_Filter.c ****         #endif /* (CapSense_1_REGULAR_SENSOR_EN) */
 479              		.loc 1 997 0
 480 0020 6300     		lsls	r3, r4, #1
 481              	.LVL64:
 482 0022 1C19     		adds	r4, r3, r4
 483              	.LVL65:
 484 0024 A000     		lsls	r0, r4, #2
 485 0026 2818     		adds	r0, r5, r0
 486              	.L30:
1007:Generated_Source\PSoC4/CapSense_1_Filter.c **** }
 487              		.loc 1 1007 0
 488 0028 FFF7FEFF 		bl	CapSense_1_InitializeMedianInternal
 489              	.LVL66:
1008:Generated_Source\PSoC4/CapSense_1_Filter.c **** 
 490              		.loc 1 1008 0
 491              		@ sp needed
 492 002c 70BD     		pop	{r4, r5, r6, pc}
 493              	.L32:
 494 002e C046     		.align	2
 495              	.L31:
 496 0030 00000000 		.word	CapSense_1_dsFlash
 497              		.cfi_endproc
 498              	.LFE16:
 499              		.size	CapSense_1_InitializeMedian, .-CapSense_1_InitializeMedian
 500              		.section	.text.CapSense_1_InitializeAverageInternal,"ax",%progbits
 501              		.align	2
 502              		.global	CapSense_1_InitializeAverageInternal
 503              		.code	16
 504              		.thumb_func
 505              		.type	CapSense_1_InitializeAverageInternal, %function
 506              	CapSense_1_InitializeAverageInternal:
 507              	.LFB22:
ARM GAS  C:\Users\Mayur\AppData\Local\Temp\ccxZLytu.s 			page 30


1103:Generated_Source\PSoC4/CapSense_1_Filter.c **** 
1104:Generated_Source\PSoC4/CapSense_1_Filter.c **** 
1105:Generated_Source\PSoC4/CapSense_1_Filter.c **** /*******************************************************************************
1106:Generated_Source\PSoC4/CapSense_1_Filter.c **** * Function Name: CapSense_1_RunMedianInternal
1107:Generated_Source\PSoC4/CapSense_1_Filter.c **** ****************************************************************************//**
1108:Generated_Source\PSoC4/CapSense_1_Filter.c **** *
1109:Generated_Source\PSoC4/CapSense_1_Filter.c **** * \brief
1110:Generated_Source\PSoC4/CapSense_1_Filter.c **** *  Runs the Median filter.
1111:Generated_Source\PSoC4/CapSense_1_Filter.c **** *
1112:Generated_Source\PSoC4/CapSense_1_Filter.c **** * \details
1113:Generated_Source\PSoC4/CapSense_1_Filter.c **** *  Runs the Median filter.
1114:Generated_Source\PSoC4/CapSense_1_Filter.c **** *
1115:Generated_Source\PSoC4/CapSense_1_Filter.c **** * \param ptrFilterHistObj
1116:Generated_Source\PSoC4/CapSense_1_Filter.c **** *  The pointer to the filter RAM object of the sensor.
1117:Generated_Source\PSoC4/CapSense_1_Filter.c **** *
1118:Generated_Source\PSoC4/CapSense_1_Filter.c **** * \param ptrSensorObj
1119:Generated_Source\PSoC4/CapSense_1_Filter.c **** *  The pointer to the sensor RAM object of the sensor.
1120:Generated_Source\PSoC4/CapSense_1_Filter.c **** *
1121:Generated_Source\PSoC4/CapSense_1_Filter.c **** * \param wdType
1122:Generated_Source\PSoC4/CapSense_1_Filter.c **** *  Specifies the type of a widget.
1123:Generated_Source\PSoC4/CapSense_1_Filter.c **** *
1124:Generated_Source\PSoC4/CapSense_1_Filter.c **** *******************************************************************************/
1125:Generated_Source\PSoC4/CapSense_1_Filter.c **** void CapSense_1_RunMedianInternal(CapSense_1_PTR_FILTER_VARIANT ptrFilterHistObj,
1126:Generated_Source\PSoC4/CapSense_1_Filter.c ****                                         CapSense_1_RAM_SNS_STRUCT *ptrSensorObj, uint32 wdType)
1127:Generated_Source\PSoC4/CapSense_1_Filter.c **** {
1128:Generated_Source\PSoC4/CapSense_1_Filter.c ****     uint32 freqChannel;
1129:Generated_Source\PSoC4/CapSense_1_Filter.c **** 
1130:Generated_Source\PSoC4/CapSense_1_Filter.c ****     #if ((CapSense_1_REGULAR_SENSOR_EN && CapSense_1_REGULAR_RC_MEDIAN_FILTER_EN) || \
1131:Generated_Source\PSoC4/CapSense_1_Filter.c ****          (CapSense_1_PROXIMITY_SENSOR_EN && CapSense_1_PROX_RC_MEDIAN_FILTER_EN))
1132:Generated_Source\PSoC4/CapSense_1_Filter.c ****         uint32 temp;
1133:Generated_Source\PSoC4/CapSense_1_Filter.c ****     #endif
1134:Generated_Source\PSoC4/CapSense_1_Filter.c **** 
1135:Generated_Source\PSoC4/CapSense_1_Filter.c ****     for(freqChannel = CapSense_1_NUM_SCAN_FREQS; freqChannel-- > 0u;)
1136:Generated_Source\PSoC4/CapSense_1_Filter.c ****     {
1137:Generated_Source\PSoC4/CapSense_1_Filter.c ****         if ((CapSense_1_WD_TYPE_ENUM)wdType != CapSense_1_WD_PROXIMITY_E)
1138:Generated_Source\PSoC4/CapSense_1_Filter.c ****         {
1139:Generated_Source\PSoC4/CapSense_1_Filter.c ****             #if (CapSense_1_REGULAR_SENSOR_EN && CapSense_1_REGULAR_RC_MEDIAN_FILTER_EN)
1140:Generated_Source\PSoC4/CapSense_1_Filter.c ****                 temp = CapSense_1_FtMedian((uint32)ptrSensorObj->raw[freqChannel],\
1141:Generated_Source\PSoC4/CapSense_1_Filter.c ****                                                  (uint32)ptrFilterHistObj.ptrRegular->regularChanne
1142:Generated_Source\PSoC4/CapSense_1_Filter.c ****                                                  (uint32)ptrFilterHistObj.ptrRegular->regularChanne
1143:Generated_Source\PSoC4/CapSense_1_Filter.c ****                 ptrFilterHistObj.ptrRegular->regularChannel[freqChannel].medHistory[1u] = \
1144:Generated_Source\PSoC4/CapSense_1_Filter.c ****                 ptrFilterHistObj.ptrRegular->regularChannel[freqChannel].medHistory[0u];
1145:Generated_Source\PSoC4/CapSense_1_Filter.c ****                 ptrFilterHistObj.ptrRegular->regularChannel[freqChannel].medHistory[0u] = ptrSensor
1146:Generated_Source\PSoC4/CapSense_1_Filter.c ****                 ptrSensorObj->raw[freqChannel] = LO16(temp);
1147:Generated_Source\PSoC4/CapSense_1_Filter.c ****             #endif /* (CapSense_1_REGULAR_SENSOR_EN) */
1148:Generated_Source\PSoC4/CapSense_1_Filter.c ****         }
1149:Generated_Source\PSoC4/CapSense_1_Filter.c ****         else
1150:Generated_Source\PSoC4/CapSense_1_Filter.c ****         {
1151:Generated_Source\PSoC4/CapSense_1_Filter.c ****             #if (CapSense_1_PROXIMITY_SENSOR_EN && CapSense_1_PROX_RC_MEDIAN_FILTER_EN)
1152:Generated_Source\PSoC4/CapSense_1_Filter.c ****                 temp = CapSense_1_FtMedian((uint32)ptrSensorObj->raw[freqChannel],\
1153:Generated_Source\PSoC4/CapSense_1_Filter.c ****                                                  (uint32)ptrFilterHistObj.ptrProx->proxChannel[freq
1154:Generated_Source\PSoC4/CapSense_1_Filter.c ****                                                  (uint32)ptrFilterHistObj.ptrProx->proxChannel[freq
1155:Generated_Source\PSoC4/CapSense_1_Filter.c ****                 ptrFilterHistObj.ptrProx->proxChannel[freqChannel].medHistory[1u] = \
1156:Generated_Source\PSoC4/CapSense_1_Filter.c ****                 ptrFilterHistObj.ptrProx->proxChannel[freqChannel].medHistory[0u];
1157:Generated_Source\PSoC4/CapSense_1_Filter.c ****                 ptrFilterHistObj.ptrProx->proxChannel[freqChannel].medHistory[0u] = ptrSensorObj->r
1158:Generated_Source\PSoC4/CapSense_1_Filter.c ****                 ptrSensorObj->raw[freqChannel] = LO16(temp);
1159:Generated_Source\PSoC4/CapSense_1_Filter.c ****             #endif /* (CapSense_1_PROXIMITY_SENSOR_EN) */
ARM GAS  C:\Users\Mayur\AppData\Local\Temp\ccxZLytu.s 			page 31


1160:Generated_Source\PSoC4/CapSense_1_Filter.c ****         }
1161:Generated_Source\PSoC4/CapSense_1_Filter.c ****     }
1162:Generated_Source\PSoC4/CapSense_1_Filter.c **** }
1163:Generated_Source\PSoC4/CapSense_1_Filter.c **** #endif /* (CapSense_1_REGULAR_RC_MEDIAN_FILTER_EN || CapSense_1_PROX_RC_MEDIAN_FILTER_EN) */
1164:Generated_Source\PSoC4/CapSense_1_Filter.c **** 
1165:Generated_Source\PSoC4/CapSense_1_Filter.c **** 
1166:Generated_Source\PSoC4/CapSense_1_Filter.c **** #if (CapSense_1_REGULAR_RC_AVERAGE_FILTER_EN || CapSense_1_PROX_RC_AVERAGE_FILTER_EN)
1167:Generated_Source\PSoC4/CapSense_1_Filter.c **** 
1168:Generated_Source\PSoC4/CapSense_1_Filter.c **** /*******************************************************************************
1169:Generated_Source\PSoC4/CapSense_1_Filter.c **** * Function Name: CapSense_1_InitializeAverage
1170:Generated_Source\PSoC4/CapSense_1_Filter.c **** ****************************************************************************//**
1171:Generated_Source\PSoC4/CapSense_1_Filter.c **** *
1172:Generated_Source\PSoC4/CapSense_1_Filter.c **** * \brief
1173:Generated_Source\PSoC4/CapSense_1_Filter.c **** *  Initializes the average filter history.
1174:Generated_Source\PSoC4/CapSense_1_Filter.c **** *
1175:Generated_Source\PSoC4/CapSense_1_Filter.c **** * \details
1176:Generated_Source\PSoC4/CapSense_1_Filter.c **** *  Initializes the average filter history.
1177:Generated_Source\PSoC4/CapSense_1_Filter.c **** *
1178:Generated_Source\PSoC4/CapSense_1_Filter.c **** * \param widgetId
1179:Generated_Source\PSoC4/CapSense_1_Filter.c **** *  Specifies the ID number of the widget.
1180:Generated_Source\PSoC4/CapSense_1_Filter.c **** *
1181:Generated_Source\PSoC4/CapSense_1_Filter.c **** * \param sensorId
1182:Generated_Source\PSoC4/CapSense_1_Filter.c **** *  Specifies the ID number of the sensor in the widget.
1183:Generated_Source\PSoC4/CapSense_1_Filter.c **** *
1184:Generated_Source\PSoC4/CapSense_1_Filter.c **** *******************************************************************************/
1185:Generated_Source\PSoC4/CapSense_1_Filter.c **** void CapSense_1_InitializeAverage(uint32 widgetId, uint32 sensorId)
1186:Generated_Source\PSoC4/CapSense_1_Filter.c **** {
1187:Generated_Source\PSoC4/CapSense_1_Filter.c ****     CapSense_1_FLASH_WD_STRUCT const *ptrWidget = &CapSense_1_dsFlash.wdgtArray[widgetId];
1188:Generated_Source\PSoC4/CapSense_1_Filter.c ****     CapSense_1_RAM_SNS_STRUCT *ptrSensor = NULL;
1189:Generated_Source\PSoC4/CapSense_1_Filter.c ****     CapSense_1_PTR_FILTER_VARIANT ptrFilterHistObj;
1190:Generated_Source\PSoC4/CapSense_1_Filter.c **** 
1191:Generated_Source\PSoC4/CapSense_1_Filter.c ****     /* Find pointer to specified sensor object */
1192:Generated_Source\PSoC4/CapSense_1_Filter.c ****     ptrSensor = ptrWidget->ptr2SnsRam;
1193:Generated_Source\PSoC4/CapSense_1_Filter.c ****     ptrSensor = &ptrSensor[sensorId];
1194:Generated_Source\PSoC4/CapSense_1_Filter.c **** 
1195:Generated_Source\PSoC4/CapSense_1_Filter.c ****     /* Find pointer to specified filter sensor object */
1196:Generated_Source\PSoC4/CapSense_1_Filter.c ****     ptrFilterHistObj.ptr = ptrWidget->ptr2FltrHistory;
1197:Generated_Source\PSoC4/CapSense_1_Filter.c **** 
1198:Generated_Source\PSoC4/CapSense_1_Filter.c ****     if ((CapSense_1_WD_TYPE_ENUM)ptrWidget->wdgtType != CapSense_1_WD_PROXIMITY_E)
1199:Generated_Source\PSoC4/CapSense_1_Filter.c ****     {
1200:Generated_Source\PSoC4/CapSense_1_Filter.c ****         #if (CapSense_1_REGULAR_SENSOR_EN)
1201:Generated_Source\PSoC4/CapSense_1_Filter.c ****             ptrFilterHistObj.ptrRegular = &ptrFilterHistObj.ptrRegular[sensorId];
1202:Generated_Source\PSoC4/CapSense_1_Filter.c ****         #endif /* (CapSense_1_REGULAR_SENSOR_EN) */
1203:Generated_Source\PSoC4/CapSense_1_Filter.c ****     }
1204:Generated_Source\PSoC4/CapSense_1_Filter.c ****     else
1205:Generated_Source\PSoC4/CapSense_1_Filter.c ****     {
1206:Generated_Source\PSoC4/CapSense_1_Filter.c ****         #if (CapSense_1_PROXIMITY_SENSOR_EN)
1207:Generated_Source\PSoC4/CapSense_1_Filter.c ****             ptrFilterHistObj.ptrProx = &ptrFilterHistObj.ptrProx[sensorId];
1208:Generated_Source\PSoC4/CapSense_1_Filter.c ****         #endif /* (CapSense_1_PROXIMITY_SENSOR_EN) */
1209:Generated_Source\PSoC4/CapSense_1_Filter.c ****     }
1210:Generated_Source\PSoC4/CapSense_1_Filter.c **** 
1211:Generated_Source\PSoC4/CapSense_1_Filter.c ****     CapSense_1_InitializeAverageInternal(ptrFilterHistObj, ptrSensor, (uint32)ptrWidget->wdgtType);
1212:Generated_Source\PSoC4/CapSense_1_Filter.c **** }
1213:Generated_Source\PSoC4/CapSense_1_Filter.c **** 
1214:Generated_Source\PSoC4/CapSense_1_Filter.c **** 
1215:Generated_Source\PSoC4/CapSense_1_Filter.c **** /*******************************************************************************
1216:Generated_Source\PSoC4/CapSense_1_Filter.c **** * Function Name: CapSense_1_RunAverage
ARM GAS  C:\Users\Mayur\AppData\Local\Temp\ccxZLytu.s 			page 32


1217:Generated_Source\PSoC4/CapSense_1_Filter.c **** ****************************************************************************//**
1218:Generated_Source\PSoC4/CapSense_1_Filter.c **** *
1219:Generated_Source\PSoC4/CapSense_1_Filter.c **** * \brief
1220:Generated_Source\PSoC4/CapSense_1_Filter.c **** *  Executes the average filter algorithm on a sensor indicated by an input
1221:Generated_Source\PSoC4/CapSense_1_Filter.c **** *  parameter.
1222:Generated_Source\PSoC4/CapSense_1_Filter.c **** *
1223:Generated_Source\PSoC4/CapSense_1_Filter.c **** * \details
1224:Generated_Source\PSoC4/CapSense_1_Filter.c **** *  Executes the average filter algorithm on a sensor indicated by an input
1225:Generated_Source\PSoC4/CapSense_1_Filter.c **** *  parameter.
1226:Generated_Source\PSoC4/CapSense_1_Filter.c **** *
1227:Generated_Source\PSoC4/CapSense_1_Filter.c **** * \param widgetId
1228:Generated_Source\PSoC4/CapSense_1_Filter.c **** *  Specifies the ID number of the widget.
1229:Generated_Source\PSoC4/CapSense_1_Filter.c **** *
1230:Generated_Source\PSoC4/CapSense_1_Filter.c **** * \param sensorId
1231:Generated_Source\PSoC4/CapSense_1_Filter.c **** *  Specifies the ID number of the sensor in the widget.
1232:Generated_Source\PSoC4/CapSense_1_Filter.c **** *
1233:Generated_Source\PSoC4/CapSense_1_Filter.c **** *******************************************************************************/
1234:Generated_Source\PSoC4/CapSense_1_Filter.c **** void CapSense_1_RunAverage(uint32 widgetId, uint32 sensorId)
1235:Generated_Source\PSoC4/CapSense_1_Filter.c **** {
1236:Generated_Source\PSoC4/CapSense_1_Filter.c ****     CapSense_1_FLASH_WD_STRUCT const *ptrWidget = &CapSense_1_dsFlash.wdgtArray[widgetId];
1237:Generated_Source\PSoC4/CapSense_1_Filter.c ****     CapSense_1_RAM_SNS_STRUCT *ptrSensor = NULL;
1238:Generated_Source\PSoC4/CapSense_1_Filter.c ****     CapSense_1_PTR_FILTER_VARIANT ptrFilterHistObj;
1239:Generated_Source\PSoC4/CapSense_1_Filter.c **** 
1240:Generated_Source\PSoC4/CapSense_1_Filter.c ****     /* Find pointer to specified sensor object */
1241:Generated_Source\PSoC4/CapSense_1_Filter.c ****     ptrSensor = ptrWidget->ptr2SnsRam;
1242:Generated_Source\PSoC4/CapSense_1_Filter.c ****     ptrSensor = &ptrSensor[sensorId];
1243:Generated_Source\PSoC4/CapSense_1_Filter.c **** 
1244:Generated_Source\PSoC4/CapSense_1_Filter.c ****     /* Find pointer to specified filter sensor object */
1245:Generated_Source\PSoC4/CapSense_1_Filter.c ****     ptrFilterHistObj.ptr = ptrWidget->ptr2FltrHistory;
1246:Generated_Source\PSoC4/CapSense_1_Filter.c **** 
1247:Generated_Source\PSoC4/CapSense_1_Filter.c ****     if ((CapSense_1_WD_TYPE_ENUM)ptrWidget->wdgtType != CapSense_1_WD_PROXIMITY_E)
1248:Generated_Source\PSoC4/CapSense_1_Filter.c ****     {
1249:Generated_Source\PSoC4/CapSense_1_Filter.c ****         #if (CapSense_1_REGULAR_SENSOR_EN)
1250:Generated_Source\PSoC4/CapSense_1_Filter.c ****             ptrFilterHistObj.ptrRegular = &ptrFilterHistObj.ptrRegular[sensorId];
1251:Generated_Source\PSoC4/CapSense_1_Filter.c ****         #endif /* (CapSense_1_REGULAR_SENSOR_EN) */
1252:Generated_Source\PSoC4/CapSense_1_Filter.c ****     }
1253:Generated_Source\PSoC4/CapSense_1_Filter.c ****     else
1254:Generated_Source\PSoC4/CapSense_1_Filter.c ****     {
1255:Generated_Source\PSoC4/CapSense_1_Filter.c ****         #if (CapSense_1_PROXIMITY_SENSOR_EN)
1256:Generated_Source\PSoC4/CapSense_1_Filter.c ****             ptrFilterHistObj.ptrProx = &ptrFilterHistObj.ptrProx[sensorId];
1257:Generated_Source\PSoC4/CapSense_1_Filter.c ****         #endif /* (CapSense_1_PROXIMITY_SENSOR_EN) */
1258:Generated_Source\PSoC4/CapSense_1_Filter.c ****     }
1259:Generated_Source\PSoC4/CapSense_1_Filter.c **** 
1260:Generated_Source\PSoC4/CapSense_1_Filter.c ****     CapSense_1_RunAverageInternal(ptrFilterHistObj, ptrSensor, (uint32)ptrWidget->wdgtType);
1261:Generated_Source\PSoC4/CapSense_1_Filter.c **** }
1262:Generated_Source\PSoC4/CapSense_1_Filter.c **** 
1263:Generated_Source\PSoC4/CapSense_1_Filter.c **** 
1264:Generated_Source\PSoC4/CapSense_1_Filter.c **** /*******************************************************************************
1265:Generated_Source\PSoC4/CapSense_1_Filter.c **** * Function Name: CapSense_1_InitializeAverageInternal
1266:Generated_Source\PSoC4/CapSense_1_Filter.c **** ****************************************************************************//**
1267:Generated_Source\PSoC4/CapSense_1_Filter.c **** *
1268:Generated_Source\PSoC4/CapSense_1_Filter.c **** * \brief
1269:Generated_Source\PSoC4/CapSense_1_Filter.c **** *  Initializes the average filter.
1270:Generated_Source\PSoC4/CapSense_1_Filter.c **** *
1271:Generated_Source\PSoC4/CapSense_1_Filter.c **** * \details
1272:Generated_Source\PSoC4/CapSense_1_Filter.c **** *  Initializes the average filter.
1273:Generated_Source\PSoC4/CapSense_1_Filter.c **** *
ARM GAS  C:\Users\Mayur\AppData\Local\Temp\ccxZLytu.s 			page 33


1274:Generated_Source\PSoC4/CapSense_1_Filter.c **** * \param ptrFilterHistObj
1275:Generated_Source\PSoC4/CapSense_1_Filter.c **** *  The pointer to the filter RAM object of the sensor.
1276:Generated_Source\PSoC4/CapSense_1_Filter.c **** *
1277:Generated_Source\PSoC4/CapSense_1_Filter.c **** * \param ptrSensorObj
1278:Generated_Source\PSoC4/CapSense_1_Filter.c **** *  The pointer to the sensor RAM object of the sensor.
1279:Generated_Source\PSoC4/CapSense_1_Filter.c **** *
1280:Generated_Source\PSoC4/CapSense_1_Filter.c **** * \param wdType
1281:Generated_Source\PSoC4/CapSense_1_Filter.c **** *  Specifies the type of a widget.
1282:Generated_Source\PSoC4/CapSense_1_Filter.c **** *
1283:Generated_Source\PSoC4/CapSense_1_Filter.c **** *******************************************************************************/
1284:Generated_Source\PSoC4/CapSense_1_Filter.c **** void CapSense_1_InitializeAverageInternal(CapSense_1_PTR_FILTER_VARIANT ptrFilterHistObj,\
1285:Generated_Source\PSoC4/CapSense_1_Filter.c ****                                                   CapSense_1_RAM_SNS_STRUCT *ptrSensorObj, uint32 w
1286:Generated_Source\PSoC4/CapSense_1_Filter.c **** {
 508              		.loc 1 1286 0
 509              		.cfi_startproc
 510              		@ args = 0, pretend = 0, frame = 0
 511              		@ frame_needed = 0, uses_anonymous_args = 0
 512              	.LVL67:
 513 0000 F0B5     		push	{r4, r5, r6, r7, lr}
 514              		.cfi_def_cfa_offset 20
 515              		.cfi_offset 4, -20
 516              		.cfi_offset 5, -16
 517              		.cfi_offset 6, -12
 518              		.cfi_offset 7, -8
 519              		.cfi_offset 14, -4
 520              	.LVL68:
1287:Generated_Source\PSoC4/CapSense_1_Filter.c ****     uint32 freqChannel;
1288:Generated_Source\PSoC4/CapSense_1_Filter.c **** 
1289:Generated_Source\PSoC4/CapSense_1_Filter.c ****     for(freqChannel = CapSense_1_NUM_SCAN_FREQS; freqChannel-- > 0u;)
 521              		.loc 1 1289 0
 522 0002 0123     		movs	r3, #1
 523 0004 0EE0     		b	.L34
 524              	.LVL69:
 525              	.L36:
1290:Generated_Source\PSoC4/CapSense_1_Filter.c ****     {
1291:Generated_Source\PSoC4/CapSense_1_Filter.c ****         if ((CapSense_1_WD_TYPE_ENUM)wdType != CapSense_1_WD_PROXIMITY_E)
 526              		.loc 1 1291 0
 527 0006 FF23     		movs	r3, #255
 528 0008 1340     		ands	r3, r2
 529 000a 062B     		cmp	r3, #6
 530 000c 09D0     		beq	.L35
1292:Generated_Source\PSoC4/CapSense_1_Filter.c ****         {
1293:Generated_Source\PSoC4/CapSense_1_Filter.c ****             #if (CapSense_1_REGULAR_SENSOR_EN && CapSense_1_REGULAR_RC_AVERAGE_FILTER_EN)
1294:Generated_Source\PSoC4/CapSense_1_Filter.c ****                 ptrFilterHistObj.ptrRegular->regularChannel[freqChannel].avgHistory[0] = ptrSensorO
 531              		.loc 1 1294 0
 532 000e 6500     		lsls	r5, r4, #1
 533 0010 6F5A     		ldrh	r7, [r5, r1]
 534 0012 2E19     		adds	r6, r5, r4
 535 0014 B300     		lsls	r3, r6, #2
 536 0016 C318     		adds	r3, r0, r3
 537 0018 DF80     		strh	r7, [r3, #6]
1295:Generated_Source\PSoC4/CapSense_1_Filter.c ****                 #if (CapSense_1_REGULAR_AVERAGE_LEN == CapSense_1_AVERAGE_FILTER_LEN_4)
1296:Generated_Source\PSoC4/CapSense_1_Filter.c ****                     ptrFilterHistObj.ptrRegular->regularChannel[freqChannel].avgHistory[1u] = ptrSe
 538              		.loc 1 1296 0
 539 001a 6E5A     		ldrh	r6, [r5, r1]
 540 001c 1E81     		strh	r6, [r3, #8]
1297:Generated_Source\PSoC4/CapSense_1_Filter.c ****                     ptrFilterHistObj.ptrRegular->regularChannel[freqChannel].avgHistory[2u] = ptrSe
ARM GAS  C:\Users\Mayur\AppData\Local\Temp\ccxZLytu.s 			page 34


 541              		.loc 1 1297 0
 542 001e 6D5A     		ldrh	r5, [r5, r1]
 543 0020 5D81     		strh	r5, [r3, #10]
 544              	.L35:
1286:Generated_Source\PSoC4/CapSense_1_Filter.c ****     uint32 freqChannel;
 545              		.loc 1 1286 0 discriminator 1
 546 0022 2300     		movs	r3, r4
 547              	.LVL70:
 548              	.L34:
1289:Generated_Source\PSoC4/CapSense_1_Filter.c ****     {
 549              		.loc 1 1289 0 discriminator 1
 550 0024 5C1E     		subs	r4, r3, #1
 551              	.LVL71:
 552 0026 002B     		cmp	r3, #0
 553 0028 EDD1     		bne	.L36
1298:Generated_Source\PSoC4/CapSense_1_Filter.c ****                 #endif /* CapSense_1_REGULAR_AVERAGE_LEN == CapSense_1_AVERAGE_FILTER_LEN_4 */
1299:Generated_Source\PSoC4/CapSense_1_Filter.c ****             #endif /* (CapSense_1_REGULAR_SENSOR_EN) */
1300:Generated_Source\PSoC4/CapSense_1_Filter.c ****         }
1301:Generated_Source\PSoC4/CapSense_1_Filter.c ****         else
1302:Generated_Source\PSoC4/CapSense_1_Filter.c ****         {
1303:Generated_Source\PSoC4/CapSense_1_Filter.c ****             #if (CapSense_1_PROXIMITY_SENSOR_EN && CapSense_1_PROX_RC_AVERAGE_FILTER_EN)
1304:Generated_Source\PSoC4/CapSense_1_Filter.c ****                 ptrFilterHistObj.ptrProx->proxChannel[freqChannel].avgHistory[0] = ptrSensorObj->ra
1305:Generated_Source\PSoC4/CapSense_1_Filter.c ****                     #if (CapSense_1_PROX_AVERAGE_LEN == CapSense_1_AVERAGE_FILTER_LEN_4)
1306:Generated_Source\PSoC4/CapSense_1_Filter.c ****                         ptrFilterHistObj.ptrProx->proxChannel[freqChannel].avgHistory[1u] = ptrSens
1307:Generated_Source\PSoC4/CapSense_1_Filter.c ****                         ptrFilterHistObj.ptrProx->proxChannel[freqChannel].avgHistory[2u] = ptrSens
1308:Generated_Source\PSoC4/CapSense_1_Filter.c ****                     #endif /* CapSense_1_REGULAR_AVERAGE_LEN == CapSense_1_AVERAGE_FILTER_LEN_4 */
1309:Generated_Source\PSoC4/CapSense_1_Filter.c ****             #endif /* (CapSense_1_PROXIMITY_SENSOR_EN) */
1310:Generated_Source\PSoC4/CapSense_1_Filter.c ****         }
1311:Generated_Source\PSoC4/CapSense_1_Filter.c ****     }
1312:Generated_Source\PSoC4/CapSense_1_Filter.c **** }
 554              		.loc 1 1312 0
 555              		@ sp needed
 556              	.LVL72:
 557 002a F0BD     		pop	{r4, r5, r6, r7, pc}
 558              		.cfi_endproc
 559              	.LFE22:
 560              		.size	CapSense_1_InitializeAverageInternal, .-CapSense_1_InitializeAverageInternal
 561              		.section	.text.CapSense_1_InitializeWidgetFilter,"ax",%progbits
 562              		.align	2
 563              		.global	CapSense_1_InitializeWidgetFilter
 564              		.code	16
 565              		.thumb_func
 566              		.type	CapSense_1_InitializeWidgetFilter, %function
 567              	CapSense_1_InitializeWidgetFilter:
 568              	.LFB11:
 648:Generated_Source\PSoC4/CapSense_1_Filter.c ****     uint32 sensorId;
 569              		.loc 1 648 0
 570              		.cfi_startproc
 571              		@ args = 0, pretend = 0, frame = 0
 572              		@ frame_needed = 0, uses_anonymous_args = 0
 573              	.LVL73:
 574 0000 F0B5     		push	{r4, r5, r6, r7, lr}
 575              		.cfi_def_cfa_offset 20
 576              		.cfi_offset 4, -20
 577              		.cfi_offset 5, -16
 578              		.cfi_offset 6, -12
 579              		.cfi_offset 7, -8
ARM GAS  C:\Users\Mayur\AppData\Local\Temp\ccxZLytu.s 			page 35


 580              		.cfi_offset 14, -4
 581 0002 5746     		mov	r7, r10
 582 0004 4E46     		mov	r6, r9
 583 0006 4546     		mov	r5, r8
 584 0008 E0B4     		push	{r5, r6, r7}
 585              		.cfi_def_cfa_offset 32
 586              		.cfi_offset 8, -32
 587              		.cfi_offset 9, -28
 588              		.cfi_offset 10, -24
 589 000a 8046     		mov	r8, r0
 590              	.LVL74:
 666:Generated_Source\PSoC4/CapSense_1_Filter.c ****     #endif /* (0u != (CapSense_1_CSD_AUTOTUNE & CapSense_1_CSD_SS_TH_EN)) */
 591              		.loc 1 666 0
 592 000c 4301     		lsls	r3, r0, #5
 593 000e 1D4A     		ldr	r2, .L41
 594 0010 D318     		adds	r3, r2, r3
 595              	.LVL75:
 596 0012 5A68     		ldr	r2, [r3, #4]
 597 0014 9146     		mov	r9, r2
 598              	.LVL76:
 670:Generated_Source\PSoC4/CapSense_1_Filter.c **** 
 599              		.loc 1 670 0
 600 0016 1B8B     		ldrh	r3, [r3, #24]
 601              	.LVL77:
 672:Generated_Source\PSoC4/CapSense_1_Filter.c ****     {
 602              		.loc 1 672 0
 603 0018 2BE0     		b	.L38
 604              	.LVL78:
 605              	.L40:
 675:Generated_Source\PSoC4/CapSense_1_Filter.c ****         ptrSensor = &ptrSensor[sensorId];
 606              		.loc 1 675 0
 607 001a 4346     		mov	r3, r8
 608 001c 5A01     		lsls	r2, r3, #5
 609 001e 194B     		ldr	r3, .L41
 610 0020 9B18     		adds	r3, r3, r2
 611              	.LVL79:
 676:Generated_Source\PSoC4/CapSense_1_Filter.c **** 
 612              		.loc 1 676 0
 613 0022 AA00     		lsls	r2, r5, #2
 614 0024 5219     		adds	r2, r2, r5
 615 0026 5400     		lsls	r4, r2, #1
 616 0028 9A68     		ldr	r2, [r3, #8]
 617 002a 9446     		mov	ip, r2
 618 002c 6444     		add	r4, r4, ip
 619              	.LVL80:
 680:Generated_Source\PSoC4/CapSense_1_Filter.c ****         #endif
 620              		.loc 1 680 0
 621 002e D868     		ldr	r0, [r3, #12]
 622 0030 0600     		movs	r6, r0
 623              	.LVL81:
 686:Generated_Source\PSoC4/CapSense_1_Filter.c ****         #endif /* (0u != (CapSense_1_CSD_AUTOTUNE & CapSense_1_CSD_SS_TH_EN)) */
 624              		.loc 1 686 0
 625 0032 6A00     		lsls	r2, r5, #1
 626 0034 5219     		adds	r2, r2, r5
 627 0036 9100     		lsls	r1, r2, #2
 628 0038 DA69     		ldr	r2, [r3, #28]
 629 003a 9246     		mov	r10, r2
ARM GAS  C:\Users\Mayur\AppData\Local\Temp\ccxZLytu.s 			page 36


 630 003c 8A44     		add	r10, r10, r1
 631              	.LVL82:
 689:Generated_Source\PSoC4/CapSense_1_Filter.c ****         {
 632              		.loc 1 689 0
 633 003e 9F7E     		ldrb	r7, [r3, #26]
 634 0040 062F     		cmp	r7, #6
 635 0042 00D0     		beq	.L39
 694:Generated_Source\PSoC4/CapSense_1_Filter.c ****             #endif
 636              		.loc 1 694 0
 637 0044 4618     		adds	r6, r0, r1
 638              	.L39:
 707:Generated_Source\PSoC4/CapSense_1_Filter.c ****         #endif /* (CapSense_1_REGULAR_RC_IIR_FILTER_EN || CapSense_1_PROX_RC_IIR_FILTER_EN) */
 639              		.loc 1 707 0
 640 0046 3A00     		movs	r2, r7
 641 0048 2100     		movs	r1, r4
 642              	.LVL83:
 643 004a 3000     		movs	r0, r6
 644 004c FFF7FEFF 		bl	CapSense_1_InitializeIIRInternal
 645              	.LVL84:
 711:Generated_Source\PSoC4/CapSense_1_Filter.c ****         #endif /* (CapSense_1_REGULAR_RC_MEDIAN_FILTER_EN || CapSense_1_PROX_RC_MEDIAN_FILTER_EN) *
 646              		.loc 1 711 0
 647 0050 3A00     		movs	r2, r7
 648 0052 2100     		movs	r1, r4
 649 0054 3000     		movs	r0, r6
 650 0056 FFF7FEFF 		bl	CapSense_1_InitializeMedianInternal
 651              	.LVL85:
 715:Generated_Source\PSoC4/CapSense_1_Filter.c ****         #endif /* (CapSense_1_REGULAR_RC_AVERAGE_FILTER_EN || CapSense_1_PROX_RC_AVERAGE_FILTER_EN)
 652              		.loc 1 715 0
 653 005a 3A00     		movs	r2, r7
 654 005c 2100     		movs	r1, r4
 655 005e 3000     		movs	r0, r6
 656 0060 FFF7FEFF 		bl	CapSense_1_InitializeAverageInternal
 657              	.LVL86:
 726:Generated_Source\PSoC4/CapSense_1_Filter.c ****             }
 658              		.loc 1 726 0
 659 0064 4B46     		mov	r3, r9
 660 0066 198A     		ldrh	r1, [r3, #16]
 661 0068 2088     		ldrh	r0, [r4]
 662 006a 5246     		mov	r2, r10
 663 006c FFF7FEFF 		bl	SmartSense_InitializeNoiseEnvelope
 664              	.LVL87:
 672:Generated_Source\PSoC4/CapSense_1_Filter.c ****     {
 665              		.loc 1 672 0
 666 0070 2B00     		movs	r3, r5
 667              	.LVL88:
 668              	.L38:
 672:Generated_Source\PSoC4/CapSense_1_Filter.c ****     {
 669              		.loc 1 672 0 is_stmt 0 discriminator 1
 670 0072 5D1E     		subs	r5, r3, #1
 671              	.LVL89:
 672 0074 002B     		cmp	r3, #0
 673 0076 D0D1     		bne	.L40
 730:Generated_Source\PSoC4/CapSense_1_Filter.c **** #endif /* ((CapSense_1_ENABLE == CapSense_1_RC_FILTER_EN) || \
 674              		.loc 1 730 0 is_stmt 1
 675              		@ sp needed
 676              	.LVL90:
 677              	.LVL91:
ARM GAS  C:\Users\Mayur\AppData\Local\Temp\ccxZLytu.s 			page 37


 678              	.LVL92:
 679              	.LVL93:
 680 0078 1CBC     		pop	{r2, r3, r4}
 681 007a 9046     		mov	r8, r2
 682 007c 9946     		mov	r9, r3
 683 007e A246     		mov	r10, r4
 684 0080 F0BD     		pop	{r4, r5, r6, r7, pc}
 685              	.L42:
 686 0082 C046     		.align	2
 687              	.L41:
 688 0084 00000000 		.word	CapSense_1_dsFlash
 689              		.cfi_endproc
 690              	.LFE11:
 691              		.size	CapSense_1_InitializeWidgetFilter, .-CapSense_1_InitializeWidgetFilter
 692              		.section	.text.CapSense_1_InitializeAllFilters,"ax",%progbits
 693              		.align	2
 694              		.global	CapSense_1_InitializeAllFilters
 695              		.code	16
 696              		.thumb_func
 697              		.type	CapSense_1_InitializeAllFilters, %function
 698              	CapSense_1_InitializeAllFilters:
 699              	.LFB10:
 618:Generated_Source\PSoC4/CapSense_1_Filter.c ****     uint32 widgetId;
 700              		.loc 1 618 0
 701              		.cfi_startproc
 702              		@ args = 0, pretend = 0, frame = 0
 703              		@ frame_needed = 0, uses_anonymous_args = 0
 704 0000 10B5     		push	{r4, lr}
 705              		.cfi_def_cfa_offset 8
 706              		.cfi_offset 4, -8
 707              		.cfi_offset 14, -4
 708              	.LVL94:
 621:Generated_Source\PSoC4/CapSense_1_Filter.c ****     {
 709              		.loc 1 621 0
 710 0002 0823     		movs	r3, #8
 711 0004 03E0     		b	.L44
 712              	.LVL95:
 713              	.L45:
 623:Generated_Source\PSoC4/CapSense_1_Filter.c ****     }
 714              		.loc 1 623 0
 715 0006 2000     		movs	r0, r4
 716 0008 FFF7FEFF 		bl	CapSense_1_InitializeWidgetFilter
 717              	.LVL96:
 621:Generated_Source\PSoC4/CapSense_1_Filter.c ****     {
 718              		.loc 1 621 0
 719 000c 2300     		movs	r3, r4
 720              	.LVL97:
 721              	.L44:
 621:Generated_Source\PSoC4/CapSense_1_Filter.c ****     {
 722              		.loc 1 621 0 is_stmt 0 discriminator 1
 723 000e 5C1E     		subs	r4, r3, #1
 724              	.LVL98:
 725 0010 002B     		cmp	r3, #0
 726 0012 F8D1     		bne	.L45
 625:Generated_Source\PSoC4/CapSense_1_Filter.c **** 
 727              		.loc 1 625 0 is_stmt 1
 728              		@ sp needed
ARM GAS  C:\Users\Mayur\AppData\Local\Temp\ccxZLytu.s 			page 38


 729              	.LVL99:
 730 0014 10BD     		pop	{r4, pc}
 731              		.cfi_endproc
 732              	.LFE10:
 733              		.size	CapSense_1_InitializeAllFilters, .-CapSense_1_InitializeAllFilters
 734 0016 C046     		.section	.text.CapSense_1_FtInitialize,"ax",%progbits
 735              		.align	2
 736              		.global	CapSense_1_FtInitialize
 737              		.code	16
 738              		.thumb_func
 739              		.type	CapSense_1_FtInitialize, %function
 740              	CapSense_1_FtInitialize:
 741              	.LFB0:
  63:Generated_Source\PSoC4/CapSense_1_Filter.c ****     #if ((CapSense_1_ENABLE == CapSense_1_RC_FILTER_EN) || \
 742              		.loc 1 63 0
 743              		.cfi_startproc
 744              		@ args = 0, pretend = 0, frame = 0
 745              		@ frame_needed = 0, uses_anonymous_args = 0
 746 0000 10B5     		push	{r4, lr}
 747              		.cfi_def_cfa_offset 8
 748              		.cfi_offset 4, -8
 749              		.cfi_offset 14, -4
  66:Generated_Source\PSoC4/CapSense_1_Filter.c ****     #endif /* ((CapSense_1_ENABLE == CapSense_1_RC_FILTER_EN) || \
 750              		.loc 1 66 0
 751 0002 FFF7FEFF 		bl	CapSense_1_InitializeAllFilters
 752              	.LVL100:
  69:Generated_Source\PSoC4/CapSense_1_Filter.c **** 
 753              		.loc 1 69 0
 754              		@ sp needed
 755 0006 10BD     		pop	{r4, pc}
 756              		.cfi_endproc
 757              	.LFE0:
 758              		.size	CapSense_1_FtInitialize, .-CapSense_1_FtInitialize
 759              		.section	.text.CapSense_1_InitializeAverage,"ax",%progbits
 760              		.align	2
 761              		.global	CapSense_1_InitializeAverage
 762              		.code	16
 763              		.thumb_func
 764              		.type	CapSense_1_InitializeAverage, %function
 765              	CapSense_1_InitializeAverage:
 766              	.LFB20:
1186:Generated_Source\PSoC4/CapSense_1_Filter.c ****     CapSense_1_FLASH_WD_STRUCT const *ptrWidget = &CapSense_1_dsFlash.wdgtArray[widgetId];
 767              		.loc 1 1186 0
 768              		.cfi_startproc
 769              		@ args = 0, pretend = 0, frame = 0
 770              		@ frame_needed = 0, uses_anonymous_args = 0
 771              	.LVL101:
 772 0000 70B5     		push	{r4, r5, r6, lr}
 773              		.cfi_def_cfa_offset 16
 774              		.cfi_offset 4, -16
 775              		.cfi_offset 5, -12
 776              		.cfi_offset 6, -8
 777              		.cfi_offset 14, -4
 778 0002 0C00     		movs	r4, r1
 779              	.LVL102:
1192:Generated_Source\PSoC4/CapSense_1_Filter.c ****     ptrSensor = &ptrSensor[sensorId];
 780              		.loc 1 1192 0
ARM GAS  C:\Users\Mayur\AppData\Local\Temp\ccxZLytu.s 			page 39


 781 0004 4001     		lsls	r0, r0, #5
 782              	.LVL103:
 783 0006 0A4B     		ldr	r3, .L49
 784 0008 1B18     		adds	r3, r3, r0
 785              	.LVL104:
1193:Generated_Source\PSoC4/CapSense_1_Filter.c **** 
 786              		.loc 1 1193 0
 787 000a 8A00     		lsls	r2, r1, #2
 788 000c 5218     		adds	r2, r2, r1
 789 000e 5100     		lsls	r1, r2, #1
 790              	.LVL105:
 791 0010 9A68     		ldr	r2, [r3, #8]
 792 0012 9446     		mov	ip, r2
 793 0014 6144     		add	r1, r1, ip
 794              	.LVL106:
1196:Generated_Source\PSoC4/CapSense_1_Filter.c **** 
 795              		.loc 1 1196 0
 796 0016 DD68     		ldr	r5, [r3, #12]
 797 0018 2800     		movs	r0, r5
 798              	.LVL107:
1198:Generated_Source\PSoC4/CapSense_1_Filter.c ****     {
 799              		.loc 1 1198 0
 800 001a 9A7E     		ldrb	r2, [r3, #26]
 801 001c 062A     		cmp	r2, #6
 802 001e 03D0     		beq	.L48
1201:Generated_Source\PSoC4/CapSense_1_Filter.c ****         #endif /* (CapSense_1_REGULAR_SENSOR_EN) */
 803              		.loc 1 1201 0
 804 0020 6300     		lsls	r3, r4, #1
 805              	.LVL108:
 806 0022 1C19     		adds	r4, r3, r4
 807              	.LVL109:
 808 0024 A000     		lsls	r0, r4, #2
 809 0026 2818     		adds	r0, r5, r0
 810              	.L48:
1211:Generated_Source\PSoC4/CapSense_1_Filter.c **** }
 811              		.loc 1 1211 0
 812 0028 FFF7FEFF 		bl	CapSense_1_InitializeAverageInternal
 813              	.LVL110:
1212:Generated_Source\PSoC4/CapSense_1_Filter.c **** 
 814              		.loc 1 1212 0
 815              		@ sp needed
 816 002c 70BD     		pop	{r4, r5, r6, pc}
 817              	.L50:
 818 002e C046     		.align	2
 819              	.L49:
 820 0030 00000000 		.word	CapSense_1_dsFlash
 821              		.cfi_endproc
 822              	.LFE20:
 823              		.size	CapSense_1_InitializeAverage, .-CapSense_1_InitializeAverage
 824              		.section	.text.CapSense_1_RunAverageInternal,"ax",%progbits
 825              		.align	2
 826              		.global	CapSense_1_RunAverageInternal
 827              		.code	16
 828              		.thumb_func
 829              		.type	CapSense_1_RunAverageInternal, %function
 830              	CapSense_1_RunAverageInternal:
 831              	.LFB23:
ARM GAS  C:\Users\Mayur\AppData\Local\Temp\ccxZLytu.s 			page 40


1313:Generated_Source\PSoC4/CapSense_1_Filter.c **** 
1314:Generated_Source\PSoC4/CapSense_1_Filter.c **** 
1315:Generated_Source\PSoC4/CapSense_1_Filter.c **** /*******************************************************************************
1316:Generated_Source\PSoC4/CapSense_1_Filter.c **** * Function Name: CapSense_1_RunAverageInternal
1317:Generated_Source\PSoC4/CapSense_1_Filter.c **** ****************************************************************************//**
1318:Generated_Source\PSoC4/CapSense_1_Filter.c **** *
1319:Generated_Source\PSoC4/CapSense_1_Filter.c **** * \brief
1320:Generated_Source\PSoC4/CapSense_1_Filter.c **** *  Runs the average filter.
1321:Generated_Source\PSoC4/CapSense_1_Filter.c **** *
1322:Generated_Source\PSoC4/CapSense_1_Filter.c **** * \details
1323:Generated_Source\PSoC4/CapSense_1_Filter.c **** *  Runs the average filter.
1324:Generated_Source\PSoC4/CapSense_1_Filter.c **** *
1325:Generated_Source\PSoC4/CapSense_1_Filter.c **** * \param ptrFilterHistObj
1326:Generated_Source\PSoC4/CapSense_1_Filter.c **** *  The pointer to the filter RAM object of the sensor.
1327:Generated_Source\PSoC4/CapSense_1_Filter.c **** *
1328:Generated_Source\PSoC4/CapSense_1_Filter.c **** * \param ptrSensorObj
1329:Generated_Source\PSoC4/CapSense_1_Filter.c **** *  The pointer to the sensor RAM object of the sensor.
1330:Generated_Source\PSoC4/CapSense_1_Filter.c **** *
1331:Generated_Source\PSoC4/CapSense_1_Filter.c **** * \param wdType
1332:Generated_Source\PSoC4/CapSense_1_Filter.c **** *  Specifies the type of a widget.
1333:Generated_Source\PSoC4/CapSense_1_Filter.c **** *
1334:Generated_Source\PSoC4/CapSense_1_Filter.c **** *******************************************************************************/
1335:Generated_Source\PSoC4/CapSense_1_Filter.c **** void CapSense_1_RunAverageInternal(CapSense_1_PTR_FILTER_VARIANT ptrFilterHistObj,\
1336:Generated_Source\PSoC4/CapSense_1_Filter.c ****                                            CapSense_1_RAM_SNS_STRUCT *ptrSensorObj, uint32 wdType)
1337:Generated_Source\PSoC4/CapSense_1_Filter.c **** {
 832              		.loc 1 1337 0
 833              		.cfi_startproc
 834              		@ args = 0, pretend = 0, frame = 0
 835              		@ frame_needed = 0, uses_anonymous_args = 0
 836              	.LVL111:
 837 0000 F0B5     		push	{r4, r5, r6, r7, lr}
 838              		.cfi_def_cfa_offset 20
 839              		.cfi_offset 4, -20
 840              		.cfi_offset 5, -16
 841              		.cfi_offset 6, -12
 842              		.cfi_offset 7, -8
 843              		.cfi_offset 14, -4
 844              	.LVL112:
1338:Generated_Source\PSoC4/CapSense_1_Filter.c ****     uint32 freqChannel;
1339:Generated_Source\PSoC4/CapSense_1_Filter.c ****     uint32 temp;
1340:Generated_Source\PSoC4/CapSense_1_Filter.c **** 
1341:Generated_Source\PSoC4/CapSense_1_Filter.c ****     for(freqChannel = CapSense_1_NUM_SCAN_FREQS; freqChannel-- > 0u;)
 845              		.loc 1 1341 0
 846 0002 0123     		movs	r3, #1
 847 0004 19E0     		b	.L52
 848              	.LVL113:
 849              	.L54:
1342:Generated_Source\PSoC4/CapSense_1_Filter.c ****     {
1343:Generated_Source\PSoC4/CapSense_1_Filter.c ****         if ((CapSense_1_WD_TYPE_ENUM)wdType != CapSense_1_WD_PROXIMITY_E)
 850              		.loc 1 1343 0
 851 0006 FF23     		movs	r3, #255
 852 0008 1340     		ands	r3, r2
 853 000a 062B     		cmp	r3, #6
 854 000c 14D0     		beq	.L53
1344:Generated_Source\PSoC4/CapSense_1_Filter.c ****         {
1345:Generated_Source\PSoC4/CapSense_1_Filter.c ****             #if (CapSense_1_REGULAR_SENSOR_EN && CapSense_1_REGULAR_RC_AVERAGE_FILTER_EN)
1346:Generated_Source\PSoC4/CapSense_1_Filter.c ****                 #if (CapSense_1_REGULAR_AVERAGE_LEN == CapSense_1_AVERAGE_FILTER_LEN_2)
ARM GAS  C:\Users\Mayur\AppData\Local\Temp\ccxZLytu.s 			page 41


1347:Generated_Source\PSoC4/CapSense_1_Filter.c ****                     temp = ((uint32)ptrSensorObj->raw[freqChannel] +
1348:Generated_Source\PSoC4/CapSense_1_Filter.c ****                             (uint32)ptrFilterHistObj.ptrRegular->regularChannel[freqChannel].avgHis
1349:Generated_Source\PSoC4/CapSense_1_Filter.c ****                     ptrFilterHistObj.ptrRegular->regularChannel[freqChannel].avgHistory[0] = ptrSen
1350:Generated_Source\PSoC4/CapSense_1_Filter.c ****                     ptrSensorObj->raw[freqChannel] = LO16(temp);
1351:Generated_Source\PSoC4/CapSense_1_Filter.c ****                 #else
1352:Generated_Source\PSoC4/CapSense_1_Filter.c ****                     temp = ((uint32)ptrSensorObj->raw[freqChannel] +
 855              		.loc 1 1352 0
 856 000e 6700     		lsls	r7, r4, #1
 857 0010 7B5A     		ldrh	r3, [r7, r1]
 858 0012 9C46     		mov	ip, r3
1353:Generated_Source\PSoC4/CapSense_1_Filter.c ****                             (uint32)ptrFilterHistObj.ptrRegular->regularChannel[freqChannel].avgHis
 859              		.loc 1 1353 0
 860 0014 3E19     		adds	r6, r7, r4
 861 0016 B300     		lsls	r3, r6, #2
 862 0018 C318     		adds	r3, r0, r3
 863 001a DD88     		ldrh	r5, [r3, #6]
1352:Generated_Source\PSoC4/CapSense_1_Filter.c ****                             (uint32)ptrFilterHistObj.ptrRegular->regularChannel[freqChannel].avgHis
 864              		.loc 1 1352 0
 865 001c 6544     		add	r5, r5, ip
1354:Generated_Source\PSoC4/CapSense_1_Filter.c ****                             (uint32)ptrFilterHistObj.ptrRegular->regularChannel[freqChannel].avgHis
 866              		.loc 1 1354 0
 867 001e 1E89     		ldrh	r6, [r3, #8]
 868 0020 B446     		mov	ip, r6
1353:Generated_Source\PSoC4/CapSense_1_Filter.c ****                             (uint32)ptrFilterHistObj.ptrRegular->regularChannel[freqChannel].avgHis
 869              		.loc 1 1353 0
 870 0022 6544     		add	r5, r5, ip
1355:Generated_Source\PSoC4/CapSense_1_Filter.c ****                             (uint32)ptrFilterHistObj.ptrRegular->regularChannel[freqChannel].avgHis
 871              		.loc 1 1355 0
 872 0024 5E89     		ldrh	r6, [r3, #10]
1354:Generated_Source\PSoC4/CapSense_1_Filter.c ****                             (uint32)ptrFilterHistObj.ptrRegular->regularChannel[freqChannel].avgHis
 873              		.loc 1 1354 0
 874 0026 AD19     		adds	r5, r5, r6
1352:Generated_Source\PSoC4/CapSense_1_Filter.c ****                             (uint32)ptrFilterHistObj.ptrRegular->regularChannel[freqChannel].avgHis
 875              		.loc 1 1352 0
 876 0028 AD08     		lsrs	r5, r5, #2
 877              	.LVL114:
1356:Generated_Source\PSoC4/CapSense_1_Filter.c **** 
1357:Generated_Source\PSoC4/CapSense_1_Filter.c ****                     ptrFilterHistObj.ptrRegular->regularChannel[freqChannel].avgHistory[2u] =
 878              		.loc 1 1357 0
 879 002a 6646     		mov	r6, ip
 880 002c 5E81     		strh	r6, [r3, #10]
1358:Generated_Source\PSoC4/CapSense_1_Filter.c ****                     ptrFilterHistObj.ptrRegular->regularChannel[freqChannel].avgHistory[1u];
1359:Generated_Source\PSoC4/CapSense_1_Filter.c ****                     ptrFilterHistObj.ptrRegular->regularChannel[freqChannel].avgHistory[1u] =
1360:Generated_Source\PSoC4/CapSense_1_Filter.c ****                     ptrFilterHistObj.ptrRegular->regularChannel[freqChannel].avgHistory[0];
 881              		.loc 1 1360 0
 882 002e DE88     		ldrh	r6, [r3, #6]
1359:Generated_Source\PSoC4/CapSense_1_Filter.c ****                     ptrFilterHistObj.ptrRegular->regularChannel[freqChannel].avgHistory[0];
 883              		.loc 1 1359 0
 884 0030 1E81     		strh	r6, [r3, #8]
1361:Generated_Source\PSoC4/CapSense_1_Filter.c ****                     ptrFilterHistObj.ptrRegular->regularChannel[freqChannel].avgHistory[0] = ptrSen
 885              		.loc 1 1361 0
 886 0032 7E5A     		ldrh	r6, [r7, r1]
 887 0034 DE80     		strh	r6, [r3, #6]
1362:Generated_Source\PSoC4/CapSense_1_Filter.c ****                     ptrSensorObj->raw[freqChannel] = LO16(temp);
 888              		.loc 1 1362 0
 889 0036 CD53     		strh	r5, [r1, r7]
 890              	.LVL115:
ARM GAS  C:\Users\Mayur\AppData\Local\Temp\ccxZLytu.s 			page 42


 891              	.L53:
1337:Generated_Source\PSoC4/CapSense_1_Filter.c ****     uint32 freqChannel;
 892              		.loc 1 1337 0 discriminator 1
 893 0038 2300     		movs	r3, r4
 894              	.LVL116:
 895              	.L52:
1341:Generated_Source\PSoC4/CapSense_1_Filter.c ****     {
 896              		.loc 1 1341 0 discriminator 1
 897 003a 5C1E     		subs	r4, r3, #1
 898              	.LVL117:
 899 003c 002B     		cmp	r3, #0
 900 003e E2D1     		bne	.L54
1363:Generated_Source\PSoC4/CapSense_1_Filter.c ****                 #endif /* CapSense_1_REGULAR_AVERAGE_LEN == CapSense_1_AVERAGE_FILTER_LEN_4 */
1364:Generated_Source\PSoC4/CapSense_1_Filter.c ****             #endif /* (CapSense_1_REGULAR_SENSOR_EN) */
1365:Generated_Source\PSoC4/CapSense_1_Filter.c ****         }
1366:Generated_Source\PSoC4/CapSense_1_Filter.c ****         else
1367:Generated_Source\PSoC4/CapSense_1_Filter.c ****         {
1368:Generated_Source\PSoC4/CapSense_1_Filter.c ****             #if (CapSense_1_PROXIMITY_SENSOR_EN && CapSense_1_PROX_RC_AVERAGE_FILTER_EN)
1369:Generated_Source\PSoC4/CapSense_1_Filter.c ****                 #if (CapSense_1_PROX_AVERAGE_LEN == CapSense_1_AVERAGE_FILTER_LEN_2)
1370:Generated_Source\PSoC4/CapSense_1_Filter.c ****                     temp = ((uint32)ptrSensorObj->raw[freqChannel] +
1371:Generated_Source\PSoC4/CapSense_1_Filter.c ****                             (uint32)ptrFilterHistObj.ptrProx->proxChannel[freqChannel].avgHistory[0
1372:Generated_Source\PSoC4/CapSense_1_Filter.c ****                     ptrFilterHistObj.ptrProx->proxChannel[freqChannel].avgHistory[0] = ptrSensorObj
1373:Generated_Source\PSoC4/CapSense_1_Filter.c ****                     ptrSensorObj->raw[freqChannel] = LO16(temp);
1374:Generated_Source\PSoC4/CapSense_1_Filter.c ****                 #else
1375:Generated_Source\PSoC4/CapSense_1_Filter.c ****                     temp = ((uint32)ptrSensorObj->raw[freqChannel] +
1376:Generated_Source\PSoC4/CapSense_1_Filter.c ****                             (uint32)ptrFilterHistObj.ptrProx->proxChannel[freqChannel].avgHistory[0
1377:Generated_Source\PSoC4/CapSense_1_Filter.c ****                             (uint32)ptrFilterHistObj.ptrProx->proxChannel[freqChannel].avgHistory[1
1378:Generated_Source\PSoC4/CapSense_1_Filter.c ****                             (uint32)ptrFilterHistObj.ptrProx->proxChannel[freqChannel].avgHistory[2
1379:Generated_Source\PSoC4/CapSense_1_Filter.c **** 
1380:Generated_Source\PSoC4/CapSense_1_Filter.c ****                     ptrFilterHistObj.ptrProx->proxChannel[freqChannel].avgHistory[2u] =
1381:Generated_Source\PSoC4/CapSense_1_Filter.c ****                     ptrFilterHistObj.ptrProx->proxChannel[freqChannel].avgHistory[1u];
1382:Generated_Source\PSoC4/CapSense_1_Filter.c ****                     ptrFilterHistObj.ptrProx->proxChannel[freqChannel].avgHistory[1u] =
1383:Generated_Source\PSoC4/CapSense_1_Filter.c ****                     ptrFilterHistObj.ptrProx->proxChannel[freqChannel].avgHistory[0];
1384:Generated_Source\PSoC4/CapSense_1_Filter.c ****                     ptrFilterHistObj.ptrProx->proxChannel[freqChannel].avgHistory[0] = ptrSensorObj
1385:Generated_Source\PSoC4/CapSense_1_Filter.c ****                     ptrSensorObj->raw[freqChannel] = LO16(temp);
1386:Generated_Source\PSoC4/CapSense_1_Filter.c ****                 #endif /* CapSense_1_PROX_AVERAGE_LEN == CapSense_1_AVERAGE_FILTER_LEN_4 */
1387:Generated_Source\PSoC4/CapSense_1_Filter.c ****             #endif /* (CapSense_1_PROXIMITY_SENSOR_EN) */
1388:Generated_Source\PSoC4/CapSense_1_Filter.c ****         }
1389:Generated_Source\PSoC4/CapSense_1_Filter.c ****     }
1390:Generated_Source\PSoC4/CapSense_1_Filter.c **** }
 901              		.loc 1 1390 0
 902              		@ sp needed
 903              	.LVL118:
 904 0040 F0BD     		pop	{r4, r5, r6, r7, pc}
 905              		.cfi_endproc
 906              	.LFE23:
 907              		.size	CapSense_1_RunAverageInternal, .-CapSense_1_RunAverageInternal
 908 0042 C046     		.section	.text.CapSense_1_RunAverage,"ax",%progbits
 909              		.align	2
 910              		.global	CapSense_1_RunAverage
 911              		.code	16
 912              		.thumb_func
 913              		.type	CapSense_1_RunAverage, %function
 914              	CapSense_1_RunAverage:
 915              	.LFB21:
1235:Generated_Source\PSoC4/CapSense_1_Filter.c ****     CapSense_1_FLASH_WD_STRUCT const *ptrWidget = &CapSense_1_dsFlash.wdgtArray[widgetId];
 916              		.loc 1 1235 0
ARM GAS  C:\Users\Mayur\AppData\Local\Temp\ccxZLytu.s 			page 43


 917              		.cfi_startproc
 918              		@ args = 0, pretend = 0, frame = 0
 919              		@ frame_needed = 0, uses_anonymous_args = 0
 920              	.LVL119:
 921 0000 70B5     		push	{r4, r5, r6, lr}
 922              		.cfi_def_cfa_offset 16
 923              		.cfi_offset 4, -16
 924              		.cfi_offset 5, -12
 925              		.cfi_offset 6, -8
 926              		.cfi_offset 14, -4
 927 0002 0C00     		movs	r4, r1
 928              	.LVL120:
1241:Generated_Source\PSoC4/CapSense_1_Filter.c ****     ptrSensor = &ptrSensor[sensorId];
 929              		.loc 1 1241 0
 930 0004 4001     		lsls	r0, r0, #5
 931              	.LVL121:
 932 0006 0A4B     		ldr	r3, .L57
 933 0008 1B18     		adds	r3, r3, r0
 934              	.LVL122:
1242:Generated_Source\PSoC4/CapSense_1_Filter.c **** 
 935              		.loc 1 1242 0
 936 000a 8A00     		lsls	r2, r1, #2
 937 000c 5218     		adds	r2, r2, r1
 938 000e 5100     		lsls	r1, r2, #1
 939              	.LVL123:
 940 0010 9A68     		ldr	r2, [r3, #8]
 941 0012 9446     		mov	ip, r2
 942 0014 6144     		add	r1, r1, ip
 943              	.LVL124:
1245:Generated_Source\PSoC4/CapSense_1_Filter.c **** 
 944              		.loc 1 1245 0
 945 0016 DD68     		ldr	r5, [r3, #12]
 946 0018 2800     		movs	r0, r5
 947              	.LVL125:
1247:Generated_Source\PSoC4/CapSense_1_Filter.c ****     {
 948              		.loc 1 1247 0
 949 001a 9A7E     		ldrb	r2, [r3, #26]
 950 001c 062A     		cmp	r2, #6
 951 001e 03D0     		beq	.L56
1250:Generated_Source\PSoC4/CapSense_1_Filter.c ****         #endif /* (CapSense_1_REGULAR_SENSOR_EN) */
 952              		.loc 1 1250 0
 953 0020 6300     		lsls	r3, r4, #1
 954              	.LVL126:
 955 0022 1C19     		adds	r4, r3, r4
 956              	.LVL127:
 957 0024 A000     		lsls	r0, r4, #2
 958 0026 2818     		adds	r0, r5, r0
 959              	.L56:
1260:Generated_Source\PSoC4/CapSense_1_Filter.c **** }
 960              		.loc 1 1260 0
 961 0028 FFF7FEFF 		bl	CapSense_1_RunAverageInternal
 962              	.LVL128:
1261:Generated_Source\PSoC4/CapSense_1_Filter.c **** 
 963              		.loc 1 1261 0
 964              		@ sp needed
 965 002c 70BD     		pop	{r4, r5, r6, pc}
 966              	.L58:
ARM GAS  C:\Users\Mayur\AppData\Local\Temp\ccxZLytu.s 			page 44


 967 002e C046     		.align	2
 968              	.L57:
 969 0030 00000000 		.word	CapSense_1_dsFlash
 970              		.cfi_endproc
 971              	.LFE21:
 972              		.size	CapSense_1_RunAverage, .-CapSense_1_RunAverage
 973              		.section	.text.CapSense_1_RunNoiseEnvelope,"ax",%progbits
 974              		.align	2
 975              		.global	CapSense_1_RunNoiseEnvelope
 976              		.code	16
 977              		.thumb_func
 978              		.type	CapSense_1_RunNoiseEnvelope, %function
 979              	CapSense_1_RunNoiseEnvelope:
 980              	.LFB26:
1391:Generated_Source\PSoC4/CapSense_1_Filter.c **** #endif /* (CapSense_1_REGULAR_RC_AVERAGE_FILTER_EN || CapSense_1_PROX_RC_AVERAGE_FILTER_EN) */
1392:Generated_Source\PSoC4/CapSense_1_Filter.c **** 
1393:Generated_Source\PSoC4/CapSense_1_Filter.c **** #if (CapSense_1_ENABLE == CapSense_1_ALP_FILTER_EN)
1394:Generated_Source\PSoC4/CapSense_1_Filter.c **** /*******************************************************************************
1395:Generated_Source\PSoC4/CapSense_1_Filter.c **** * Function Name: CapSense_1_InitializeALP
1396:Generated_Source\PSoC4/CapSense_1_Filter.c **** ****************************************************************************//**
1397:Generated_Source\PSoC4/CapSense_1_Filter.c **** *
1398:Generated_Source\PSoC4/CapSense_1_Filter.c **** * \brief
1399:Generated_Source\PSoC4/CapSense_1_Filter.c **** *  Initializes the ALP filter history.
1400:Generated_Source\PSoC4/CapSense_1_Filter.c **** *
1401:Generated_Source\PSoC4/CapSense_1_Filter.c **** * \details
1402:Generated_Source\PSoC4/CapSense_1_Filter.c **** *  Initializes the ALP filter history.
1403:Generated_Source\PSoC4/CapSense_1_Filter.c **** *
1404:Generated_Source\PSoC4/CapSense_1_Filter.c **** * \param widgetId
1405:Generated_Source\PSoC4/CapSense_1_Filter.c **** *  Specifies the ID number of the widget.
1406:Generated_Source\PSoC4/CapSense_1_Filter.c **** *
1407:Generated_Source\PSoC4/CapSense_1_Filter.c **** * \param sensorId
1408:Generated_Source\PSoC4/CapSense_1_Filter.c **** *  Specifies the ID number of the sensor in the widget.
1409:Generated_Source\PSoC4/CapSense_1_Filter.c **** *
1410:Generated_Source\PSoC4/CapSense_1_Filter.c **** *******************************************************************************/
1411:Generated_Source\PSoC4/CapSense_1_Filter.c **** void CapSense_1_InitializeALP(uint32 widgetId, uint32 sensorId)
1412:Generated_Source\PSoC4/CapSense_1_Filter.c **** {
1413:Generated_Source\PSoC4/CapSense_1_Filter.c ****     CapSense_1_FLASH_WD_STRUCT const *ptrWidget = &CapSense_1_dsFlash.wdgtArray[widgetId];
1414:Generated_Source\PSoC4/CapSense_1_Filter.c ****     CapSense_1_RAM_SNS_STRUCT *ptrSensor = NULL;
1415:Generated_Source\PSoC4/CapSense_1_Filter.c ****     CapSense_1_PTR_FILTER_VARIANT ptrFilterHistObj;
1416:Generated_Source\PSoC4/CapSense_1_Filter.c **** 
1417:Generated_Source\PSoC4/CapSense_1_Filter.c ****     /* Find pointer to specified sensor object */
1418:Generated_Source\PSoC4/CapSense_1_Filter.c ****     ptrSensor = ptrWidget->ptr2SnsRam;
1419:Generated_Source\PSoC4/CapSense_1_Filter.c ****     ptrSensor = &ptrSensor[sensorId];
1420:Generated_Source\PSoC4/CapSense_1_Filter.c **** 
1421:Generated_Source\PSoC4/CapSense_1_Filter.c ****     /* Find pointer to specified filter sensor object */
1422:Generated_Source\PSoC4/CapSense_1_Filter.c ****     ptrFilterHistObj.ptr = ptrWidget->ptr2FltrHistory;
1423:Generated_Source\PSoC4/CapSense_1_Filter.c ****     ptrFilterHistObj.ptrAlp = &ptrFilterHistObj.ptrAlp[sensorId];
1424:Generated_Source\PSoC4/CapSense_1_Filter.c ****     CapSense_1_InitializeALPInternal(ptrFilterHistObj, ptrSensor, (uint32)ptrWidget->wdgtType);
1425:Generated_Source\PSoC4/CapSense_1_Filter.c **** }
1426:Generated_Source\PSoC4/CapSense_1_Filter.c **** 
1427:Generated_Source\PSoC4/CapSense_1_Filter.c **** 
1428:Generated_Source\PSoC4/CapSense_1_Filter.c **** /*******************************************************************************
1429:Generated_Source\PSoC4/CapSense_1_Filter.c **** * Function Name: CapSense_1_RunALP
1430:Generated_Source\PSoC4/CapSense_1_Filter.c **** ****************************************************************************//**
1431:Generated_Source\PSoC4/CapSense_1_Filter.c **** *
1432:Generated_Source\PSoC4/CapSense_1_Filter.c **** * \brief
1433:Generated_Source\PSoC4/CapSense_1_Filter.c **** *  Executes the ALP filter algorithm on a sensor indicated by an input
ARM GAS  C:\Users\Mayur\AppData\Local\Temp\ccxZLytu.s 			page 45


1434:Generated_Source\PSoC4/CapSense_1_Filter.c **** *  parameter.
1435:Generated_Source\PSoC4/CapSense_1_Filter.c **** *
1436:Generated_Source\PSoC4/CapSense_1_Filter.c **** * \details
1437:Generated_Source\PSoC4/CapSense_1_Filter.c **** *  Executes the ALP filter algorithm on a sensor indicated by an input
1438:Generated_Source\PSoC4/CapSense_1_Filter.c **** *  parameter.
1439:Generated_Source\PSoC4/CapSense_1_Filter.c **** *
1440:Generated_Source\PSoC4/CapSense_1_Filter.c **** * \param widgetId
1441:Generated_Source\PSoC4/CapSense_1_Filter.c **** *  Specifies the ID number of the widget.
1442:Generated_Source\PSoC4/CapSense_1_Filter.c **** *
1443:Generated_Source\PSoC4/CapSense_1_Filter.c **** * \param sensorId
1444:Generated_Source\PSoC4/CapSense_1_Filter.c **** *  Specifies the ID number of the sensor in the widget.
1445:Generated_Source\PSoC4/CapSense_1_Filter.c **** *
1446:Generated_Source\PSoC4/CapSense_1_Filter.c **** *******************************************************************************/
1447:Generated_Source\PSoC4/CapSense_1_Filter.c **** void CapSense_1_RunALP(uint32 widgetId, uint32 sensorId)
1448:Generated_Source\PSoC4/CapSense_1_Filter.c **** {
1449:Generated_Source\PSoC4/CapSense_1_Filter.c ****     CapSense_1_FLASH_WD_STRUCT const *ptrWidget = &CapSense_1_dsFlash.wdgtArray[widgetId];
1450:Generated_Source\PSoC4/CapSense_1_Filter.c ****     CapSense_1_RAM_SNS_STRUCT *ptrSensor = NULL;
1451:Generated_Source\PSoC4/CapSense_1_Filter.c ****     CapSense_1_PTR_FILTER_VARIANT ptrFilterHistObj;
1452:Generated_Source\PSoC4/CapSense_1_Filter.c ****     ALP_FLTR_CONFIG_STRUCT alpFilterConfig;
1453:Generated_Source\PSoC4/CapSense_1_Filter.c ****     ALP_FLTR_CONFIG_STRUCT *ptrAlpFilterConfig = &alpFilterConfig;
1454:Generated_Source\PSoC4/CapSense_1_Filter.c ****     CapSense_1_RAM_WD_BASE_STRUCT *ptrRamWidget = ptrWidget->ptr2WdgtRam;
1455:Generated_Source\PSoC4/CapSense_1_Filter.c **** 
1456:Generated_Source\PSoC4/CapSense_1_Filter.c ****     /* Find pointer to specified sensor object */
1457:Generated_Source\PSoC4/CapSense_1_Filter.c ****     ptrSensor = ptrWidget->ptr2SnsRam;
1458:Generated_Source\PSoC4/CapSense_1_Filter.c ****     ptrSensor = &ptrSensor[sensorId];
1459:Generated_Source\PSoC4/CapSense_1_Filter.c **** 
1460:Generated_Source\PSoC4/CapSense_1_Filter.c ****     ptrAlpFilterConfig->configParam0 = ptrRamWidget->alpOnTh;
1461:Generated_Source\PSoC4/CapSense_1_Filter.c ****     ptrAlpFilterConfig->configParam1 = ptrRamWidget->alpOffTh;
1462:Generated_Source\PSoC4/CapSense_1_Filter.c ****     ptrAlpFilterConfig->configParam2 = ptrRamWidget->fingerTh;
1463:Generated_Source\PSoC4/CapSense_1_Filter.c ****     ptrAlpFilterConfig->configParam3 = ptrRamWidget->noiseTh;
1464:Generated_Source\PSoC4/CapSense_1_Filter.c ****     ptrAlpFilterConfig->configParam4 = ptrRamWidget->hysteresis;
1465:Generated_Source\PSoC4/CapSense_1_Filter.c **** 
1466:Generated_Source\PSoC4/CapSense_1_Filter.c ****     /* Find pointer to specified filter sensor object */
1467:Generated_Source\PSoC4/CapSense_1_Filter.c ****     ptrFilterHistObj.ptr = ptrWidget->ptr2FltrHistory;
1468:Generated_Source\PSoC4/CapSense_1_Filter.c ****     ptrFilterHistObj.ptrAlp = &ptrFilterHistObj.ptrAlp[sensorId];
1469:Generated_Source\PSoC4/CapSense_1_Filter.c **** 
1470:Generated_Source\PSoC4/CapSense_1_Filter.c ****     if ((CapSense_1_WD_TYPE_ENUM)ptrWidget->wdgtType != CapSense_1_WD_PROXIMITY_E)
1471:Generated_Source\PSoC4/CapSense_1_Filter.c ****     {
1472:Generated_Source\PSoC4/CapSense_1_Filter.c ****         #if (CapSense_1_REGULAR_SENSOR_EN)
1473:Generated_Source\PSoC4/CapSense_1_Filter.c ****             ptrAlpFilterConfig->configParam5 = CapSense_1_REGULAR_RC_ALP_FILTER_COEFF;
1474:Generated_Source\PSoC4/CapSense_1_Filter.c ****         #endif /* (CapSense_1_REGULAR_SENSOR_EN) */
1475:Generated_Source\PSoC4/CapSense_1_Filter.c ****     }
1476:Generated_Source\PSoC4/CapSense_1_Filter.c ****     else
1477:Generated_Source\PSoC4/CapSense_1_Filter.c ****     {
1478:Generated_Source\PSoC4/CapSense_1_Filter.c ****         #if (CapSense_1_PROXIMITY_SENSOR_EN)
1479:Generated_Source\PSoC4/CapSense_1_Filter.c ****             ptrAlpFilterConfig->configParam5 = CapSense_1_PROX_RC_ALP_FILTER_COEFF;
1480:Generated_Source\PSoC4/CapSense_1_Filter.c ****         #endif /* (CapSense_1_PROXIMITY_SENSOR_EN) */
1481:Generated_Source\PSoC4/CapSense_1_Filter.c ****     }
1482:Generated_Source\PSoC4/CapSense_1_Filter.c ****     CapSense_1_RunALPInternal(ptrFilterHistObj, ptrAlpFilterConfig, ptrSensor, (uint32)ptrWidget->w
1483:Generated_Source\PSoC4/CapSense_1_Filter.c **** }
1484:Generated_Source\PSoC4/CapSense_1_Filter.c **** 
1485:Generated_Source\PSoC4/CapSense_1_Filter.c **** 
1486:Generated_Source\PSoC4/CapSense_1_Filter.c **** /*******************************************************************************
1487:Generated_Source\PSoC4/CapSense_1_Filter.c **** * Function Name: CapSense_1_InitializeALPInternal
1488:Generated_Source\PSoC4/CapSense_1_Filter.c **** ****************************************************************************//**
1489:Generated_Source\PSoC4/CapSense_1_Filter.c **** *
1490:Generated_Source\PSoC4/CapSense_1_Filter.c **** * \brief
ARM GAS  C:\Users\Mayur\AppData\Local\Temp\ccxZLytu.s 			page 46


1491:Generated_Source\PSoC4/CapSense_1_Filter.c **** *  Initializes the ALP filter.
1492:Generated_Source\PSoC4/CapSense_1_Filter.c **** *
1493:Generated_Source\PSoC4/CapSense_1_Filter.c **** * \details
1494:Generated_Source\PSoC4/CapSense_1_Filter.c **** *  Initializes the ALP filter.
1495:Generated_Source\PSoC4/CapSense_1_Filter.c **** *
1496:Generated_Source\PSoC4/CapSense_1_Filter.c **** * \param ptrFilterHistObj
1497:Generated_Source\PSoC4/CapSense_1_Filter.c **** *  The pointer to the filter RAM object of the sensor.
1498:Generated_Source\PSoC4/CapSense_1_Filter.c **** *
1499:Generated_Source\PSoC4/CapSense_1_Filter.c **** * \param ptrSensorObj
1500:Generated_Source\PSoC4/CapSense_1_Filter.c **** *  The pointer to the sensor RAM object of the sensor.
1501:Generated_Source\PSoC4/CapSense_1_Filter.c **** *
1502:Generated_Source\PSoC4/CapSense_1_Filter.c **** * \param wdType
1503:Generated_Source\PSoC4/CapSense_1_Filter.c **** *  Specifies the type of a widget.
1504:Generated_Source\PSoC4/CapSense_1_Filter.c **** *
1505:Generated_Source\PSoC4/CapSense_1_Filter.c **** *
1506:Generated_Source\PSoC4/CapSense_1_Filter.c **** *******************************************************************************/
1507:Generated_Source\PSoC4/CapSense_1_Filter.c **** void CapSense_1_InitializeALPInternal(CapSense_1_PTR_FILTER_VARIANT ptrFilterHistObj,
1508:Generated_Source\PSoC4/CapSense_1_Filter.c ****                                             CapSense_1_RAM_SNS_STRUCT *ptrSensorObj,
1509:Generated_Source\PSoC4/CapSense_1_Filter.c ****                                             uint32 wdType)
1510:Generated_Source\PSoC4/CapSense_1_Filter.c **** {
1511:Generated_Source\PSoC4/CapSense_1_Filter.c ****     uint32 freqChannel;
1512:Generated_Source\PSoC4/CapSense_1_Filter.c **** 
1513:Generated_Source\PSoC4/CapSense_1_Filter.c ****     for(freqChannel = CapSense_1_NUM_SCAN_FREQS; freqChannel-- > 0u;)
1514:Generated_Source\PSoC4/CapSense_1_Filter.c ****     {
1515:Generated_Source\PSoC4/CapSense_1_Filter.c ****         if ((CapSense_1_WD_TYPE_ENUM)wdType != CapSense_1_WD_PROXIMITY_E)
1516:Generated_Source\PSoC4/CapSense_1_Filter.c ****         {
1517:Generated_Source\PSoC4/CapSense_1_Filter.c ****             #if (CapSense_1_REGULAR_SENSOR_EN && CapSense_1_REGULAR_RC_ALP_FILTER_EN)
1518:Generated_Source\PSoC4/CapSense_1_Filter.c ****                 ALP_Initialize(&ptrFilterHistObj.ptrAlp->channel[freqChannel], &ptrSensorObj->raw[f
1519:Generated_Source\PSoC4/CapSense_1_Filter.c ****             #endif
1520:Generated_Source\PSoC4/CapSense_1_Filter.c ****         }
1521:Generated_Source\PSoC4/CapSense_1_Filter.c ****         else
1522:Generated_Source\PSoC4/CapSense_1_Filter.c ****         {
1523:Generated_Source\PSoC4/CapSense_1_Filter.c ****             #if (CapSense_1_PROXIMITY_SENSOR_EN && CapSense_1_PROX_RC_ALP_FILTER_EN)
1524:Generated_Source\PSoC4/CapSense_1_Filter.c ****                 ALP_Initialize(&ptrFilterHistObj.ptrAlp->channel[freqChannel], &ptrSensorObj->raw[f
1525:Generated_Source\PSoC4/CapSense_1_Filter.c ****             #endif
1526:Generated_Source\PSoC4/CapSense_1_Filter.c ****         }
1527:Generated_Source\PSoC4/CapSense_1_Filter.c ****     }
1528:Generated_Source\PSoC4/CapSense_1_Filter.c **** }
1529:Generated_Source\PSoC4/CapSense_1_Filter.c **** 
1530:Generated_Source\PSoC4/CapSense_1_Filter.c **** /*******************************************************************************
1531:Generated_Source\PSoC4/CapSense_1_Filter.c **** * Function Name: CapSense_1_ConfigRunALPInternal
1532:Generated_Source\PSoC4/CapSense_1_Filter.c **** ****************************************************************************//**
1533:Generated_Source\PSoC4/CapSense_1_Filter.c **** *
1534:Generated_Source\PSoC4/CapSense_1_Filter.c **** * \brief
1535:Generated_Source\PSoC4/CapSense_1_Filter.c **** *  Prepares ALP configuration structure and runs the filter.
1536:Generated_Source\PSoC4/CapSense_1_Filter.c **** *
1537:Generated_Source\PSoC4/CapSense_1_Filter.c **** * \details
1538:Generated_Source\PSoC4/CapSense_1_Filter.c **** *  Prepares ALP configuration structure and runs the filter.
1539:Generated_Source\PSoC4/CapSense_1_Filter.c **** *
1540:Generated_Source\PSoC4/CapSense_1_Filter.c **** * \param ptrFilterHistObj
1541:Generated_Source\PSoC4/CapSense_1_Filter.c **** *  The pointer to the filter RAM object of the sensor.
1542:Generated_Source\PSoC4/CapSense_1_Filter.c **** *
1543:Generated_Source\PSoC4/CapSense_1_Filter.c **** * \param ptrRamWdgt
1544:Generated_Source\PSoC4/CapSense_1_Filter.c **** *  The pointer to the RAM widget object.
1545:Generated_Source\PSoC4/CapSense_1_Filter.c **** *
1546:Generated_Source\PSoC4/CapSense_1_Filter.c **** * \param ptrSensorObj
1547:Generated_Source\PSoC4/CapSense_1_Filter.c **** *  The pointer to the sensor RAM object of the sensor.
ARM GAS  C:\Users\Mayur\AppData\Local\Temp\ccxZLytu.s 			page 47


1548:Generated_Source\PSoC4/CapSense_1_Filter.c **** *
1549:Generated_Source\PSoC4/CapSense_1_Filter.c **** * \param wdType
1550:Generated_Source\PSoC4/CapSense_1_Filter.c **** *  Specifies the type of a widget.
1551:Generated_Source\PSoC4/CapSense_1_Filter.c **** *
1552:Generated_Source\PSoC4/CapSense_1_Filter.c **** *******************************************************************************/
1553:Generated_Source\PSoC4/CapSense_1_Filter.c **** void CapSense_1_ConfigRunALPInternal(CapSense_1_PTR_FILTER_VARIANT ptrFilterHistObj,
1554:Generated_Source\PSoC4/CapSense_1_Filter.c ****                                     CapSense_1_RAM_WD_BASE_STRUCT *ptrRamWdgt,
1555:Generated_Source\PSoC4/CapSense_1_Filter.c ****                                     CapSense_1_RAM_SNS_STRUCT *ptrSensorObj,
1556:Generated_Source\PSoC4/CapSense_1_Filter.c ****                                     uint32 wdType)
1557:Generated_Source\PSoC4/CapSense_1_Filter.c **** {
1558:Generated_Source\PSoC4/CapSense_1_Filter.c ****     ALP_FLTR_CONFIG_STRUCT alpFilterConfig;
1559:Generated_Source\PSoC4/CapSense_1_Filter.c **** 
1560:Generated_Source\PSoC4/CapSense_1_Filter.c ****     alpFilterConfig.configParam0 = ptrRamWdgt->alpOnTh;
1561:Generated_Source\PSoC4/CapSense_1_Filter.c ****     alpFilterConfig.configParam1 = ptrRamWdgt->alpOffTh;
1562:Generated_Source\PSoC4/CapSense_1_Filter.c ****     alpFilterConfig.configParam2 = ptrRamWdgt->fingerTh;
1563:Generated_Source\PSoC4/CapSense_1_Filter.c ****     alpFilterConfig.configParam3 = ptrRamWdgt->noiseTh;
1564:Generated_Source\PSoC4/CapSense_1_Filter.c ****     alpFilterConfig.configParam4 = ptrRamWdgt->hysteresis;
1565:Generated_Source\PSoC4/CapSense_1_Filter.c **** 
1566:Generated_Source\PSoC4/CapSense_1_Filter.c ****     CapSense_1_RunALPInternal(ptrFilterHistObj, &alpFilterConfig, ptrSensorObj, wdType);
1567:Generated_Source\PSoC4/CapSense_1_Filter.c **** }
1568:Generated_Source\PSoC4/CapSense_1_Filter.c **** 
1569:Generated_Source\PSoC4/CapSense_1_Filter.c **** /*******************************************************************************
1570:Generated_Source\PSoC4/CapSense_1_Filter.c **** * Function Name: CapSense_1_RunALPInternal
1571:Generated_Source\PSoC4/CapSense_1_Filter.c **** ****************************************************************************//**
1572:Generated_Source\PSoC4/CapSense_1_Filter.c **** *
1573:Generated_Source\PSoC4/CapSense_1_Filter.c **** * \brief
1574:Generated_Source\PSoC4/CapSense_1_Filter.c **** *  Runs the ALP filter.
1575:Generated_Source\PSoC4/CapSense_1_Filter.c **** *
1576:Generated_Source\PSoC4/CapSense_1_Filter.c **** * \details
1577:Generated_Source\PSoC4/CapSense_1_Filter.c **** *  Runs the ALP filter.
1578:Generated_Source\PSoC4/CapSense_1_Filter.c **** *
1579:Generated_Source\PSoC4/CapSense_1_Filter.c **** * \param ptrFilterHistObj
1580:Generated_Source\PSoC4/CapSense_1_Filter.c **** *  The pointer to the filter RAM object of the sensor.
1581:Generated_Source\PSoC4/CapSense_1_Filter.c **** *
1582:Generated_Source\PSoC4/CapSense_1_Filter.c **** * \param ptrAlpFilterConfig
1583:Generated_Source\PSoC4/CapSense_1_Filter.c **** *  The pointer to the filter configuration object of the sensor.
1584:Generated_Source\PSoC4/CapSense_1_Filter.c **** *
1585:Generated_Source\PSoC4/CapSense_1_Filter.c **** * \param ptrSensorObj
1586:Generated_Source\PSoC4/CapSense_1_Filter.c **** *  The pointer to the sensor RAM object of the sensor.
1587:Generated_Source\PSoC4/CapSense_1_Filter.c **** *
1588:Generated_Source\PSoC4/CapSense_1_Filter.c **** * \param wdType
1589:Generated_Source\PSoC4/CapSense_1_Filter.c **** *  Specifies the type of a widget.
1590:Generated_Source\PSoC4/CapSense_1_Filter.c **** *
1591:Generated_Source\PSoC4/CapSense_1_Filter.c **** *******************************************************************************/
1592:Generated_Source\PSoC4/CapSense_1_Filter.c **** void CapSense_1_RunALPInternal(CapSense_1_PTR_FILTER_VARIANT ptrFilterHistObj,
1593:Generated_Source\PSoC4/CapSense_1_Filter.c ****                                     ALP_FLTR_CONFIG_STRUCT *ptrAlpFilterConfig,
1594:Generated_Source\PSoC4/CapSense_1_Filter.c ****                                     CapSense_1_RAM_SNS_STRUCT *ptrSensorObj,
1595:Generated_Source\PSoC4/CapSense_1_Filter.c ****                                     uint32 wdType)
1596:Generated_Source\PSoC4/CapSense_1_Filter.c **** {
1597:Generated_Source\PSoC4/CapSense_1_Filter.c ****     uint32 freqChannel;
1598:Generated_Source\PSoC4/CapSense_1_Filter.c **** 
1599:Generated_Source\PSoC4/CapSense_1_Filter.c ****     for(freqChannel = CapSense_1_NUM_SCAN_FREQS; freqChannel-- > 0u;)
1600:Generated_Source\PSoC4/CapSense_1_Filter.c ****     {
1601:Generated_Source\PSoC4/CapSense_1_Filter.c ****         if ((CapSense_1_WD_TYPE_ENUM)wdType != CapSense_1_WD_PROXIMITY_E)
1602:Generated_Source\PSoC4/CapSense_1_Filter.c ****         {
1603:Generated_Source\PSoC4/CapSense_1_Filter.c ****             #if (CapSense_1_REGULAR_SENSOR_EN && CapSense_1_REGULAR_RC_ALP_FILTER_EN)
1604:Generated_Source\PSoC4/CapSense_1_Filter.c ****                 ptrAlpFilterConfig->configParam5 = CapSense_1_REGULAR_RC_ALP_FILTER_COEFF;
ARM GAS  C:\Users\Mayur\AppData\Local\Temp\ccxZLytu.s 			page 48


1605:Generated_Source\PSoC4/CapSense_1_Filter.c ****                 ALP_Run(&ptrFilterHistObj.ptrAlp->channel[freqChannel], ptrAlpFilterConfig, &ptrSen
1606:Generated_Source\PSoC4/CapSense_1_Filter.c ****             #endif
1607:Generated_Source\PSoC4/CapSense_1_Filter.c ****         }
1608:Generated_Source\PSoC4/CapSense_1_Filter.c ****         else
1609:Generated_Source\PSoC4/CapSense_1_Filter.c ****         {
1610:Generated_Source\PSoC4/CapSense_1_Filter.c ****             #if (CapSense_1_PROXIMITY_SENSOR_EN && CapSense_1_PROX_RC_ALP_FILTER_EN)
1611:Generated_Source\PSoC4/CapSense_1_Filter.c ****                 ptrAlpFilterConfig->configParam5 = CapSense_1_PROX_RC_ALP_FILTER_COEFF;
1612:Generated_Source\PSoC4/CapSense_1_Filter.c ****                 ALP_Run(&ptrFilterHistObj.ptrAlp->channel[freqChannel], ptrAlpFilterConfig, &ptrSen
1613:Generated_Source\PSoC4/CapSense_1_Filter.c ****             #endif
1614:Generated_Source\PSoC4/CapSense_1_Filter.c ****         }
1615:Generated_Source\PSoC4/CapSense_1_Filter.c ****     }
1616:Generated_Source\PSoC4/CapSense_1_Filter.c **** }
1617:Generated_Source\PSoC4/CapSense_1_Filter.c **** #endif /* (CapSense_1_ENABLE == CapSense_1_ALP_FILTER_EN) */
1618:Generated_Source\PSoC4/CapSense_1_Filter.c **** 
1619:Generated_Source\PSoC4/CapSense_1_Filter.c **** #if (CapSense_1_ENABLE == CapSense_1_RC_FILTER_EN)
1620:Generated_Source\PSoC4/CapSense_1_Filter.c **** /*******************************************************************************
1621:Generated_Source\PSoC4/CapSense_1_Filter.c **** * Function Name: CapSense_1_FtRunEnabledFilters
1622:Generated_Source\PSoC4/CapSense_1_Filter.c **** ****************************************************************************//**
1623:Generated_Source\PSoC4/CapSense_1_Filter.c **** *
1624:Generated_Source\PSoC4/CapSense_1_Filter.c **** * \brief
1625:Generated_Source\PSoC4/CapSense_1_Filter.c **** *  Runs all enabled filters.
1626:Generated_Source\PSoC4/CapSense_1_Filter.c **** *
1627:Generated_Source\PSoC4/CapSense_1_Filter.c **** * \details
1628:Generated_Source\PSoC4/CapSense_1_Filter.c **** *  Runs all enabled filters.
1629:Generated_Source\PSoC4/CapSense_1_Filter.c **** *
1630:Generated_Source\PSoC4/CapSense_1_Filter.c **** * \param widgetId
1631:Generated_Source\PSoC4/CapSense_1_Filter.c **** *  Specifies the ID number of a widget to update the IIR filter history.
1632:Generated_Source\PSoC4/CapSense_1_Filter.c **** *
1633:Generated_Source\PSoC4/CapSense_1_Filter.c **** * \param sensorId
1634:Generated_Source\PSoC4/CapSense_1_Filter.c **** *  Specifies the ID number of a sensor in the widget to update the IIR
1635:Generated_Source\PSoC4/CapSense_1_Filter.c **** *  filter history.
1636:Generated_Source\PSoC4/CapSense_1_Filter.c **** *
1637:Generated_Source\PSoC4/CapSense_1_Filter.c **** *******************************************************************************/
1638:Generated_Source\PSoC4/CapSense_1_Filter.c **** void CapSense_1_FtRunEnabledFilters(uint32 widgetId, uint32 sensorId)
1639:Generated_Source\PSoC4/CapSense_1_Filter.c **** {
1640:Generated_Source\PSoC4/CapSense_1_Filter.c ****     CapSense_1_FLASH_WD_STRUCT const *ptrWidget = &CapSense_1_dsFlash.wdgtArray[widgetId];
1641:Generated_Source\PSoC4/CapSense_1_Filter.c ****     CapSense_1_RAM_SNS_STRUCT *ptrSensor = NULL;
1642:Generated_Source\PSoC4/CapSense_1_Filter.c ****     CapSense_1_PTR_FILTER_VARIANT ptrFilterHistObj;
1643:Generated_Source\PSoC4/CapSense_1_Filter.c **** 
1644:Generated_Source\PSoC4/CapSense_1_Filter.c ****     /* Find pointer to specified sensor object */
1645:Generated_Source\PSoC4/CapSense_1_Filter.c ****     ptrSensor = ptrWidget->ptr2SnsRam;
1646:Generated_Source\PSoC4/CapSense_1_Filter.c ****     ptrSensor = &ptrSensor[sensorId];
1647:Generated_Source\PSoC4/CapSense_1_Filter.c **** 
1648:Generated_Source\PSoC4/CapSense_1_Filter.c ****     /* Find pointer to specified filter sensor object */
1649:Generated_Source\PSoC4/CapSense_1_Filter.c ****     ptrFilterHistObj.ptr = ptrWidget->ptr2FltrHistory;
1650:Generated_Source\PSoC4/CapSense_1_Filter.c **** 
1651:Generated_Source\PSoC4/CapSense_1_Filter.c ****     if ((CapSense_1_WD_TYPE_ENUM)ptrWidget->wdgtType != CapSense_1_WD_PROXIMITY_E)
1652:Generated_Source\PSoC4/CapSense_1_Filter.c ****     {
1653:Generated_Source\PSoC4/CapSense_1_Filter.c ****         #if (0u != CapSense_1_REGULAR_RC_ALP_FILTER_EN)
1654:Generated_Source\PSoC4/CapSense_1_Filter.c ****             ptrFilterHistObj.ptr = &ptrFilterHistObj.ptrAlp[sensorId];
1655:Generated_Source\PSoC4/CapSense_1_Filter.c ****         #elif (0u != CapSense_1_REGULAR_RC_FILTER_EN)
1656:Generated_Source\PSoC4/CapSense_1_Filter.c ****             ptrFilterHistObj.ptr = &ptrFilterHistObj.ptrRegular[sensorId];
1657:Generated_Source\PSoC4/CapSense_1_Filter.c ****         #endif
1658:Generated_Source\PSoC4/CapSense_1_Filter.c ****     }
1659:Generated_Source\PSoC4/CapSense_1_Filter.c ****     else
1660:Generated_Source\PSoC4/CapSense_1_Filter.c ****     {
1661:Generated_Source\PSoC4/CapSense_1_Filter.c ****         #if (0u != CapSense_1_PROX_RC_ALP_FILTER_EN)
ARM GAS  C:\Users\Mayur\AppData\Local\Temp\ccxZLytu.s 			page 49


1662:Generated_Source\PSoC4/CapSense_1_Filter.c ****             ptrFilterHistObj.ptr = &ptrFilterHistObj.ptrAlp[sensorId];
1663:Generated_Source\PSoC4/CapSense_1_Filter.c ****         #elif (0u != CapSense_1_PROX_RC_FILTER_EN)
1664:Generated_Source\PSoC4/CapSense_1_Filter.c ****             ptrFilterHistObj.ptr = &ptrFilterHistObj.ptrProx[sensorId];
1665:Generated_Source\PSoC4/CapSense_1_Filter.c ****         #endif
1666:Generated_Source\PSoC4/CapSense_1_Filter.c ****     }
1667:Generated_Source\PSoC4/CapSense_1_Filter.c **** 
1668:Generated_Source\PSoC4/CapSense_1_Filter.c ****     CapSense_1_FtRunEnabledFiltersInternal(ptrFilterHistObj, ptrSensor, (uint32)ptrWidget->wdgtType
1669:Generated_Source\PSoC4/CapSense_1_Filter.c ****     #if (CapSense_1_ALP_FILTER_EN)
1670:Generated_Source\PSoC4/CapSense_1_Filter.c ****         CapSense_1_ConfigRunALPInternal(ptrFilterHistObj, ptrWidget->ptr2WdgtRam, ptrSensor, (uint3
1671:Generated_Source\PSoC4/CapSense_1_Filter.c ****     #endif
1672:Generated_Source\PSoC4/CapSense_1_Filter.c **** }
1673:Generated_Source\PSoC4/CapSense_1_Filter.c **** 
1674:Generated_Source\PSoC4/CapSense_1_Filter.c **** 
1675:Generated_Source\PSoC4/CapSense_1_Filter.c **** /*******************************************************************************
1676:Generated_Source\PSoC4/CapSense_1_Filter.c **** * Function Name: CapSense_1_FtRunEnabledFiltersInternal
1677:Generated_Source\PSoC4/CapSense_1_Filter.c **** ****************************************************************************//**
1678:Generated_Source\PSoC4/CapSense_1_Filter.c **** *
1679:Generated_Source\PSoC4/CapSense_1_Filter.c **** * \brief
1680:Generated_Source\PSoC4/CapSense_1_Filter.c **** *  Runs all enabled filters.
1681:Generated_Source\PSoC4/CapSense_1_Filter.c **** *
1682:Generated_Source\PSoC4/CapSense_1_Filter.c **** * \details
1683:Generated_Source\PSoC4/CapSense_1_Filter.c **** *  Runs all enabled filters.
1684:Generated_Source\PSoC4/CapSense_1_Filter.c **** *
1685:Generated_Source\PSoC4/CapSense_1_Filter.c **** * \param ptrFilterHistObj
1686:Generated_Source\PSoC4/CapSense_1_Filter.c **** *  The pointer to the filter RAM object of the sensor.
1687:Generated_Source\PSoC4/CapSense_1_Filter.c **** *
1688:Generated_Source\PSoC4/CapSense_1_Filter.c **** * \param ptrSensorObj
1689:Generated_Source\PSoC4/CapSense_1_Filter.c **** *  The pointer to the sensor RAM object of the sensor.
1690:Generated_Source\PSoC4/CapSense_1_Filter.c **** *
1691:Generated_Source\PSoC4/CapSense_1_Filter.c **** * \param wdType
1692:Generated_Source\PSoC4/CapSense_1_Filter.c **** *  Specifies the type of a widget.
1693:Generated_Source\PSoC4/CapSense_1_Filter.c **** *
1694:Generated_Source\PSoC4/CapSense_1_Filter.c **** *******************************************************************************/
1695:Generated_Source\PSoC4/CapSense_1_Filter.c **** void CapSense_1_FtRunEnabledFiltersInternal(CapSense_1_PTR_FILTER_VARIANT ptrFilterHistObj,
1696:Generated_Source\PSoC4/CapSense_1_Filter.c ****                                                   CapSense_1_RAM_SNS_STRUCT *ptrSensorObj, uint32 w
1697:Generated_Source\PSoC4/CapSense_1_Filter.c **** {
1698:Generated_Source\PSoC4/CapSense_1_Filter.c ****     #if (CapSense_1_REGULAR_RC_MEDIAN_FILTER_EN || CapSense_1_PROX_RC_MEDIAN_FILTER_EN)
1699:Generated_Source\PSoC4/CapSense_1_Filter.c ****         CapSense_1_RunMedianInternal(ptrFilterHistObj, ptrSensorObj, wdType);
1700:Generated_Source\PSoC4/CapSense_1_Filter.c ****     #endif /* (CapSense_1_REGULAR_RC_MEDIAN_FILTER_EN || CapSense_1_PROX_RC_MEDIAN_FILTER_EN) */
1701:Generated_Source\PSoC4/CapSense_1_Filter.c **** 
1702:Generated_Source\PSoC4/CapSense_1_Filter.c ****     #if (CapSense_1_REGULAR_RC_IIR_FILTER_EN || CapSense_1_PROX_RC_IIR_FILTER_EN)
1703:Generated_Source\PSoC4/CapSense_1_Filter.c ****         CapSense_1_RunIIRInternal(ptrFilterHistObj, ptrSensorObj, wdType);
1704:Generated_Source\PSoC4/CapSense_1_Filter.c ****     #endif /* (CapSense_1_REGULAR_RC_IIR_FILTER_EN || CapSense_1_PROX_RC_IIR_FILTER_EN) */
1705:Generated_Source\PSoC4/CapSense_1_Filter.c **** 
1706:Generated_Source\PSoC4/CapSense_1_Filter.c ****     #if (CapSense_1_REGULAR_RC_AVERAGE_FILTER_EN || CapSense_1_PROX_RC_AVERAGE_FILTER_EN)
1707:Generated_Source\PSoC4/CapSense_1_Filter.c ****         CapSense_1_RunAverageInternal(ptrFilterHistObj, ptrSensorObj, wdType);
1708:Generated_Source\PSoC4/CapSense_1_Filter.c ****     #endif /* (CapSense_1_REGULAR_RC_AVERAGE_FILTER_EN || CapSense_1_PROX_RC_AVERAGE_FILTER_EN) */
1709:Generated_Source\PSoC4/CapSense_1_Filter.c **** }
1710:Generated_Source\PSoC4/CapSense_1_Filter.c **** #endif /* (CapSense_1_ENABLE == CapSense_1_RC_FILTER_EN) */
1711:Generated_Source\PSoC4/CapSense_1_Filter.c **** 
1712:Generated_Source\PSoC4/CapSense_1_Filter.c **** 
1713:Generated_Source\PSoC4/CapSense_1_Filter.c **** #if (0u != (CapSense_1_CSD_AUTOTUNE & CapSense_1_CSD_SS_TH_EN))
1714:Generated_Source\PSoC4/CapSense_1_Filter.c **** /*******************************************************************************
1715:Generated_Source\PSoC4/CapSense_1_Filter.c **** * Function Name: CapSense_1_RunNoiseEnvelope
1716:Generated_Source\PSoC4/CapSense_1_Filter.c **** ****************************************************************************//**
1717:Generated_Source\PSoC4/CapSense_1_Filter.c **** *
1718:Generated_Source\PSoC4/CapSense_1_Filter.c **** * \brief
ARM GAS  C:\Users\Mayur\AppData\Local\Temp\ccxZLytu.s 			page 50


1719:Generated_Source\PSoC4/CapSense_1_Filter.c **** *  Executes the noise envelope  filter algorithm on a sensor indicated by
1720:Generated_Source\PSoC4/CapSense_1_Filter.c **** *  an input parameter to measure the pk-to-pk noise in the sensor raw count.
1721:Generated_Source\PSoC4/CapSense_1_Filter.c **** *
1722:Generated_Source\PSoC4/CapSense_1_Filter.c **** * \details
1723:Generated_Source\PSoC4/CapSense_1_Filter.c **** *  Executes the noise envelope  filter algorithm on a sensor indicated by
1724:Generated_Source\PSoC4/CapSense_1_Filter.c **** *  an input parameter to measure the pk-to-pk noise in the sensor raw count.
1725:Generated_Source\PSoC4/CapSense_1_Filter.c **** *
1726:Generated_Source\PSoC4/CapSense_1_Filter.c **** * \param widgetId
1727:Generated_Source\PSoC4/CapSense_1_Filter.c **** *  Specifies the ID number of the widget.
1728:Generated_Source\PSoC4/CapSense_1_Filter.c **** *
1729:Generated_Source\PSoC4/CapSense_1_Filter.c **** * \param sensorId
1730:Generated_Source\PSoC4/CapSense_1_Filter.c **** *  Specifies the ID number of the sensor in the widget.
1731:Generated_Source\PSoC4/CapSense_1_Filter.c **** *
1732:Generated_Source\PSoC4/CapSense_1_Filter.c **** *******************************************************************************/
1733:Generated_Source\PSoC4/CapSense_1_Filter.c **** void CapSense_1_RunNoiseEnvelope(uint32 widgetId, uint32 sensorId)
1734:Generated_Source\PSoC4/CapSense_1_Filter.c **** {
 981              		.loc 1 1734 0
 982              		.cfi_startproc
 983              		@ args = 0, pretend = 0, frame = 0
 984              		@ frame_needed = 0, uses_anonymous_args = 0
 985              	.LVL129:
 986 0000 70B5     		push	{r4, r5, r6, lr}
 987              		.cfi_def_cfa_offset 16
 988              		.cfi_offset 4, -16
 989              		.cfi_offset 5, -12
 990              		.cfi_offset 6, -8
 991              		.cfi_offset 14, -4
 992              	.LVL130:
1735:Generated_Source\PSoC4/CapSense_1_Filter.c ****     CapSense_1_FLASH_WD_STRUCT const *ptrWidget = &CapSense_1_dsFlash.wdgtArray[widgetId];
1736:Generated_Source\PSoC4/CapSense_1_Filter.c ****     CapSense_1_RAM_WD_BASE_STRUCT *ptrWidgetRam = ptrWidget->ptr2WdgtRam;
 993              		.loc 1 1736 0
 994 0002 4001     		lsls	r0, r0, #5
 995              	.LVL131:
 996 0004 084B     		ldr	r3, .L60
 997 0006 1818     		adds	r0, r3, r0
 998              	.LVL132:
 999 0008 4668     		ldr	r6, [r0, #4]
 1000              	.LVL133:
1737:Generated_Source\PSoC4/CapSense_1_Filter.c ****     CapSense_1_RAM_SNS_STRUCT *ptrSensor = NULL;
1738:Generated_Source\PSoC4/CapSense_1_Filter.c ****     SMARTSENSE_CSD_NOISE_ENVELOPE_STRUCT *ptrNoiseEnvelope = NULL;
1739:Generated_Source\PSoC4/CapSense_1_Filter.c **** 
1740:Generated_Source\PSoC4/CapSense_1_Filter.c ****     /* Find pointer to specified sensor object */
1741:Generated_Source\PSoC4/CapSense_1_Filter.c ****     ptrSensor = ptrWidget->ptr2SnsRam;
 1001              		.loc 1 1741 0
 1002 000a 8568     		ldr	r5, [r0, #8]
 1003              	.LVL134:
1742:Generated_Source\PSoC4/CapSense_1_Filter.c ****     ptrSensor = &ptrSensor[sensorId];
 1004              		.loc 1 1742 0
 1005 000c 8B00     		lsls	r3, r1, #2
 1006 000e 5B18     		adds	r3, r3, r1
 1007 0010 5C00     		lsls	r4, r3, #1
 1008              	.LVL135:
1743:Generated_Source\PSoC4/CapSense_1_Filter.c **** 
1744:Generated_Source\PSoC4/CapSense_1_Filter.c ****     /* Find pointer to specified filter sensor object */
1745:Generated_Source\PSoC4/CapSense_1_Filter.c ****     ptrNoiseEnvelope = ptrWidget->ptr2NoiseEnvlp;
 1009              		.loc 1 1745 0
 1010 0012 C369     		ldr	r3, [r0, #28]
ARM GAS  C:\Users\Mayur\AppData\Local\Temp\ccxZLytu.s 			page 51


 1011              	.LVL136:
1746:Generated_Source\PSoC4/CapSense_1_Filter.c ****     ptrNoiseEnvelope = &ptrNoiseEnvelope[sensorId];
 1012              		.loc 1 1746 0
 1013 0014 4A00     		lsls	r2, r1, #1
 1014 0016 5118     		adds	r1, r2, r1
 1015              	.LVL137:
 1016 0018 8A00     		lsls	r2, r1, #2
 1017 001a 9A18     		adds	r2, r3, r2
 1018              	.LVL138:
1747:Generated_Source\PSoC4/CapSense_1_Filter.c **** 
1748:Generated_Source\PSoC4/CapSense_1_Filter.c ****     SmartSense_RunNoiseEnvelope(ptrSensor->raw[0u], ptrWidgetRam->sigPFC, ptrNoiseEnvelope);
 1019              		.loc 1 1748 0
 1020 001c 318A     		ldrh	r1, [r6, #16]
 1021 001e 285B     		ldrh	r0, [r5, r4]
 1022              	.LVL139:
 1023 0020 FFF7FEFF 		bl	SmartSense_RunNoiseEnvelope
 1024              	.LVL140:
1749:Generated_Source\PSoC4/CapSense_1_Filter.c **** }
 1025              		.loc 1 1749 0
 1026              		@ sp needed
 1027              	.LVL141:
 1028              	.LVL142:
 1029              	.LVL143:
 1030 0024 70BD     		pop	{r4, r5, r6, pc}
 1031              	.L61:
 1032 0026 C046     		.align	2
 1033              	.L60:
 1034 0028 00000000 		.word	CapSense_1_dsFlash
 1035              		.cfi_endproc
 1036              	.LFE26:
 1037              		.size	CapSense_1_RunNoiseEnvelope, .-CapSense_1_RunNoiseEnvelope
 1038              		.section	.text.CapSense_1_InitializeNoiseEnvelope,"ax",%progbits
 1039              		.align	2
 1040              		.global	CapSense_1_InitializeNoiseEnvelope
 1041              		.code	16
 1042              		.thumb_func
 1043              		.type	CapSense_1_InitializeNoiseEnvelope, %function
 1044              	CapSense_1_InitializeNoiseEnvelope:
 1045              	.LFB27:
1750:Generated_Source\PSoC4/CapSense_1_Filter.c **** 
1751:Generated_Source\PSoC4/CapSense_1_Filter.c **** 
1752:Generated_Source\PSoC4/CapSense_1_Filter.c **** /*******************************************************************************
1753:Generated_Source\PSoC4/CapSense_1_Filter.c **** * Function Name: CapSense_1_InitializeNoiseEnvelope
1754:Generated_Source\PSoC4/CapSense_1_Filter.c **** ****************************************************************************//**
1755:Generated_Source\PSoC4/CapSense_1_Filter.c **** *
1756:Generated_Source\PSoC4/CapSense_1_Filter.c **** * \brief
1757:Generated_Source\PSoC4/CapSense_1_Filter.c **** *  Initializes the noise-envelope filter
1758:Generated_Source\PSoC4/CapSense_1_Filter.c **** *
1759:Generated_Source\PSoC4/CapSense_1_Filter.c **** * \details
1760:Generated_Source\PSoC4/CapSense_1_Filter.c **** *  Initializes the noise-envelope filter
1761:Generated_Source\PSoC4/CapSense_1_Filter.c **** *
1762:Generated_Source\PSoC4/CapSense_1_Filter.c **** * \param widgetId
1763:Generated_Source\PSoC4/CapSense_1_Filter.c **** *  Specifies the ID number of the widget.
1764:Generated_Source\PSoC4/CapSense_1_Filter.c **** *
1765:Generated_Source\PSoC4/CapSense_1_Filter.c **** * \param sensorId
1766:Generated_Source\PSoC4/CapSense_1_Filter.c **** *  Specifies the ID number of the sensor in the widget.
1767:Generated_Source\PSoC4/CapSense_1_Filter.c **** *
ARM GAS  C:\Users\Mayur\AppData\Local\Temp\ccxZLytu.s 			page 52


1768:Generated_Source\PSoC4/CapSense_1_Filter.c **** *******************************************************************************/
1769:Generated_Source\PSoC4/CapSense_1_Filter.c **** void CapSense_1_InitializeNoiseEnvelope(uint32 widgetId, uint32 sensorId)
1770:Generated_Source\PSoC4/CapSense_1_Filter.c **** {
 1046              		.loc 1 1770 0
 1047              		.cfi_startproc
 1048              		@ args = 0, pretend = 0, frame = 0
 1049              		@ frame_needed = 0, uses_anonymous_args = 0
 1050              	.LVL144:
 1051 0000 70B5     		push	{r4, r5, r6, lr}
 1052              		.cfi_def_cfa_offset 16
 1053              		.cfi_offset 4, -16
 1054              		.cfi_offset 5, -12
 1055              		.cfi_offset 6, -8
 1056              		.cfi_offset 14, -4
 1057              	.LVL145:
1771:Generated_Source\PSoC4/CapSense_1_Filter.c ****     CapSense_1_FLASH_WD_STRUCT const *ptrWidget = &CapSense_1_dsFlash.wdgtArray[widgetId];
1772:Generated_Source\PSoC4/CapSense_1_Filter.c ****     CapSense_1_RAM_WD_BASE_STRUCT *ptrWidgetRam = ptrWidget->ptr2WdgtRam;
 1058              		.loc 1 1772 0
 1059 0002 4001     		lsls	r0, r0, #5
 1060              	.LVL146:
 1061 0004 084B     		ldr	r3, .L63
 1062 0006 1818     		adds	r0, r3, r0
 1063              	.LVL147:
 1064 0008 4668     		ldr	r6, [r0, #4]
 1065              	.LVL148:
1773:Generated_Source\PSoC4/CapSense_1_Filter.c ****     CapSense_1_RAM_SNS_STRUCT *ptrSensor = NULL;
1774:Generated_Source\PSoC4/CapSense_1_Filter.c ****     SMARTSENSE_CSD_NOISE_ENVELOPE_STRUCT *ptrNoiseEnvelope = NULL;
1775:Generated_Source\PSoC4/CapSense_1_Filter.c **** 
1776:Generated_Source\PSoC4/CapSense_1_Filter.c ****     /* Find pointer to specified sensor object */
1777:Generated_Source\PSoC4/CapSense_1_Filter.c ****     ptrSensor = ptrWidget->ptr2SnsRam;
 1066              		.loc 1 1777 0
 1067 000a 8568     		ldr	r5, [r0, #8]
 1068              	.LVL149:
1778:Generated_Source\PSoC4/CapSense_1_Filter.c ****     ptrSensor = &ptrSensor[sensorId];
 1069              		.loc 1 1778 0
 1070 000c 8B00     		lsls	r3, r1, #2
 1071 000e 5B18     		adds	r3, r3, r1
 1072 0010 5C00     		lsls	r4, r3, #1
 1073              	.LVL150:
1779:Generated_Source\PSoC4/CapSense_1_Filter.c **** 
1780:Generated_Source\PSoC4/CapSense_1_Filter.c ****     /* Find pointer to specified filter sensor object */
1781:Generated_Source\PSoC4/CapSense_1_Filter.c ****     ptrNoiseEnvelope = ptrWidget->ptr2NoiseEnvlp;
 1074              		.loc 1 1781 0
 1075 0012 C369     		ldr	r3, [r0, #28]
 1076              	.LVL151:
1782:Generated_Source\PSoC4/CapSense_1_Filter.c ****     ptrNoiseEnvelope = &ptrNoiseEnvelope[sensorId];
 1077              		.loc 1 1782 0
 1078 0014 4A00     		lsls	r2, r1, #1
 1079 0016 5118     		adds	r1, r2, r1
 1080              	.LVL152:
 1081 0018 8A00     		lsls	r2, r1, #2
 1082 001a 9A18     		adds	r2, r3, r2
 1083              	.LVL153:
1783:Generated_Source\PSoC4/CapSense_1_Filter.c **** 
1784:Generated_Source\PSoC4/CapSense_1_Filter.c ****     SmartSense_InitializeNoiseEnvelope(ptrSensor->raw[0u], ptrWidgetRam->sigPFC, ptrNoiseEnvelope);
 1084              		.loc 1 1784 0
 1085 001c 318A     		ldrh	r1, [r6, #16]
ARM GAS  C:\Users\Mayur\AppData\Local\Temp\ccxZLytu.s 			page 53


 1086 001e 285B     		ldrh	r0, [r5, r4]
 1087              	.LVL154:
 1088 0020 FFF7FEFF 		bl	SmartSense_InitializeNoiseEnvelope
 1089              	.LVL155:
1785:Generated_Source\PSoC4/CapSense_1_Filter.c **** }
 1090              		.loc 1 1785 0
 1091              		@ sp needed
 1092              	.LVL156:
 1093              	.LVL157:
 1094              	.LVL158:
 1095 0024 70BD     		pop	{r4, r5, r6, pc}
 1096              	.L64:
 1097 0026 C046     		.align	2
 1098              	.L63:
 1099 0028 00000000 		.word	CapSense_1_dsFlash
 1100              		.cfi_endproc
 1101              	.LFE27:
 1102              		.size	CapSense_1_InitializeNoiseEnvelope, .-CapSense_1_InitializeNoiseEnvelope
 1103              		.section	.text.CapSense_1_FtMedian,"ax",%progbits
 1104              		.align	2
 1105              		.global	CapSense_1_FtMedian
 1106              		.code	16
 1107              		.thumb_func
 1108              		.type	CapSense_1_FtMedian, %function
 1109              	CapSense_1_FtMedian:
 1110              	.LFB28:
1786:Generated_Source\PSoC4/CapSense_1_Filter.c **** #endif /* (0u != (CapSense_1_CSD_AUTOTUNE & CapSense_1_CSD_SS_TH_EN)) */
1787:Generated_Source\PSoC4/CapSense_1_Filter.c **** 
1788:Generated_Source\PSoC4/CapSense_1_Filter.c **** 
1789:Generated_Source\PSoC4/CapSense_1_Filter.c **** #if (CapSense_1_POS_MEDIAN_FILTER_EN || CapSense_1_REGULAR_RC_MEDIAN_FILTER_EN || CapSense_1_PROX_R
1790:Generated_Source\PSoC4/CapSense_1_Filter.c **** /*******************************************************************************
1791:Generated_Source\PSoC4/CapSense_1_Filter.c **** * Function Name: CapSense_1_FtMedian
1792:Generated_Source\PSoC4/CapSense_1_Filter.c **** ****************************************************************************//**
1793:Generated_Source\PSoC4/CapSense_1_Filter.c **** *
1794:Generated_Source\PSoC4/CapSense_1_Filter.c **** * \brief
1795:Generated_Source\PSoC4/CapSense_1_Filter.c **** *  Return the median value from the three passed arguments.
1796:Generated_Source\PSoC4/CapSense_1_Filter.c **** *
1797:Generated_Source\PSoC4/CapSense_1_Filter.c **** * \details
1798:Generated_Source\PSoC4/CapSense_1_Filter.c **** *  Return the median value from the three passed arguments.
1799:Generated_Source\PSoC4/CapSense_1_Filter.c **** *
1800:Generated_Source\PSoC4/CapSense_1_Filter.c **** * \param x1
1801:Generated_Source\PSoC4/CapSense_1_Filter.c **** *  The first value to be compared.
1802:Generated_Source\PSoC4/CapSense_1_Filter.c **** *
1803:Generated_Source\PSoC4/CapSense_1_Filter.c **** * \param x2
1804:Generated_Source\PSoC4/CapSense_1_Filter.c **** *  The second value to be compared.
1805:Generated_Source\PSoC4/CapSense_1_Filter.c **** *
1806:Generated_Source\PSoC4/CapSense_1_Filter.c **** * \param x3
1807:Generated_Source\PSoC4/CapSense_1_Filter.c **** *  The third value to be compared.
1808:Generated_Source\PSoC4/CapSense_1_Filter.c **** *
1809:Generated_Source\PSoC4/CapSense_1_Filter.c **** * \return
1810:Generated_Source\PSoC4/CapSense_1_Filter.c **** *  Returns the median value of input arguments.
1811:Generated_Source\PSoC4/CapSense_1_Filter.c **** *
1812:Generated_Source\PSoC4/CapSense_1_Filter.c **** *******************************************************************************/
1813:Generated_Source\PSoC4/CapSense_1_Filter.c **** uint32 CapSense_1_FtMedian(uint32 x1, uint32 x2, uint32 x3)
1814:Generated_Source\PSoC4/CapSense_1_Filter.c **** {
 1111              		.loc 1 1814 0
 1112              		.cfi_startproc
ARM GAS  C:\Users\Mayur\AppData\Local\Temp\ccxZLytu.s 			page 54


 1113              		@ args = 0, pretend = 0, frame = 0
 1114              		@ frame_needed = 0, uses_anonymous_args = 0
 1115              		@ link register save eliminated.
 1116              	.LVL159:
1815:Generated_Source\PSoC4/CapSense_1_Filter.c ****     uint32 tmp;
1816:Generated_Source\PSoC4/CapSense_1_Filter.c **** 
1817:Generated_Source\PSoC4/CapSense_1_Filter.c ****     if (x1 > x2)
 1117              		.loc 1 1817 0
 1118 0000 8842     		cmp	r0, r1
 1119 0002 02D9     		bls	.L66
 1120 0004 0300     		movs	r3, r0
1818:Generated_Source\PSoC4/CapSense_1_Filter.c ****     {
1819:Generated_Source\PSoC4/CapSense_1_Filter.c ****         tmp = x2;
1820:Generated_Source\PSoC4/CapSense_1_Filter.c ****         x2 = x1;
1821:Generated_Source\PSoC4/CapSense_1_Filter.c ****         x1 = tmp;
 1121              		.loc 1 1821 0
 1122 0006 0800     		movs	r0, r1
 1123              	.LVL160:
1820:Generated_Source\PSoC4/CapSense_1_Filter.c ****         x1 = tmp;
 1124              		.loc 1 1820 0
 1125 0008 1900     		movs	r1, r3
 1126              	.LVL161:
 1127              	.L66:
1822:Generated_Source\PSoC4/CapSense_1_Filter.c ****     }
1823:Generated_Source\PSoC4/CapSense_1_Filter.c **** 
1824:Generated_Source\PSoC4/CapSense_1_Filter.c ****     if (x2 > x3)
 1128              		.loc 1 1824 0
 1129 000a 9142     		cmp	r1, r2
 1130 000c 00D9     		bls	.L67
1825:Generated_Source\PSoC4/CapSense_1_Filter.c ****     {
1826:Generated_Source\PSoC4/CapSense_1_Filter.c ****         x2 = x3;
 1131              		.loc 1 1826 0
 1132 000e 1100     		movs	r1, r2
 1133              	.LVL162:
 1134              	.L67:
1827:Generated_Source\PSoC4/CapSense_1_Filter.c ****     }
1828:Generated_Source\PSoC4/CapSense_1_Filter.c **** 
1829:Generated_Source\PSoC4/CapSense_1_Filter.c ****     return ((x1 > x2) ? x1 : x2);
 1135              		.loc 1 1829 0
 1136 0010 8842     		cmp	r0, r1
 1137 0012 00D2     		bcs	.L68
 1138 0014 0800     		movs	r0, r1
 1139              	.LVL163:
 1140              	.L68:
1830:Generated_Source\PSoC4/CapSense_1_Filter.c **** }
 1141              		.loc 1 1830 0
 1142              		@ sp needed
 1143 0016 7047     		bx	lr
 1144              		.cfi_endproc
 1145              	.LFE28:
 1146              		.size	CapSense_1_FtMedian, .-CapSense_1_FtMedian
 1147              		.section	.text.CapSense_1_RunMedianInternal,"ax",%progbits
 1148              		.align	2
 1149              		.global	CapSense_1_RunMedianInternal
 1150              		.code	16
 1151              		.thumb_func
 1152              		.type	CapSense_1_RunMedianInternal, %function
ARM GAS  C:\Users\Mayur\AppData\Local\Temp\ccxZLytu.s 			page 55


 1153              	CapSense_1_RunMedianInternal:
 1154              	.LFB19:
1127:Generated_Source\PSoC4/CapSense_1_Filter.c ****     uint32 freqChannel;
 1155              		.loc 1 1127 0
 1156              		.cfi_startproc
 1157              		@ args = 0, pretend = 0, frame = 8
 1158              		@ frame_needed = 0, uses_anonymous_args = 0
 1159              	.LVL164:
 1160 0000 F0B5     		push	{r4, r5, r6, r7, lr}
 1161              		.cfi_def_cfa_offset 20
 1162              		.cfi_offset 4, -20
 1163              		.cfi_offset 5, -16
 1164              		.cfi_offset 6, -12
 1165              		.cfi_offset 7, -8
 1166              		.cfi_offset 14, -4
 1167 0002 4F46     		mov	r7, r9
 1168 0004 4646     		mov	r6, r8
 1169 0006 C0B4     		push	{r6, r7}
 1170              		.cfi_def_cfa_offset 28
 1171              		.cfi_offset 8, -28
 1172              		.cfi_offset 9, -24
 1173 0008 83B0     		sub	sp, sp, #12
 1174              		.cfi_def_cfa_offset 40
 1175 000a 0190     		str	r0, [sp, #4]
 1176 000c 0F00     		movs	r7, r1
 1177 000e 9046     		mov	r8, r2
 1178              	.LVL165:
1135:Generated_Source\PSoC4/CapSense_1_Filter.c ****     {
 1179              		.loc 1 1135 0
 1180 0010 0123     		movs	r3, #1
 1181 0012 17E0     		b	.L72
 1182              	.LVL166:
 1183              	.L74:
1137:Generated_Source\PSoC4/CapSense_1_Filter.c ****         {
 1184              		.loc 1 1137 0
 1185 0014 FF23     		movs	r3, #255
 1186 0016 4246     		mov	r2, r8
 1187 0018 1340     		ands	r3, r2
 1188 001a 062B     		cmp	r3, #6
 1189 001c 11D0     		beq	.L73
 1190              	.LVL167:
1140:Generated_Source\PSoC4/CapSense_1_Filter.c ****                                                  (uint32)ptrFilterHistObj.ptrRegular->regularChanne
 1191              		.loc 1 1140 0
 1192 001e 6E00     		lsls	r6, r5, #1
 1193 0020 F05B     		ldrh	r0, [r6, r7]
 1194              	.LVL168:
1141:Generated_Source\PSoC4/CapSense_1_Filter.c ****                                                  (uint32)ptrFilterHistObj.ptrRegular->regularChanne
 1195              		.loc 1 1141 0
 1196 0022 7319     		adds	r3, r6, r5
 1197 0024 9C00     		lsls	r4, r3, #2
 1198 0026 019B     		ldr	r3, [sp, #4]
 1199              	.LVL169:
 1200 0028 9C46     		mov	ip, r3
 1201 002a 6444     		add	r4, r4, ip
 1202 002c 6388     		ldrh	r3, [r4, #2]
 1203              	.LVL170:
 1204 002e 9946     		mov	r9, r3
ARM GAS  C:\Users\Mayur\AppData\Local\Temp\ccxZLytu.s 			page 56


1142:Generated_Source\PSoC4/CapSense_1_Filter.c ****                 ptrFilterHistObj.ptrRegular->regularChannel[freqChannel].medHistory[1u] = \
 1205              		.loc 1 1142 0
 1206 0030 A288     		ldrh	r2, [r4, #4]
 1207              	.LVL171:
1140:Generated_Source\PSoC4/CapSense_1_Filter.c ****                                                  (uint32)ptrFilterHistObj.ptrRegular->regularChanne
 1208              		.loc 1 1140 0
 1209 0032 1900     		movs	r1, r3
 1210 0034 FFF7FEFF 		bl	CapSense_1_FtMedian
 1211              	.LVL172:
1143:Generated_Source\PSoC4/CapSense_1_Filter.c ****                 ptrFilterHistObj.ptrRegular->regularChannel[freqChannel].medHistory[0u];
 1212              		.loc 1 1143 0
 1213 0038 4B46     		mov	r3, r9
 1214 003a A380     		strh	r3, [r4, #4]
1145:Generated_Source\PSoC4/CapSense_1_Filter.c ****                 ptrSensorObj->raw[freqChannel] = LO16(temp);
 1215              		.loc 1 1145 0
 1216 003c F35B     		ldrh	r3, [r6, r7]
 1217 003e 6380     		strh	r3, [r4, #2]
1146:Generated_Source\PSoC4/CapSense_1_Filter.c ****             #endif /* (CapSense_1_REGULAR_SENSOR_EN) */
 1218              		.loc 1 1146 0
 1219 0040 B853     		strh	r0, [r7, r6]
 1220              	.LVL173:
 1221              	.L73:
1127:Generated_Source\PSoC4/CapSense_1_Filter.c ****     uint32 freqChannel;
 1222              		.loc 1 1127 0 discriminator 1
 1223 0042 2B00     		movs	r3, r5
 1224              	.LVL174:
 1225              	.L72:
1135:Generated_Source\PSoC4/CapSense_1_Filter.c ****     {
 1226              		.loc 1 1135 0 discriminator 1
 1227 0044 5D1E     		subs	r5, r3, #1
 1228              	.LVL175:
 1229 0046 002B     		cmp	r3, #0
 1230 0048 E4D1     		bne	.L74
1162:Generated_Source\PSoC4/CapSense_1_Filter.c **** #endif /* (CapSense_1_REGULAR_RC_MEDIAN_FILTER_EN || CapSense_1_PROX_RC_MEDIAN_FILTER_EN) */
 1231              		.loc 1 1162 0
 1232 004a 03B0     		add	sp, sp, #12
 1233              		@ sp needed
 1234              	.LVL176:
 1235              	.LVL177:
 1236              	.LVL178:
 1237 004c 0CBC     		pop	{r2, r3}
 1238 004e 9046     		mov	r8, r2
 1239 0050 9946     		mov	r9, r3
 1240 0052 F0BD     		pop	{r4, r5, r6, r7, pc}
 1241              		.cfi_endproc
 1242              	.LFE19:
 1243              		.size	CapSense_1_RunMedianInternal, .-CapSense_1_RunMedianInternal
 1244              		.section	.text.CapSense_1_RunMedian,"ax",%progbits
 1245              		.align	2
 1246              		.global	CapSense_1_RunMedian
 1247              		.code	16
 1248              		.thumb_func
 1249              		.type	CapSense_1_RunMedian, %function
 1250              	CapSense_1_RunMedian:
 1251              	.LFB17:
1031:Generated_Source\PSoC4/CapSense_1_Filter.c ****     CapSense_1_FLASH_WD_STRUCT const *ptrWidget = &CapSense_1_dsFlash.wdgtArray[widgetId];
 1252              		.loc 1 1031 0
ARM GAS  C:\Users\Mayur\AppData\Local\Temp\ccxZLytu.s 			page 57


 1253              		.cfi_startproc
 1254              		@ args = 0, pretend = 0, frame = 0
 1255              		@ frame_needed = 0, uses_anonymous_args = 0
 1256              	.LVL179:
 1257 0000 70B5     		push	{r4, r5, r6, lr}
 1258              		.cfi_def_cfa_offset 16
 1259              		.cfi_offset 4, -16
 1260              		.cfi_offset 5, -12
 1261              		.cfi_offset 6, -8
 1262              		.cfi_offset 14, -4
 1263 0002 0C00     		movs	r4, r1
 1264              	.LVL180:
1037:Generated_Source\PSoC4/CapSense_1_Filter.c ****     ptrSensor = &ptrSensor[sensorId];
 1265              		.loc 1 1037 0
 1266 0004 4001     		lsls	r0, r0, #5
 1267              	.LVL181:
 1268 0006 0A4B     		ldr	r3, .L77
 1269 0008 1B18     		adds	r3, r3, r0
 1270              	.LVL182:
1038:Generated_Source\PSoC4/CapSense_1_Filter.c **** 
 1271              		.loc 1 1038 0
 1272 000a 8A00     		lsls	r2, r1, #2
 1273 000c 5218     		adds	r2, r2, r1
 1274 000e 5100     		lsls	r1, r2, #1
 1275              	.LVL183:
 1276 0010 9A68     		ldr	r2, [r3, #8]
 1277 0012 9446     		mov	ip, r2
 1278 0014 6144     		add	r1, r1, ip
 1279              	.LVL184:
1041:Generated_Source\PSoC4/CapSense_1_Filter.c **** 
 1280              		.loc 1 1041 0
 1281 0016 DD68     		ldr	r5, [r3, #12]
 1282 0018 2800     		movs	r0, r5
 1283              	.LVL185:
1043:Generated_Source\PSoC4/CapSense_1_Filter.c ****     {
 1284              		.loc 1 1043 0
 1285 001a 9A7E     		ldrb	r2, [r3, #26]
 1286 001c 062A     		cmp	r2, #6
 1287 001e 03D0     		beq	.L76
1046:Generated_Source\PSoC4/CapSense_1_Filter.c ****         #endif /* (CapSense_1_REGULAR_SENSOR_EN) */
 1288              		.loc 1 1046 0
 1289 0020 6300     		lsls	r3, r4, #1
 1290              	.LVL186:
 1291 0022 1C19     		adds	r4, r3, r4
 1292              	.LVL187:
 1293 0024 A000     		lsls	r0, r4, #2
 1294 0026 2818     		adds	r0, r5, r0
 1295              	.L76:
1056:Generated_Source\PSoC4/CapSense_1_Filter.c **** }
 1296              		.loc 1 1056 0
 1297 0028 FFF7FEFF 		bl	CapSense_1_RunMedianInternal
 1298              	.LVL188:
1057:Generated_Source\PSoC4/CapSense_1_Filter.c **** 
 1299              		.loc 1 1057 0
 1300              		@ sp needed
 1301 002c 70BD     		pop	{r4, r5, r6, pc}
 1302              	.L78:
ARM GAS  C:\Users\Mayur\AppData\Local\Temp\ccxZLytu.s 			page 58


 1303 002e C046     		.align	2
 1304              	.L77:
 1305 0030 00000000 		.word	CapSense_1_dsFlash
 1306              		.cfi_endproc
 1307              	.LFE17:
 1308              		.size	CapSense_1_RunMedian, .-CapSense_1_RunMedian
 1309              		.section	.text.CapSense_1_FtIIR1stOrder,"ax",%progbits
 1310              		.align	2
 1311              		.global	CapSense_1_FtIIR1stOrder
 1312              		.code	16
 1313              		.thumb_func
 1314              		.type	CapSense_1_FtIIR1stOrder, %function
 1315              	CapSense_1_FtIIR1stOrder:
 1316              	.LFB29:
1831:Generated_Source\PSoC4/CapSense_1_Filter.c **** #endif /*CapSense_1_POS_MEDIAN_FILTER_EN || CapSense_1_REGULAR_RC_MEDIAN_FILTER_EN || CapSense_1_PR
1832:Generated_Source\PSoC4/CapSense_1_Filter.c **** 
1833:Generated_Source\PSoC4/CapSense_1_Filter.c **** 
1834:Generated_Source\PSoC4/CapSense_1_Filter.c **** /*******************************************************************************
1835:Generated_Source\PSoC4/CapSense_1_Filter.c **** * Function Name: CapSense_1_FtIIR1stOrder
1836:Generated_Source\PSoC4/CapSense_1_Filter.c **** ****************************************************************************//**
1837:Generated_Source\PSoC4/CapSense_1_Filter.c **** *
1838:Generated_Source\PSoC4/CapSense_1_Filter.c **** * \brief
1839:Generated_Source\PSoC4/CapSense_1_Filter.c **** *  Return the filtered data by the IIR 1-st order algorithm
1840:Generated_Source\PSoC4/CapSense_1_Filter.c **** *
1841:Generated_Source\PSoC4/CapSense_1_Filter.c **** * \details
1842:Generated_Source\PSoC4/CapSense_1_Filter.c **** *  Return the filtered data by the IIR 1-st order algorithm
1843:Generated_Source\PSoC4/CapSense_1_Filter.c **** *
1844:Generated_Source\PSoC4/CapSense_1_Filter.c **** * \param input
1845:Generated_Source\PSoC4/CapSense_1_Filter.c **** *  The data to be filtered.
1846:Generated_Source\PSoC4/CapSense_1_Filter.c **** *
1847:Generated_Source\PSoC4/CapSense_1_Filter.c **** * \param prevOutput
1848:Generated_Source\PSoC4/CapSense_1_Filter.c **** *  The previous filtered data.
1849:Generated_Source\PSoC4/CapSense_1_Filter.c **** *
1850:Generated_Source\PSoC4/CapSense_1_Filter.c **** * \param n
1851:Generated_Source\PSoC4/CapSense_1_Filter.c **** *  The IIR filter coefficient (n/256).
1852:Generated_Source\PSoC4/CapSense_1_Filter.c **** *
1853:Generated_Source\PSoC4/CapSense_1_Filter.c **** * \param shift
1854:Generated_Source\PSoC4/CapSense_1_Filter.c **** *  The parameter is used to shift input data to have free LSB
1855:Generated_Source\PSoC4/CapSense_1_Filter.c **** *  bits for a fraction storage of the filter output calculation.
1856:Generated_Source\PSoC4/CapSense_1_Filter.c **** *
1857:Generated_Source\PSoC4/CapSense_1_Filter.c **** * \return
1858:Generated_Source\PSoC4/CapSense_1_Filter.c **** *  Returns the filtered data.
1859:Generated_Source\PSoC4/CapSense_1_Filter.c **** *
1860:Generated_Source\PSoC4/CapSense_1_Filter.c **** *******************************************************************************/
1861:Generated_Source\PSoC4/CapSense_1_Filter.c **** uint32 CapSense_1_FtIIR1stOrder(uint32 input, uint32 prevOutput, uint32 n, uint32 shift)
1862:Generated_Source\PSoC4/CapSense_1_Filter.c **** {
 1317              		.loc 1 1862 0
 1318              		.cfi_startproc
 1319              		@ args = 0, pretend = 0, frame = 0
 1320              		@ frame_needed = 0, uses_anonymous_args = 0
 1321              		@ link register save eliminated.
 1322              	.LVL189:
1863:Generated_Source\PSoC4/CapSense_1_Filter.c ****     uint32 filteredOutput;
1864:Generated_Source\PSoC4/CapSense_1_Filter.c **** 
1865:Generated_Source\PSoC4/CapSense_1_Filter.c ****     /*
1866:Generated_Source\PSoC4/CapSense_1_Filter.c ****     * n - IIR filter coefficient (n/256)
1867:Generated_Source\PSoC4/CapSense_1_Filter.c ****     * shift - Used to shift input data to have free LSB bits
ARM GAS  C:\Users\Mayur\AppData\Local\Temp\ccxZLytu.s 			page 59


1868:Generated_Source\PSoC4/CapSense_1_Filter.c ****     * for fraction storage of filter output calculation
1869:Generated_Source\PSoC4/CapSense_1_Filter.c ****     */
1870:Generated_Source\PSoC4/CapSense_1_Filter.c ****     filteredOutput = ((n * (input << shift)) + ((CapSense_1_IIR_COEFFICIENT_K - n) * prevOutput)) >
 1323              		.loc 1 1870 0
 1324 0000 9840     		lsls	r0, r0, r3
 1325              	.LVL190:
 1326 0002 5043     		muls	r0, r2
 1327 0004 8023     		movs	r3, #128
 1328              	.LVL191:
 1329 0006 5B00     		lsls	r3, r3, #1
 1330 0008 9A1A     		subs	r2, r3, r2
 1331              	.LVL192:
 1332 000a 5143     		muls	r1, r2
 1333              	.LVL193:
 1334 000c 4018     		adds	r0, r0, r1
 1335 000e 000A     		lsrs	r0, r0, #8
 1336              	.LVL194:
1871:Generated_Source\PSoC4/CapSense_1_Filter.c **** 
1872:Generated_Source\PSoC4/CapSense_1_Filter.c ****     /* Shift operation of output will be done in upper level API if needed */
1873:Generated_Source\PSoC4/CapSense_1_Filter.c ****     return filteredOutput;
1874:Generated_Source\PSoC4/CapSense_1_Filter.c **** }
 1337              		.loc 1 1874 0
 1338              		@ sp needed
 1339 0010 7047     		bx	lr
 1340              		.cfi_endproc
 1341              	.LFE29:
 1342              		.size	CapSense_1_FtIIR1stOrder, .-CapSense_1_FtIIR1stOrder
 1343 0012 C046     		.section	.text.CapSense_1_FtUpdateBaseline,"ax",%progbits
 1344              		.align	2
 1345              		.global	CapSense_1_FtUpdateBaseline
 1346              		.code	16
 1347              		.thumb_func
 1348              		.type	CapSense_1_FtUpdateBaseline, %function
 1349              	CapSense_1_FtUpdateBaseline:
 1350              	.LFB4:
 259:Generated_Source\PSoC4/CapSense_1_Filter.c ****     uint32 sign;
 1351              		.loc 1 259 0
 1352              		.cfi_startproc
 1353              		@ args = 0, pretend = 0, frame = 8
 1354              		@ frame_needed = 0, uses_anonymous_args = 0
 1355              	.LVL195:
 1356 0000 F0B5     		push	{r4, r5, r6, r7, lr}
 1357              		.cfi_def_cfa_offset 20
 1358              		.cfi_offset 4, -20
 1359              		.cfi_offset 5, -16
 1360              		.cfi_offset 6, -12
 1361              		.cfi_offset 7, -8
 1362              		.cfi_offset 14, -4
 1363 0002 4746     		mov	r7, r8
 1364 0004 80B4     		push	{r7}
 1365              		.cfi_def_cfa_offset 24
 1366              		.cfi_offset 8, -24
 1367 0006 82B0     		sub	sp, sp, #8
 1368              		.cfi_def_cfa_offset 32
 1369 0008 0700     		movs	r7, r0
 1370 000a 0E00     		movs	r6, r1
 1371 000c 0192     		str	r2, [sp, #4]
ARM GAS  C:\Users\Mayur\AppData\Local\Temp\ccxZLytu.s 			page 60


 1372              	.LVL196:
 271:Generated_Source\PSoC4/CapSense_1_Filter.c ****     {
 1373              		.loc 1 271 0
 1374 000e 0123     		movs	r3, #1
 1375 0010 3EE0     		b	.L81
 1376              	.LVL197:
 1377              	.L88:
 283:Generated_Source\PSoC4/CapSense_1_Filter.c ****         {
 1378              		.loc 1 283 0
 1379 0012 6300     		lsls	r3, r4, #1
 1380 0014 985B     		ldrh	r0, [r3, r6]
 1381 0016 F318     		adds	r3, r6, r3
 1382 0018 5988     		ldrh	r1, [r3, #2]
 1383 001a 8842     		cmp	r0, r1
 1384 001c 05D3     		bcc	.L82
 285:Generated_Source\PSoC4/CapSense_1_Filter.c ****             sign = 1u;
 1385              		.loc 1 285 0
 1386 001e 431A     		subs	r3, r0, r1
 1387              	.LVL198:
 287:Generated_Source\PSoC4/CapSense_1_Filter.c ****         }
 1388              		.loc 1 287 0
 1389 0020 3219     		adds	r2, r6, r4
 1390 0022 0025     		movs	r5, #0
 1391 0024 1572     		strb	r5, [r2, #8]
 286:Generated_Source\PSoC4/CapSense_1_Filter.c ****             ptrSensor->negBslnRstCnt[freqChannel] = 0u;
 1392              		.loc 1 286 0
 1393 0026 0122     		movs	r2, #1
 1394 0028 01E0     		b	.L83
 1395              	.LVL199:
 1396              	.L82:
 291:Generated_Source\PSoC4/CapSense_1_Filter.c ****             sign = 0u;
 1397              		.loc 1 291 0
 1398 002a 0B1A     		subs	r3, r1, r0
 1399              	.LVL200:
 292:Generated_Source\PSoC4/CapSense_1_Filter.c ****         }
 1400              		.loc 1 292 0
 1401 002c 0022     		movs	r2, #0
 1402              	.LVL201:
 1403              	.L83:
 296:Generated_Source\PSoC4/CapSense_1_Filter.c ****         {
 1404              		.loc 1 296 0
 1405 002e 002A     		cmp	r2, #0
 1406 0030 11D1     		bne	.L84
 296:Generated_Source\PSoC4/CapSense_1_Filter.c ****         {
 1407              		.loc 1 296 0 is_stmt 0 discriminator 1
 1408 0032 7D79     		ldrb	r5, [r7, #5]
 1409 0034 AB42     		cmp	r3, r5
 1410 0036 0ED9     		bls	.L84
 298:Generated_Source\PSoC4/CapSense_1_Filter.c ****             {
 1411              		.loc 1 298 0 is_stmt 1
 1412 0038 3319     		adds	r3, r6, r4
 1413              	.LVL202:
 1414 003a 1B7A     		ldrb	r3, [r3, #8]
 1415 003c 3A7A     		ldrb	r2, [r7, #8]
 1416              	.LVL203:
 1417 003e 9342     		cmp	r3, r2
 1418 0040 05D3     		bcc	.L85
ARM GAS  C:\Users\Mayur\AppData\Local\Temp\ccxZLytu.s 			page 61


 300:Generated_Source\PSoC4/CapSense_1_Filter.c ****             }
 1419              		.loc 1 300 0
 1420 0042 2200     		movs	r2, r4
 1421 0044 0199     		ldr	r1, [sp, #4]
 1422 0046 3000     		movs	r0, r6
 1423 0048 FFF7FEFF 		bl	CapSense_1_FtInitializeBaselineChannel
 1424              	.LVL204:
 1425 004c 1FE0     		b	.L86
 1426              	.L85:
 304:Generated_Source\PSoC4/CapSense_1_Filter.c ****             }
 1427              		.loc 1 304 0
 1428 004e 3219     		adds	r2, r6, r4
 1429 0050 0133     		adds	r3, r3, #1
 1430 0052 1372     		strb	r3, [r2, #8]
 1431 0054 1BE0     		b	.L86
 1432              	.LVL205:
 1433              	.L84:
 311:Generated_Source\PSoC4/CapSense_1_Filter.c ****                     ((difference < (uint32) ptrWidgetRam->nNoiseTh) && (sign == 0u)))
 1434              		.loc 1 311 0
 1435 0056 3D79     		ldrb	r5, [r7, #4]
 1436 0058 AB42     		cmp	r3, r5
 1437 005a 04D9     		bls	.L87
 312:Generated_Source\PSoC4/CapSense_1_Filter.c ****                 {
 1438              		.loc 1 312 0 discriminator 1
 1439 005c 7D79     		ldrb	r5, [r7, #5]
 311:Generated_Source\PSoC4/CapSense_1_Filter.c ****                     ((difference < (uint32) ptrWidgetRam->nNoiseTh) && (sign == 0u)))
 1440              		.loc 1 311 0 discriminator 1
 1441 005e AB42     		cmp	r3, r5
 1442 0060 15D2     		bcs	.L86
 312:Generated_Source\PSoC4/CapSense_1_Filter.c ****                 {
 1443              		.loc 1 312 0
 1444 0062 002A     		cmp	r2, #0
 1445 0064 13D1     		bne	.L86
 1446              	.L87:
 318:Generated_Source\PSoC4/CapSense_1_Filter.c ****                 {
 1447              		.loc 1 318 0
 1448 0066 FF23     		movs	r3, #255
 1449              	.LVL206:
 1450 0068 019A     		ldr	r2, [sp, #4]
 1451              	.LVL207:
 1452 006a 1340     		ands	r3, r2
 1453 006c 062B     		cmp	r3, #6
 1454 006e 0ED0     		beq	.L86
 322:Generated_Source\PSoC4/CapSense_1_Filter.c ****                             history |= ptrSensor->bslnExt[freqChannel];
 1455              		.loc 1 322 0
 1456 0070 0902     		lsls	r1, r1, #8
 1457              	.LVL208:
 323:Generated_Source\PSoC4/CapSense_1_Filter.c ****                         #else
 1458              		.loc 1 323 0
 1459 0072 3319     		adds	r3, r6, r4
 1460 0074 9846     		mov	r8, r3
 1461 0076 1B79     		ldrb	r3, [r3, #4]
 1462 0078 1943     		orrs	r1, r3
 1463              	.LVL209:
 334:Generated_Source\PSoC4/CapSense_1_Filter.c ****                                         (uint32)ptrSensor->raw[freqChannel],
 1464              		.loc 1 334 0
 1465 007a 0823     		movs	r3, #8
ARM GAS  C:\Users\Mayur\AppData\Local\Temp\ccxZLytu.s 			page 62


 1466 007c 0122     		movs	r2, #1
 1467 007e FFF7FEFF 		bl	CapSense_1_FtIIR1stOrder
 1468              	.LVL210:
 340:Generated_Source\PSoC4/CapSense_1_Filter.c ****                             ptrSensor->bslnExt[freqChannel] = LO8(history);
 1469              		.loc 1 340 0
 1470 0082 020A     		lsrs	r2, r0, #8
 1471 0084 6300     		lsls	r3, r4, #1
 1472 0086 F318     		adds	r3, r6, r3
 1473 0088 5A80     		strh	r2, [r3, #2]
 341:Generated_Source\PSoC4/CapSense_1_Filter.c ****                         #else
 1474              		.loc 1 341 0
 1475 008a 4346     		mov	r3, r8
 1476 008c 1871     		strb	r0, [r3, #4]
 1477              	.LVL211:
 1478              	.L86:
 1479 008e 2300     		movs	r3, r4
 1480              	.LVL212:
 1481              	.L81:
 271:Generated_Source\PSoC4/CapSense_1_Filter.c ****     {
 1482              		.loc 1 271 0 discriminator 1
 1483 0090 5C1E     		subs	r4, r3, #1
 1484              	.LVL213:
 1485 0092 002B     		cmp	r3, #0
 1486 0094 BDD1     		bne	.L88
 398:Generated_Source\PSoC4/CapSense_1_Filter.c **** 
 1487              		.loc 1 398 0
 1488 0096 0020     		movs	r0, #0
 1489 0098 02B0     		add	sp, sp, #8
 1490              		@ sp needed
 1491              	.LVL214:
 1492              	.LVL215:
 1493              	.LVL216:
 1494 009a 04BC     		pop	{r2}
 1495 009c 9046     		mov	r8, r2
 1496 009e F0BD     		pop	{r4, r5, r6, r7, pc}
 1497              		.cfi_endproc
 1498              	.LFE4:
 1499              		.size	CapSense_1_FtUpdateBaseline, .-CapSense_1_FtUpdateBaseline
 1500              		.section	.text.CapSense_1_UpdateSensorBaseline,"ax",%progbits
 1501              		.align	2
 1502              		.global	CapSense_1_UpdateSensorBaseline
 1503              		.code	16
 1504              		.thumb_func
 1505              		.type	CapSense_1_UpdateSensorBaseline, %function
 1506              	CapSense_1_UpdateSensorBaseline:
 1507              	.LFB3:
 201:Generated_Source\PSoC4/CapSense_1_Filter.c ****     uint32 result = CYRET_SUCCESS;
 1508              		.loc 1 201 0
 1509              		.cfi_startproc
 1510              		@ args = 0, pretend = 0, frame = 0
 1511              		@ frame_needed = 0, uses_anonymous_args = 0
 1512              	.LVL217:
 1513 0000 10B5     		push	{r4, lr}
 1514              		.cfi_def_cfa_offset 8
 1515              		.cfi_offset 4, -8
 1516              		.cfi_offset 14, -4
 1517              	.LVL218:
ARM GAS  C:\Users\Mayur\AppData\Local\Temp\ccxZLytu.s 			page 63


 206:Generated_Source\PSoC4/CapSense_1_Filter.c **** 
 1518              		.loc 1 206 0
 1519 0002 4001     		lsls	r0, r0, #5
 1520              	.LVL219:
 1521 0004 064B     		ldr	r3, .L90
 1522 0006 1B18     		adds	r3, r3, r0
 1523              	.LVL220:
 1524 0008 5868     		ldr	r0, [r3, #4]
 1525              	.LVL221:
 210:Generated_Source\PSoC4/CapSense_1_Filter.c ****     result = CapSense_1_FtUpdateBaseline(ptrWidgetRam, ptrSensor, (uint32)ptrWidget->wdgtType);
 1526              		.loc 1 210 0
 1527 000a 8A00     		lsls	r2, r1, #2
 1528 000c 5218     		adds	r2, r2, r1
 1529 000e 5100     		lsls	r1, r2, #1
 1530              	.LVL222:
 1531 0010 9A68     		ldr	r2, [r3, #8]
 1532 0012 9446     		mov	ip, r2
 1533 0014 6144     		add	r1, r1, ip
 1534              	.LVL223:
 211:Generated_Source\PSoC4/CapSense_1_Filter.c **** 
 1535              		.loc 1 211 0
 1536 0016 9A7E     		ldrb	r2, [r3, #26]
 1537 0018 FFF7FEFF 		bl	CapSense_1_FtUpdateBaseline
 1538              	.LVL224:
 222:Generated_Source\PSoC4/CapSense_1_Filter.c **** 
 1539              		.loc 1 222 0
 1540              		@ sp needed
 1541 001c 10BD     		pop	{r4, pc}
 1542              	.L91:
 1543 001e C046     		.align	2
 1544              	.L90:
 1545 0020 00000000 		.word	CapSense_1_dsFlash
 1546              		.cfi_endproc
 1547              	.LFE3:
